(lp0
ccopy_reg
_reconstructor
p1
(cdestination
Destination
p2
c__builtin__
object
p3
Ntp4
Rp5
(dp6
S'_Destination__latest_usage'
p7
g1
(crospy.rostime
Time
p8
g3
Ntp9
Rp10
(lp11
I0
aI0
absS'name'
p12
S'WayPoint1'
p13
sS'pose'
p14
g1
(cgeometry_msgs.msg._Pose
Pose
p15
g3
Ntp16
Rp17
(lp18
g1
(cgeometry_msgs.msg._Point
Point
p19
g3
Ntp20
Rp21
(lp22
F-1.549999999999999
aF-0.8999999999999986
aF0.0
abag1
(cgeometry_msgs.msg._Quaternion
Quaternion
p23
g3
Ntp24
Rp25
(lp26
I0
aI0
aI0
aI1
ababsS'_Destination__stats'
p27
(lp28
sS'_Destination__available'
p29
I01
sS'_Destination__remaining_idl'
p30
g10
sS'estim_idl'
p31
I0
sbag1
(g2
g3
Ntp32
Rp33
(dp34
g7
g10
sg12
S'WayPoint10'
p35
sg14
g1
(g15
g3
Ntp36
Rp37
(lp38
g1
(g19
g3
Ntp39
Rp40
(lp41
F-2.75
aF4.0500000000000025
aF0.0
abag1
(g23
g3
Ntp42
Rp43
(lp44
I0
aI0
aI0
aI1
ababsg27
(lp45
sg29
I01
sg30
g10
sg31
I0
sbag1
(g2
g3
Ntp46
Rp47
(dp48
g7
g10
sg12
S'WayPoint2'
p49
sg14
g1
(g15
g3
Ntp50
Rp51
(lp52
g1
(g19
g3
Ntp53
Rp54
(lp55
F-5.25
aF-0.04999999999999716
aF0.0
abag1
(g23
g3
Ntp56
Rp57
(lp58
I0
aI0
aI0
aI1
ababsg27
(lp59
sg29
I01
sg30
g10
sg31
I0
sbag1
(g2
g3
Ntp60
Rp61
(dp62
g7
g10
sg12
S'WayPoint3'
p63
sg14
g1
(g15
g3
Ntp64
Rp65
(lp66
g1
(g19
g3
Ntp67
Rp68
(lp69
F-2.6499999999999995
aF-3.8999999999999986
aF0.0
abag1
(g23
g3
Ntp70
Rp71
(lp72
I0
aI0
aI0
aI1
ababsg27
(lp73
sg29
I01
sg30
g10
sg31
I0
sbag1
(g2
g3
Ntp74
Rp75
(dp76
g7
g10
sg12
S'WayPoint4'
p77
sg14
g1
(g15
g3
Ntp78
Rp79
(lp80
g1
(g19
g3
Ntp81
Rp82
(lp83
F3.700000000000001
aF-1.3499999999999979
aF0.0
abag1
(g23
g3
Ntp84
Rp85
(lp86
I0
aI0
aI0
aI1
ababsg27
(lp87
sg29
I01
sg30
g10
sg31
I0
sbag1
(g2
g3
Ntp88
Rp89
(dp90
g7
g10
sg12
S'WayPoint5'
p91
sg14
g1
(g15
g3
Ntp92
Rp93
(lp94
g1
(g19
g3
Ntp95
Rp96
(lp97
F7.650000000000002
aF-1.4999999999999982
aF0.0
abag1
(g23
g3
Ntp98
Rp99
(lp100
I0
aI0
aI0
aI1
ababsg27
(lp101
sg29
I01
sg30
g10
sg31
I0
sbag1
(g2
g3
Ntp102
Rp103
(dp104
g7
g10
sg12
S'WayPoint6'
p105
sg14
g1
(g15
g3
Ntp106
Rp107
(lp108
g1
(g19
g3
Ntp109
Rp110
(lp111
F4.350000000000001
aF1.6000000000000023
aF0.0
abag1
(g23
g3
Ntp112
Rp113
(lp114
I0
aI0
aI0
aI1
ababsg27
(lp115
sg29
I01
sg30
g10
sg31
I0
sbag1
(g2
g3
Ntp116
Rp117
(dp118
g7
g10
sg12
S'WayPoint7'
p119
sg14
g1
(g15
g3
Ntp120
Rp121
(lp122
g1
(g19
g3
Ntp123
Rp124
(lp125
F1.700000000000001
aF1.6500000000000021
aF0.0
abag1
(g23
g3
Ntp126
Rp127
(lp128
I0
aI0
aI0
aI1
ababsg27
(lp129
sg29
I01
sg30
g10
sg31
I0
sbag1
(g2
g3
Ntp130
Rp131
(dp132
g7
g10
sg12
S'WayPoint8'
p133
sg14
g1
(g15
g3
Ntp134
Rp135
(lp136
g1
(g19
g3
Ntp137
Rp138
(lp139
F0.9000000000000004
aF4.350000000000002
aF0.0
abag1
(g23
g3
Ntp140
Rp141
(lp142
I0
aI0
aI0
aI1
ababsg27
(lp143
sg29
I01
sg30
g10
sg31
I0
sbag1
(g2
g3
Ntp144
Rp145
(dp146
g7
g10
sg12
S'WayPoint9'
p147
sg14
g1
(g15
g3
Ntp148
Rp149
(lp150
g1
(g19
g3
Ntp151
Rp152
(lp153
F5.0
aF4.600000000000002
aF0.0
abag1
(g23
g3
Ntp154
Rp155
(lp156
I0
aI0
aI0
aI1
ababsg27
(lp157
sg29
I01
sg30
g10
sg31
I0
sba.