(lp0
ccopy_reg
_reconstructor
p1
(cdestination
Destination
p2
c__builtin__
object
p3
Ntp4
Rp5
(dp6
S'_Destination__latest_usage'
p7
g1
(crospy.rostime
Time
p8
g3
Ntp9
Rp10
(lp11
I0
aI0
absS'name'
p12
S'WayPoint1'
p13
sS'pose'
p14
g1
(cgeometry_msgs.msg._Pose
Pose
p15
g3
Ntp16
Rp17
(lp18
g1
(cgeometry_msgs.msg._Point
Point
p19
g3
Ntp20
Rp21
(lp22
F-1.549999999999999
aF-0.8999999999999986
aF0.0
abag1
(cgeometry_msgs.msg._Quaternion
Quaternion
p23
g3
Ntp24
Rp25
(lp26
I0
aI0
aI0
aI1
ababsS'_Destination__stats'
p27
(lp28
sS'_Destination__available'
p29
I00
sS'_Destination__remaining_idl'
p30
g1
(g8
g3
Ntp31
Rp32
(lp33
I49
aI800000000
absS'estim_idl'
p34
F35.04
sbag1
(g2
g3
Ntp35
Rp36
(dp37
g7
g10
sg12
S'WayPoint10'
p38
sg14
g1
(g15
g3
Ntp39
Rp40
(lp41
g1
(g19
g3
Ntp42
Rp43
(lp44
F-2.75
aF4.0500000000000025
aF0.0
abag1
(g23
g3
Ntp45
Rp46
(lp47
I0
aI0
aI0
aI1
ababsg27
(lp48
sg29
I01
sg30
g10
sg34
I0
sbag1
(g2
g3
Ntp49
Rp50
(dp51
g7
g1
(g8
g3
Ntp52
Rp53
(lp54
I38
aI800000000
absg12
S'WayPoint2'
p55
sg14
g1
(g15
g3
Ntp56
Rp57
(lp58
g1
(g19
g3
Ntp59
Rp60
(lp61
F-5.25
aF-0.04999999999999716
aF0.0
abag1
(g23
g3
Ntp62
Rp63
(lp64
I0
aI0
aI0
aI1
ababsg27
(lp65
g1
(cdestination
Idleness
p66
g3
Ntp67
Rp68
(dp69
S'_Idleness__true_idl'
p70
F38.8
sS'_Idleness__estim_idl'
p71
F36.28
sS'_Idleness__remaining_idl'
p72
F36.0
sbasg29
I01
sg30
g53
sg34
I0
sbag1
(g2
g3
Ntp73
Rp74
(dp75
g7
g10
sg12
S'WayPoint3'
p76
sg14
g1
(g15
g3
Ntp77
Rp78
(lp79
g1
(g19
g3
Ntp80
Rp81
(lp82
F-2.6499999999999995
aF-3.8999999999999986
aF0.0
abag1
(g23
g3
Ntp83
Rp84
(lp85
I0
aI0
aI0
aI1
ababsg27
(lp86
sg29
I01
sg30
g10
sg34
I0
sbag1
(g2
g3
Ntp87
Rp88
(dp89
g7
g1
(g8
g3
Ntp90
Rp91
(lp92
I26
aI800000000
absg12
S'WayPoint4'
p93
sg14
g1
(g15
g3
Ntp94
Rp95
(lp96
g1
(g19
g3
Ntp97
Rp98
(lp99
F3.700000000000001
aF-1.3499999999999979
aF0.0
abag1
(g23
g3
Ntp100
Rp101
(lp102
I0
aI0
aI0
aI1
ababsg27
(lp103
g1
(g66
g3
Ntp104
Rp105
(dp106
g70
F26.8
sg71
F20.67
sg72
F24.0
sbasg29
I01
sg30
g91
sg34
I0
sbag1
(g2
g3
Ntp107
Rp108
(dp109
g7
g10
sg12
S'WayPoint5'
p110
sg14
g1
(g15
g3
Ntp111
Rp112
(lp113
g1
(g19
g3
Ntp114
Rp115
(lp116
F7.650000000000002
aF-1.4999999999999982
aF0.0
abag1
(g23
g3
Ntp117
Rp118
(lp119
I0
aI0
aI0
aI1
ababsg27
(lp120
sg29
I01
sg30
g10
sg34
I0
sbag1
(g2
g3
Ntp121
Rp122
(dp123
g7
g10
sg12
S'WayPoint6'
p124
sg14
g1
(g15
g3
Ntp125
Rp126
(lp127
g1
(g19
g3
Ntp128
Rp129
(lp130
F4.350000000000001
aF1.6000000000000023
aF0.0
abag1
(g23
g3
Ntp131
Rp132
(lp133
I0
aI0
aI0
aI1
ababsg27
(lp134
sg29
I00
sg30
g1
(g8
g3
Ntp135
Rp136
(lp137
I39
aI800000000
absg34
F38.6
sbag1
(g2
g3
Ntp138
Rp139
(dp140
g7
g10
sg12
S'WayPoint7'
p141
sg14
g1
(g15
g3
Ntp142
Rp143
(lp144
g1
(g19
g3
Ntp145
Rp146
(lp147
F1.700000000000001
aF1.6500000000000021
aF0.0
abag1
(g23
g3
Ntp148
Rp149
(lp150
I0
aI0
aI0
aI1
ababsg27
(lp151
sg29
I00
sg30
g1
(g8
g3
Ntp152
Rp153
(lp154
I27
aI802000000
absg34
F23.0
sbag1
(g2
g3
Ntp155
Rp156
(dp157
g7
g10
sg12
S'WayPoint8'
p158
sg14
g1
(g15
g3
Ntp159
Rp160
(lp161
g1
(g19
g3
Ntp162
Rp163
(lp164
F0.9000000000000004
aF4.350000000000002
aF0.0
abag1
(g23
g3
Ntp165
Rp166
(lp167
I0
aI0
aI0
aI1
ababsg27
(lp168
sg29
I00
sg30
g1
(g8
g3
Ntp169
Rp170
(lp171
I3
aI0
absg34
F28.72
sbag1
(g2
g3
Ntp172
Rp173
(dp174
g7
g1
(g8
g3
Ntp175
Rp176
(lp177
I49
aI400000000
absg12
S'WayPoint9'
p178
sg14
g1
(g15
g3
Ntp179
Rp180
(lp181
g1
(g19
g3
Ntp182
Rp183
(lp184
F5.0
aF4.600000000000002
aF0.0
abag1
(g23
g3
Ntp185
Rp186
(lp187
I0
aI0
aI0
aI1
ababsg27
(lp188
g1
(g66
g3
Ntp189
Rp190
(dp191
g70
F49.4
sg71
F38.52
sg72
F46.999
sbasg29
I01
sg30
g176
sg34
I0
sba.