(lp0
ccopy_reg
_reconstructor
p1
(cdestination
Destination
p2
c__builtin__
object
p3
Ntp4
Rp5
(dp6
S'_Destination__latest_usage'
p7
g1
(crospy.rostime
Time
p8
g3
Ntp9
Rp10
(lp11
I35
aI600000000
absS'name'
p12
S'WayPoint1'
p13
sS'pose'
p14
g1
(cgeometry_msgs.msg._Pose
Pose
p15
g3
Ntp16
Rp17
(lp18
g1
(cgeometry_msgs.msg._Point
Point
p19
g3
Ntp20
Rp21
(lp22
F-2.75
aF1.0500000000000025
aF0.0
abag1
(cgeometry_msgs.msg._Quaternion
Quaternion
p23
g3
Ntp24
Rp25
(lp26
I0
aI0
aI0
aI1
ababsS'_Destination__stats'
p27
(lp28
g1
(cdestination
Idleness
p29
g3
Ntp30
Rp31
(dp32
S'_Idleness__true_idl'
p33
F35.6
sS'_Idleness__estim_idl'
p34
F16.4
sS'_Idleness__remaining_idl'
p35
F33.0
sbasS'_Destination__available'
p36
I01
sS'_Destination__remaining_idl'
p37
g10
sS'estim_idl'
p38
I0
sbag1
(g2
g3
Ntp39
Rp40
(dp41
g7
g1
(g8
g3
Ntp42
Rp43
(lp44
I0
aI0
absg12
S'WayPoint2'
p45
sg14
g1
(g15
g3
Ntp46
Rp47
(lp48
g1
(g19
g3
Ntp49
Rp50
(lp51
F5.15
aF0.9000000000000021
aF0.0
abag1
(g23
g3
Ntp52
Rp53
(lp54
I0
aI0
aI0
aI1
ababsg27
(lp55
sg36
I01
sg37
g43
sg38
I0
sbag1
(g2
g3
Ntp56
Rp57
(dp58
g7
g43
sg12
S'WayPoint3'
p59
sg14
g1
(g15
g3
Ntp60
Rp61
(lp62
g1
(g19
g3
Ntp63
Rp64
(lp65
F4.850000000000001
aF3.900000000000002
aF0.0
abag1
(g23
g3
Ntp66
Rp67
(lp68
I0
aI0
aI0
aI1
ababsg27
(lp69
sg36
I00
sg37
g1
(g8
g3
Ntp70
Rp71
(lp72
I55
aI0
absg38
F0.0
sbag1
(g2
g3
Ntp73
Rp74
(dp75
g7
g43
sg12
S'WayPoint4'
p76
sg14
g1
(g15
g3
Ntp77
Rp78
(lp79
g1
(g19
g3
Ntp80
Rp81
(lp82
F1.200000000000001
aF3.1000000000000023
aF0.0
abag1
(g23
g3
Ntp83
Rp84
(lp85
I0
aI0
aI0
aI1
ababsg27
(lp86
sg36
I00
sg37
g1
(g8
g3
Ntp87
Rp88
(lp89
I2
aI600000000
absg38
F80.4
sbag1
(g2
g3
Ntp90
Rp91
(dp92
g7
g43
sg12
S'WayPoint5'
p93
sg14
g1
(g15
g3
Ntp94
Rp95
(lp96
g1
(g19
g3
Ntp97
Rp98
(lp99
F5.800000000000001
aF-4.349999999999998
aF0.0
abag1
(g23
g3
Ntp100
Rp101
(lp102
I0
aI0
aI0
aI1
ababsg27
(lp103
sg36
I00
sg37
g88
sg38
F53.79
sbag1
(g2
g3
Ntp104
Rp105
(dp106
g7
g1
(g8
g3
Ntp107
Rp108
(lp109
I54
aI2000000
absg12
S'WayPoint6'
p110
sg14
g1
(g15
g3
Ntp111
Rp112
(lp113
g1
(g19
g3
Ntp114
Rp115
(lp116
F-6.15
aF3.150000000000002
aF0.0
abag1
(g23
g3
Ntp117
Rp118
(lp119
I0
aI0
aI0
aI1
ababsg27
(lp120
g1
(g29
g3
Ntp121
Rp122
(dp123
g33
F54.002
sg34
F16.38
sg35
F18.002
sbasg36
I01
sg37
g108
sg38
I0
sbag1
(g2
g3
Ntp124
Rp125
(dp126
g7
g43
sg12
S'WayPoint7'
p127
sg14
g1
(g15
g3
Ntp128
Rp129
(lp130
g1
(g19
g3
Ntp131
Rp132
(lp133
F-6.3
aF-1.8999999999999986
aF0.0
abag1
(g23
g3
Ntp134
Rp135
(lp136
I0
aI0
aI0
aI1
ababsg27
(lp137
sg36
I00
sg37
g1
(g8
g3
Ntp138
Rp139
(lp140
I2
aI802000000
absg38
F63.56
sba.