(lp0
ccopy_reg
_reconstructor
p1
(cdestination
Destination
p2
c__builtin__
object
p3
Ntp4
Rp5
(dp6
S'_Destination__latest_usage'
p7
g1
(crospy.rostime
Time
p8
g3
Ntp9
Rp10
(lp11
I60
aI148000000
absS'name'
p12
S'WayPoint1'
p13
sS'pose'
p14
g1
(cgeometry_msgs.msg._Pose
Pose
p15
g3
Ntp16
Rp17
(lp18
g1
(cgeometry_msgs.msg._Point
Point
p19
g3
Ntp20
Rp21
(lp22
F-1.549999999999999
aF-0.8999999999999986
aF0.0
abag1
(cgeometry_msgs.msg._Quaternion
Quaternion
p23
g3
Ntp24
Rp25
(lp26
I0
aI0
aI0
aI1
ababsS'_Destination__stats'
p27
(lp28
g1
(cdestination
Idleness
p29
g3
Ntp30
Rp31
(dp32
S'_Idleness__true_idl'
p33
F36.8
sS'_Idleness__estim_idl'
p34
F33.53
sS'_Idleness__remaining_idl'
p35
F34.0
sbag1
(g29
g3
Ntp36
Rp37
(dp38
g33
F23.348
sg34
I0
sg35
F23.348
sbasS'_Destination__available'
p39
I01
sS'_Destination__remaining_idl'
p40
g10
sS'estim_idl'
p41
I0
sbag1
(g2
g3
Ntp42
Rp43
(dp44
g7
g10
sg12
S'WayPoint10'
p45
sg14
g1
(g15
g3
Ntp46
Rp47
(lp48
g1
(g19
g3
Ntp49
Rp50
(lp51
F-2.75
aF4.0500000000000025
aF0.0
abag1
(g23
g3
Ntp52
Rp53
(lp54
I0
aI0
aI0
aI1
ababsg27
(lp55
g1
(g29
g3
Ntp56
Rp57
(dp58
g33
F60.148
sg34
I0
sg35
F60.148
sbasg39
I01
sg40
g10
sg41
I0
sbag1
(g2
g3
Ntp59
Rp60
(dp61
g7
g10
sg12
S'WayPoint2'
p62
sg14
g1
(g15
g3
Ntp63
Rp64
(lp65
g1
(g19
g3
Ntp66
Rp67
(lp68
F-5.25
aF-0.04999999999999716
aF0.0
abag1
(g23
g3
Ntp69
Rp70
(lp71
I0
aI0
aI0
aI1
ababsg27
(lp72
g1
(g29
g3
Ntp73
Rp74
(dp75
g33
F60.148
sg34
I0
sg35
F60.148
sbasg39
I01
sg40
g10
sg41
I0
sbag1
(g2
g3
Ntp76
Rp77
(dp78
g7
g10
sg12
S'WayPoint3'
p79
sg14
g1
(g15
g3
Ntp80
Rp81
(lp82
g1
(g19
g3
Ntp83
Rp84
(lp85
F-2.6499999999999995
aF-3.8999999999999986
aF0.0
abag1
(g23
g3
Ntp86
Rp87
(lp88
I0
aI0
aI0
aI1
ababsg27
(lp89
g1
(g29
g3
Ntp90
Rp91
(dp92
g33
F60.148
sg34
I0
sg35
F60.148
sbasg39
I01
sg40
g10
sg41
I0
sbag1
(g2
g3
Ntp93
Rp94
(dp95
g7
g10
sg12
S'WayPoint4'
p96
sg14
g1
(g15
g3
Ntp97
Rp98
(lp99
g1
(g19
g3
Ntp100
Rp101
(lp102
F3.700000000000001
aF-1.3499999999999979
aF0.0
abag1
(g23
g3
Ntp103
Rp104
(lp105
I0
aI0
aI0
aI1
ababsg27
(lp106
g1
(g29
g3
Ntp107
Rp108
(dp109
g33
F60.148
sg34
F22.93
sg35
F13.948
sbasg39
I00
sg40
g10
sg41
I0
sbag1
(g2
g3
Ntp110
Rp111
(dp112
g7
g10
sg12
S'WayPoint5'
p113
sg14
g1
(g15
g3
Ntp114
Rp115
(lp116
g1
(g19
g3
Ntp117
Rp118
(lp119
F7.650000000000002
aF-1.4999999999999982
aF0.0
abag1
(g23
g3
Ntp120
Rp121
(lp122
I0
aI0
aI0
aI1
ababsg27
(lp123
g1
(g29
g3
Ntp124
Rp125
(dp126
g33
F60.148
sg34
F57.29
sg35
F57.148
sbasg39
I00
sg40
g10
sg41
I0
sbag1
(g2
g3
Ntp127
Rp128
(dp129
g7
g10
sg12
S'WayPoint6'
p130
sg14
g1
(g15
g3
Ntp131
Rp132
(lp133
g1
(g19
g3
Ntp134
Rp135
(lp136
F4.350000000000001
aF1.6000000000000023
aF0.0
abag1
(g23
g3
Ntp137
Rp138
(lp139
I0
aI0
aI0
aI1
ababsg27
(lp140
g1
(g29
g3
Ntp141
Rp142
(dp143
g33
F60.148
sg34
I0
sg35
F60.148
sbasg39
I01
sg40
g10
sg41
I0
sbag1
(g2
g3
Ntp144
Rp145
(dp146
g7
g10
sg12
S'WayPoint7'
p147
sg14
g1
(g15
g3
Ntp148
Rp149
(lp150
g1
(g19
g3
Ntp151
Rp152
(lp153
F1.700000000000001
aF1.6500000000000021
aF0.0
abag1
(g23
g3
Ntp154
Rp155
(lp156
I0
aI0
aI0
aI1
ababsg27
(lp157
g1
(g29
g3
Ntp158
Rp159
(dp160
g33
F45.2
sg34
F11.36
sg35
F11.0
sbag1
(g29
g3
Ntp161
Rp162
(dp163
g33
F14.948
sg34
I0
sg35
F14.948
sbasg39
I01
sg40
g10
sg41
I0
sbag1
(g2
g3
Ntp164
Rp165
(dp166
g7
g10
sg12
S'WayPoint8'
p167
sg14
g1
(g15
g3
Ntp168
Rp169
(lp170
g1
(g19
g3
Ntp171
Rp172
(lp173
F0.9000000000000004
aF4.350000000000002
aF0.0
abag1
(g23
g3
Ntp174
Rp175
(lp176
I0
aI0
aI0
aI1
ababsg27
(lp177
g1
(g29
g3
Ntp178
Rp179
(dp180
g33
F33.2
sg34
F25.65
sg35
F29.999
sbag1
(g29
g3
Ntp181
Rp182
(dp183
g33
F26.948
sg34
I0
sg35
F26.948
sbasg39
I01
sg40
g10
sg41
I0
sbag1
(g2
g3
Ntp184
Rp185
(dp186
g7
g10
sg12
S'WayPoint9'
p187
sg14
g1
(g15
g3
Ntp188
Rp189
(lp190
g1
(g19
g3
Ntp191
Rp192
(lp193
F5.0
aF4.600000000000002
aF0.0
abag1
(g23
g3
Ntp194
Rp195
(lp196
I0
aI0
aI0
aI1
ababsg27
(lp197
g1
(g29
g3
Ntp198
Rp199
(dp200
g33
F60.148
sg34
F20.87
sg35
F22.348
sbasg39
I00
sg40
g10
sg41
I0
sba.