(lp0
ccopy_reg
_reconstructor
p1
(cdestination
Destination
p2
c__builtin__
object
p3
Ntp4
Rp5
(dp6
S'_Destination__latest_usage'
p7
g1
(crospy.rostime
Time
p8
g3
Ntp9
Rp10
(lp11
I0
aI0
absS'name'
p12
S'WayPoint1'
p13
sS'pose'
p14
g1
(cgeometry_msgs.msg._Pose
Pose
p15
g3
Ntp16
Rp17
(lp18
g1
(cgeometry_msgs.msg._Point
Point
p19
g3
Ntp20
Rp21
(lp22
F-1.549999999999999
aF-0.8999999999999986
aF0.0
abag1
(cgeometry_msgs.msg._Quaternion
Quaternion
p23
g3
Ntp24
Rp25
(lp26
I0
aI0
aI0
aI1
ababsS'path_len'
p27
F0.0
sS'_Destination__stats'
p28
(lp29
sS'_Destination__available'
p30
I01
sS'_Destination__remaining_idl'
p31
g10
sS'estim_idl'
p32
I0
sbag1
(g2
g3
Ntp33
Rp34
(dp35
g7
g10
sg12
S'WayPoint10'
p36
sg14
g1
(g15
g3
Ntp37
Rp38
(lp39
g1
(g19
g3
Ntp40
Rp41
(lp42
F-2.75
aF4.0500000000000025
aF0.0
abag1
(g23
g3
Ntp43
Rp44
(lp45
I0
aI0
aI0
aI1
ababsg27
F14.525
sg28
(lp46
sg30
I00
sg31
g1
(g8
g3
Ntp47
Rp48
(lp49
I23
aI200000000
absg32
F55.86
sbag1
(g2
g3
Ntp50
Rp51
(dp52
g7
g10
sg12
S'WayPoint2'
p53
sg14
g1
(g15
g3
Ntp54
Rp55
(lp56
g1
(g19
g3
Ntp57
Rp58
(lp59
F-5.25
aF-0.04999999999999716
aF0.0
abag1
(g23
g3
Ntp60
Rp61
(lp62
I0
aI0
aI0
aI1
ababsg27
F12.262
sg28
(lp63
sg30
I00
sg31
g1
(g8
g3
Ntp64
Rp65
(lp66
I50
aI0
absg32
F47.16
sbag1
(g2
g3
Ntp67
Rp68
(dp69
g7
g10
sg12
S'WayPoint3'
p70
sg14
g1
(g15
g3
Ntp71
Rp72
(lp73
g1
(g19
g3
Ntp74
Rp75
(lp76
F-2.6499999999999995
aF-3.8999999999999986
aF0.0
abag1
(g23
g3
Ntp77
Rp78
(lp79
I0
aI0
aI0
aI1
ababsg27
F0.0
sg28
(lp80
sg30
I01
sg31
g10
sg32
I0
sbag1
(g2
g3
Ntp81
Rp82
(dp83
g7
g1
(g8
g3
Ntp84
Rp85
(lp86
I24
aI807000000
absg12
S'WayPoint4'
p87
sg14
g1
(g15
g3
Ntp88
Rp89
(lp90
g1
(g19
g3
Ntp91
Rp92
(lp93
F3.700000000000001
aF-1.3499999999999979
aF0.0
abag1
(g23
g3
Ntp94
Rp95
(lp96
I0
aI0
aI0
aI1
ababsg27
F0.0
sg28
(lp97
g1
(cdestination
Observation
p98
g3
Ntp99
Rp100
(dp101
S'idleness'
p102
g1
(cdestination
Idleness
p103
g3
Ntp104
Rp105
(dp106
S'_Idleness__true_idl'
p107
F24.807
sS'_Idleness__estim_idl'
p108
F20.67
sS'_Idleness__remaining_idl'
p109
F22.007
sbsg27
F5.374
sbasg30
I01
sg31
g85
sg32
I0
sbag1
(g2
g3
Ntp110
Rp111
(dp112
g7
g1
(g8
g3
Ntp113
Rp114
(lp115
I21
aI601000000
absg12
S'WayPoint5'
p116
sg14
g1
(g15
g3
Ntp117
Rp118
(lp119
g1
(g19
g3
Ntp120
Rp121
(lp122
F7.650000000000002
aF-1.4999999999999982
aF0.0
abag1
(g23
g3
Ntp123
Rp124
(lp125
I0
aI0
aI0
aI1
ababsg27
F0.0
sg28
(lp126
g1
(g98
g3
Ntp127
Rp128
(dp129
g102
g1
(g103
g3
Ntp130
Rp131
(dp132
g107
F21.601
sg108
F15.56
sg109
F19.001
sbsg27
F4.047
sbasg30
I01
sg31
g114
sg32
I0
sbag1
(g2
g3
Ntp133
Rp134
(dp135
g7
g10
sg12
S'WayPoint6'
p136
sg14
g1
(g15
g3
Ntp137
Rp138
(lp139
g1
(g19
g3
Ntp140
Rp141
(lp142
F4.350000000000001
aF1.6000000000000023
aF0.0
abag1
(g23
g3
Ntp143
Rp144
(lp145
I0
aI0
aI0
aI1
ababsg27
F0.0
sg28
(lp146
sg30
I01
sg31
g10
sg32
I0
sbag1
(g2
g3
Ntp147
Rp148
(dp149
g7
g10
sg12
S'WayPoint7'
p150
sg14
g1
(g15
g3
Ntp151
Rp152
(lp153
g1
(g19
g3
Ntp154
Rp155
(lp156
F1.700000000000001
aF1.6500000000000021
aF0.0
abag1
(g23
g3
Ntp157
Rp158
(lp159
I0
aI0
aI0
aI1
ababsg27
F5.054
sg28
(lp160
sg30
I00
sg31
g1
(g8
g3
Ntp161
Rp162
(lp163
I2
aI600000000
absg32
F19.44
sbag1
(g2
g3
Ntp164
Rp165
(dp166
g7
g10
sg12
S'WayPoint8'
p167
sg14
g1
(g15
g3
Ntp168
Rp169
(lp170
g1
(g19
g3
Ntp171
Rp172
(lp173
F0.9000000000000004
aF4.350000000000002
aF0.0
abag1
(g23
g3
Ntp174
Rp175
(lp176
I0
aI0
aI0
aI1
ababsg27
F8.493
sg28
(lp177
sg30
I00
sg31
g1
(g8
g3
Ntp178
Rp179
(lp180
I25
aI802000000
absg32
F32.66
sbag1
(g2
g3
Ntp181
Rp182
(dp183
g7
g1
(g8
g3
Ntp184
Rp185
(lp186
I49
aI601000000
absg12
S'WayPoint9'
p187
sg14
g1
(g15
g3
Ntp188
Rp189
(lp190
g1
(g19
g3
Ntp191
Rp192
(lp193
F5.0
aF4.600000000000002
aF0.0
abag1
(g23
g3
Ntp194
Rp195
(lp196
I0
aI0
aI0
aI1
ababsg27
F0.0
sg28
(lp197
g1
(g98
g3
Ntp198
Rp199
(dp200
g102
g1
(g103
g3
Ntp201
Rp202
(dp203
g107
F49.601
sg108
F38.52
sg109
F47.001
sbsg27
F10.015
sbasg30
I01
sg31
g185
sg32
I0
sba.