(lp0
ccopy_reg
_reconstructor
p1
(cdestination
Destination
p2
c__builtin__
object
p3
Ntp4
Rp5
(dp6
S'_Destination__latest_usage'
p7
g1
(crospy.rostime
Time
p8
g3
Ntp9
Rp10
(lp11
I0
aI0
absS'name'
p12
S'WayPoint1'
p13
sS'pose'
p14
g1
(cgeometry_msgs.msg._Pose
Pose
p15
g3
Ntp16
Rp17
(lp18
g1
(cgeometry_msgs.msg._Point
Point
p19
g3
Ntp20
Rp21
(lp22
F-1.549999999999999
aF-0.8999999999999986
aF0.0
abag1
(cgeometry_msgs.msg._Quaternion
Quaternion
p23
g3
Ntp24
Rp25
(lp26
I0
aI0
aI0
aI1
ababsS'path_len'
p27
F0.0
sS'_Destination__stats'
p28
(lp29
sS'_Destination__available'
p30
I01
sS'_Destination__remaining_idl'
p31
g10
sS'estim_idl'
p32
I0
sbag1
(g2
g3
Ntp33
Rp34
(dp35
g7
g10
sg12
S'WayPoint10'
p36
sg14
g1
(g15
g3
Ntp37
Rp38
(lp39
g1
(g19
g3
Ntp40
Rp41
(lp42
F-2.75
aF4.0500000000000025
aF0.0
abag1
(g23
g3
Ntp43
Rp44
(lp45
I0
aI0
aI0
aI1
ababsg27
F0.0
sg28
(lp46
sg30
I01
sg31
g10
sg32
I0
sbag1
(g2
g3
Ntp47
Rp48
(dp49
g7
g10
sg12
S'WayPoint2'
p50
sg14
g1
(g15
g3
Ntp51
Rp52
(lp53
g1
(g19
g3
Ntp54
Rp55
(lp56
F-5.25
aF-0.04999999999999716
aF0.0
abag1
(g23
g3
Ntp57
Rp58
(lp59
I0
aI0
aI0
aI1
ababsg27
F9.411
sg28
(lp60
sg30
I00
sg31
g1
(g8
g3
Ntp61
Rp62
(lp63
I26
aI800000000
absg32
F36.2
sbag1
(g2
g3
Ntp64
Rp65
(dp66
g7
g1
(g8
g3
Ntp67
Rp68
(lp69
I38
aI600000000
absg12
S'WayPoint3'
p70
sg14
g1
(g15
g3
Ntp71
Rp72
(lp73
g1
(g19
g3
Ntp74
Rp75
(lp76
F-2.6499999999999995
aF-3.8999999999999986
aF0.0
abag1
(g23
g3
Ntp77
Rp78
(lp79
I0
aI0
aI0
aI1
ababsg27
F0.0
sg28
(lp80
g1
(cdestination
Observation
p81
g3
Ntp82
Rp83
(dp84
S'idleness'
p85
g1
(cdestination
Idleness
p86
g3
Ntp87
Rp88
(dp89
S'_Idleness__true_idl'
p90
F38.6
sS'_Idleness__estim_idl'
p91
F28.32
sS'_Idleness__remaining_idl'
p92
F36.0
sbsg27
F7.364
sbasg30
I01
sg31
g68
sg32
I0
sbag1
(g2
g3
Ntp93
Rp94
(dp95
g7
g1
(g8
g3
Ntp96
Rp97
(lp98
I25
aI801000000
absg12
S'WayPoint4'
p99
sg14
g1
(g15
g3
Ntp100
Rp101
(lp102
g1
(g19
g3
Ntp103
Rp104
(lp105
F3.700000000000001
aF-1.3499999999999979
aF0.0
abag1
(g23
g3
Ntp106
Rp107
(lp108
I0
aI0
aI0
aI1
ababsg27
F0.0
sg28
(lp109
g1
(g81
g3
Ntp110
Rp111
(dp112
g85
g1
(g86
g3
Ntp113
Rp114
(dp115
g90
F25.801
sg91
F20.67
sg92
F23.6
sbsg27
F5.374
sbasg30
I01
sg31
g97
sg32
I0
sbag1
(g2
g3
Ntp116
Rp117
(dp118
g7
g10
sg12
S'WayPoint5'
p119
sg14
g1
(g15
g3
Ntp120
Rp121
(lp122
g1
(g19
g3
Ntp123
Rp124
(lp125
F7.650000000000002
aF-1.4999999999999982
aF0.0
abag1
(g23
g3
Ntp126
Rp127
(lp128
I0
aI0
aI0
aI1
ababsg27
F12.516
sg28
(lp129
sg30
I00
sg31
g1
(g8
g3
Ntp130
Rp131
(lp132
I32
aI800000000
absg32
F48.14
sbag1
(g2
g3
Ntp133
Rp134
(dp135
g7
g1
(g8
g3
Ntp136
Rp137
(lp138
I31
aI800000000
absg12
S'WayPoint6'
p139
sg14
g1
(g15
g3
Ntp140
Rp141
(lp142
g1
(g19
g3
Ntp143
Rp144
(lp145
F4.350000000000001
aF1.6000000000000023
aF0.0
abag1
(g23
g3
Ntp146
Rp147
(lp148
I0
aI0
aI0
aI1
ababsg27
F0.0
sg28
(lp149
g1
(g81
g3
Ntp150
Rp151
(dp152
g85
g1
(g86
g3
Ntp153
Rp154
(dp155
g90
F31.8
sg91
F10.54
sg92
F11.0
sbsg27
F2.741
sbasg30
I01
sg31
g137
sg32
I0
sbag1
(g2
g3
Ntp156
Rp157
(dp158
g7
g1
(g8
g3
Ntp159
Rp160
(lp161
I19
aI800000000
absg12
S'WayPoint7'
p162
sg14
g1
(g15
g3
Ntp163
Rp164
(lp165
g1
(g19
g3
Ntp166
Rp167
(lp168
F1.700000000000001
aF1.6500000000000021
aF0.0
abag1
(g23
g3
Ntp169
Rp170
(lp171
I0
aI0
aI0
aI1
ababsg27
F0.0
sg28
(lp172
g1
(g81
g3
Ntp173
Rp174
(dp175
g85
g1
(g86
g3
Ntp176
Rp177
(dp178
g90
F19.8
sg91
F20.54
sg92
F16.999
sbsg27
F5.341
sbasg30
I01
sg31
g160
sg32
I0
sbag1
(g2
g3
Ntp179
Rp180
(dp181
g7
g10
sg12
S'WayPoint8'
p182
sg14
g1
(g15
g3
Ntp183
Rp184
(lp185
g1
(g19
g3
Ntp186
Rp187
(lp188
F0.9000000000000004
aF4.350000000000002
aF0.0
abag1
(g23
g3
Ntp189
Rp190
(lp191
I0
aI0
aI0
aI1
ababsg27
F7.489
sg28
(lp192
sg30
I00
sg31
g1
(g8
g3
Ntp193
Rp194
(lp195
I3
aI0
absg32
F28.8
sbag1
(g2
g3
Ntp196
Rp197
(dp198
g7
g10
sg12
S'WayPoint9'
p199
sg14
g1
(g15
g3
Ntp200
Rp201
(lp202
g1
(g19
g3
Ntp203
Rp204
(lp205
F5.0
aF4.600000000000002
aF0.0
abag1
(g23
g3
Ntp206
Rp207
(lp208
I0
aI0
aI0
aI1
ababsg27
F12.046
sg28
(lp209
sg30
I00
sg31
g1
(g8
g3
Ntp210
Rp211
(lp212
I39
aI600000000
absg32
F46.33
sba.