(lp0
ccopy_reg
_reconstructor
p1
(cdestination
Destination
p2
c__builtin__
object
p3
Ntp4
Rp5
(dp6
S'_Destination__latest_usage'
p7
g1
(crospy.rostime
Time
p8
g3
Ntp9
Rp10
(lp11
I0
aI0
absS'name'
p12
S'WayPoint1'
p13
sS'pose'
p14
g1
(cgeometry_msgs.msg._Pose
Pose
p15
g3
Ntp16
Rp17
(lp18
g1
(cgeometry_msgs.msg._Point
Point
p19
g3
Ntp20
Rp21
(lp22
F-1.549999999999999
aF-0.8999999999999986
aF0.0
abag1
(cgeometry_msgs.msg._Quaternion
Quaternion
p23
g3
Ntp24
Rp25
(lp26
I0
aI0
aI0
aI1
ababsS'path_len'
p27
F0.0
sS'_Destination__stats'
p28
(lp29
sS'_Destination__available'
p30
I01
sS'_Destination__remaining_idl'
p31
g10
sS'estim_idl'
p32
I0
sbag1
(g2
g3
Ntp33
Rp34
(dp35
g7
g1
(g8
g3
Ntp36
Rp37
(lp38
I44
aI2000000
absg12
S'WayPoint10'
p39
sg14
g1
(g15
g3
Ntp40
Rp41
(lp42
g1
(g19
g3
Ntp43
Rp44
(lp45
F-2.75
aF4.0500000000000025
aF0.0
abag1
(g23
g3
Ntp46
Rp47
(lp48
I0
aI0
aI0
aI1
ababsg27
F0.0
sg28
(lp49
g1
(cdestination
Observation
p50
g3
Ntp51
Rp52
(dp53
S'idleness'
p54
g1
(cdestination
Idleness
p55
g3
Ntp56
Rp57
(dp58
S'_Idleness__true_idl'
p59
F44.002
sS'_Idleness__estim_idl'
p60
F33.64
sS'_Idleness__remaining_idl'
p61
F40.002
sbsg27
F8.747
sbasg30
I01
sg31
g37
sg32
I0
sbag1
(g2
g3
Ntp62
Rp63
(dp64
g7
g10
sg12
S'WayPoint2'
p65
sg14
g1
(g15
g3
Ntp66
Rp67
(lp68
g1
(g19
g3
Ntp69
Rp70
(lp71
F-5.25
aF-0.04999999999999716
aF0.0
abag1
(g23
g3
Ntp72
Rp73
(lp74
I0
aI0
aI0
aI1
ababsg27
F0.0
sg28
(lp75
sg30
I01
sg31
g10
sg32
I0
sbag1
(g2
g3
Ntp76
Rp77
(dp78
g7
g10
sg12
S'WayPoint3'
p79
sg14
g1
(g15
g3
Ntp80
Rp81
(lp82
g1
(g19
g3
Ntp83
Rp84
(lp85
F-2.6499999999999995
aF-3.8999999999999986
aF0.0
abag1
(g23
g3
Ntp86
Rp87
(lp88
I0
aI0
aI0
aI1
ababsg27
F0.0
sg28
(lp89
sg30
I01
sg31
g10
sg32
I0
sbag1
(g2
g3
Ntp90
Rp91
(dp92
g7
g10
sg12
S'WayPoint4'
p93
sg14
g1
(g15
g3
Ntp94
Rp95
(lp96
g1
(g19
g3
Ntp97
Rp98
(lp99
F3.700000000000001
aF-1.3499999999999979
aF0.0
abag1
(g23
g3
Ntp100
Rp101
(lp102
I0
aI0
aI0
aI1
ababsg27
F10.341
sg28
(lp103
sg30
I00
sg31
g1
(g8
g3
Ntp104
Rp105
(lp106
I45
aI0
absg32
F39.77
sbag1
(g2
g3
Ntp107
Rp108
(dp109
g7
g10
sg12
S'WayPoint5'
p110
sg14
g1
(g15
g3
Ntp111
Rp112
(lp113
g1
(g19
g3
Ntp114
Rp115
(lp116
F7.650000000000002
aF-1.4999999999999982
aF0.0
abag1
(g23
g3
Ntp117
Rp118
(lp119
I0
aI0
aI0
aI1
ababsg27
F14.496
sg28
(lp120
sg30
I00
sg31
g1
(g8
g3
Ntp121
Rp122
(lp123
I3
aI401000000
absg32
F55.75
sbag1
(g2
g3
Ntp124
Rp125
(dp126
g7
g10
sg12
S'WayPoint6'
p127
sg14
g1
(g15
g3
Ntp128
Rp129
(lp130
g1
(g19
g3
Ntp131
Rp132
(lp133
F4.350000000000001
aF1.6000000000000023
aF0.0
abag1
(g23
g3
Ntp134
Rp135
(lp136
I0
aI0
aI0
aI1
ababsg27
F8.601
sg28
(lp137
sg30
I00
sg31
g122
sg32
F33.08
sbag1
(g2
g3
Ntp138
Rp139
(dp140
g7
g10
sg12
S'WayPoint7'
p141
sg14
g1
(g15
g3
Ntp142
Rp143
(lp144
g1
(g19
g3
Ntp145
Rp146
(lp147
F1.700000000000001
aF1.6500000000000021
aF0.0
abag1
(g23
g3
Ntp148
Rp149
(lp150
I0
aI0
aI0
aI1
ababsg27
F5.054
sg28
(lp151
sg30
I00
sg31
g1
(g8
g3
Ntp152
Rp153
(lp154
I2
aI200000000
absg32
F19.44
sbag1
(g2
g3
Ntp155
Rp156
(dp157
g7
g10
sg12
S'WayPoint8'
p158
sg14
g1
(g15
g3
Ntp159
Rp160
(lp161
g1
(g19
g3
Ntp162
Rp163
(lp164
F0.9000000000000004
aF4.350000000000002
aF0.0
abag1
(g23
g3
Ntp165
Rp166
(lp167
I0
aI0
aI0
aI1
ababsg27
F0.0
sg28
(lp168
sg30
I01
sg31
g10
sg32
I0
sbag1
(g2
g3
Ntp169
Rp170
(dp171
g7
g10
sg12
S'WayPoint9'
p172
sg14
g1
(g15
g3
Ntp173
Rp174
(lp175
g1
(g19
g3
Ntp176
Rp177
(lp178
F5.0
aF4.600000000000002
aF0.0
abag1
(g23
g3
Ntp179
Rp180
(lp181
I0
aI0
aI0
aI1
ababsg27
F0.0
sg28
(lp182
sg30
I01
sg31
g10
sg32
I0
sba.