(lp0
ccopy_reg
_reconstructor
p1
(cdestination
Destination
p2
c__builtin__
object
p3
Ntp4
Rp5
(dp6
S'_Destination__latest_usage'
p7
g1
(crospy.rostime
Time
p8
g3
Ntp9
Rp10
(lp11
I38
aI0
absS'name'
p12
S'WayPoint1'
p13
sS'pose'
p14
g1
(cgeometry_msgs.msg._Pose
Pose
p15
g3
Ntp16
Rp17
(lp18
g1
(cgeometry_msgs.msg._Point
Point
p19
g3
Ntp20
Rp21
(lp22
F-1.549999999999999
aF-0.8999999999999986
aF0.0
abag1
(cgeometry_msgs.msg._Quaternion
Quaternion
p23
g3
Ntp24
Rp25
(lp26
I0
aI0
aI0
aI1
ababsS'path_len'
p27
F0.0
sS'_Destination__stats'
p28
(lp29
g1
(cdestination
Observation
p30
g3
Ntp31
Rp32
(dp33
S'idleness'
p34
g1
(cdestination
Idleness
p35
g3
Ntp36
Rp37
(dp38
S'_Idleness__true_idl'
p39
F38.0
sS'_Idleness__estim_idl'
p40
F16.21
sS'_Idleness__remaining_idl'
p41
F16.999
sbsg27
F4.216
sbasS'_Destination__available'
p42
I01
sS'_Destination__remaining_idl'
p43
g10
sS'estim_idl'
p44
I0
sbag1
(g2
g3
Ntp45
Rp46
(dp47
g7
g1
(g8
g3
Ntp48
Rp49
(lp50
I0
aI0
absg12
S'WayPoint10'
p51
sg14
g1
(g15
g3
Ntp52
Rp53
(lp54
g1
(g19
g3
Ntp55
Rp56
(lp57
F-2.75
aF4.0500000000000025
aF0.0
abag1
(g23
g3
Ntp58
Rp59
(lp60
I0
aI0
aI0
aI1
ababsg27
F0.0
sg28
(lp61
sg42
I01
sg43
g49
sg44
I0
sbag1
(g2
g3
Ntp62
Rp63
(dp64
g7
g1
(g8
g3
Ntp65
Rp66
(lp67
I56
aI5000000
absg12
S'WayPoint2'
p68
sg14
g1
(g15
g3
Ntp69
Rp70
(lp71
g1
(g19
g3
Ntp72
Rp73
(lp74
F-5.25
aF-0.04999999999999716
aF0.0
abag1
(g23
g3
Ntp75
Rp76
(lp77
I0
aI0
aI0
aI1
ababsg27
F0.0
sg28
(lp78
g1
(g30
g3
Ntp79
Rp80
(dp81
g34
g1
(g35
g3
Ntp82
Rp83
(dp84
g39
F56.005
sg40
F16.0
sg41
F17.005
sbsg27
F4.16
sbasg42
I01
sg43
g66
sg44
I0
sbag1
(g2
g3
Ntp85
Rp86
(dp87
g7
g49
sg12
S'WayPoint3'
p88
sg14
g1
(g15
g3
Ntp89
Rp90
(lp91
g1
(g19
g3
Ntp92
Rp93
(lp94
F-2.6499999999999995
aF-3.8999999999999986
aF0.0
abag1
(g23
g3
Ntp95
Rp96
(lp97
I0
aI0
aI0
aI1
ababsg27
F12.112
sg28
(lp98
sg42
I00
sg43
g1
(g8
g3
Ntp99
Rp100
(lp101
I2
aI600000000
absg44
F46.59
sbag1
(g2
g3
Ntp102
Rp103
(dp104
g7
g1
(g8
g3
Ntp105
Rp106
(lp107
I24
aI802000000
absg12
S'WayPoint4'
p108
sg14
g1
(g15
g3
Ntp109
Rp110
(lp111
g1
(g19
g3
Ntp112
Rp113
(lp114
F3.700000000000001
aF-1.3499999999999979
aF0.0
abag1
(g23
g3
Ntp115
Rp116
(lp117
I0
aI0
aI0
aI1
ababsg27
F0.0
sg28
(lp118
g1
(g30
g3
Ntp119
Rp120
(dp121
g34
g1
(g35
g3
Ntp122
Rp123
(dp124
g39
F24.802
sg40
F20.67
sg41
F22.002
sbsg27
F5.374
sbasg42
I01
sg43
g106
sg44
I0
sbag1
(g2
g3
Ntp125
Rp126
(dp127
g7
g1
(g8
g3
Ntp128
Rp129
(lp130
I21
aI601000000
absg12
S'WayPoint5'
p131
sg14
g1
(g15
g3
Ntp132
Rp133
(lp134
g1
(g19
g3
Ntp135
Rp136
(lp137
F7.650000000000002
aF-1.4999999999999982
aF0.0
abag1
(g23
g3
Ntp138
Rp139
(lp140
I0
aI0
aI0
aI1
ababsg27
F0.0
sg28
(lp141
g1
(g30
g3
Ntp142
Rp143
(dp144
g34
g1
(g35
g3
Ntp145
Rp146
(dp147
g39
F21.601
sg40
F15.56
sg41
F19.001
sbsg27
F4.047
sbasg42
I01
sg43
g129
sg44
I0
sbag1
(g2
g3
Ntp148
Rp149
(dp150
g7
g49
sg12
S'WayPoint6'
p151
sg14
g1
(g15
g3
Ntp152
Rp153
(lp154
g1
(g19
g3
Ntp155
Rp156
(lp157
F4.350000000000001
aF1.6000000000000023
aF0.0
abag1
(g23
g3
Ntp158
Rp159
(lp160
I0
aI0
aI0
aI1
ababsg27
F8.588
sg28
(lp161
sg42
I00
sg43
g1
(g8
g3
Ntp162
Rp163
(lp164
I25
aI800000000
absg44
F33.03
sbag1
(g2
g3
Ntp165
Rp166
(dp167
g7
g1
(g8
g3
Ntp168
Rp169
(lp170
I20
aI600000000
absg12
S'WayPoint7'
p171
sg14
g1
(g15
g3
Ntp172
Rp173
(lp174
g1
(g19
g3
Ntp175
Rp176
(lp177
F1.700000000000001
aF1.6500000000000021
aF0.0
abag1
(g23
g3
Ntp178
Rp179
(lp180
I0
aI0
aI0
aI1
ababsg27
F7.429
sg28
(lp181
g1
(g30
g3
Ntp182
Rp183
(dp184
g34
g1
(g35
g3
Ntp185
Rp186
(dp187
g39
F20.6
sg40
F20.54
sg41
F18.0
sbsg27
F5.341
sbasg42
I00
sg43
g1
(g8
g3
Ntp188
Rp189
(lp190
I57
aI2000000
absg44
F28.57
sbag1
(g2
g3
Ntp191
Rp192
(dp193
g7
g49
sg12
S'WayPoint8'
p194
sg14
g1
(g15
g3
Ntp195
Rp196
(lp197
g1
(g19
g3
Ntp198
Rp199
(lp200
F0.9000000000000004
aF4.350000000000002
aF0.0
abag1
(g23
g3
Ntp201
Rp202
(lp203
I0
aI0
aI0
aI1
ababsg27
F12.438
sg28
(lp204
sg42
I00
sg43
g1
(g8
g3
Ntp205
Rp206
(lp207
I22
aI1000000
absg44
F47.84
sbag1
(g2
g3
Ntp208
Rp209
(dp210
g7
g49
sg12
S'WayPoint9'
p211
sg14
g1
(g15
g3
Ntp212
Rp213
(lp214
g1
(g19
g3
Ntp215
Rp216
(lp217
F5.0
aF4.600000000000002
aF0.0
abag1
(g23
g3
Ntp218
Rp219
(lp220
I0
aI0
aI0
aI1
ababsg27
F0.0
sg28
(lp221
sg42
I01
sg43
g49
sg44
I0
sba.