(lp0
ccopy_reg
_reconstructor
p1
(cdestination
Destination
p2
c__builtin__
object
p3
Ntp4
Rp5
(dp6
S'_Destination__latest_usage'
p7
g1
(crospy.rostime
Time
p8
g3
Ntp9
Rp10
(lp11
I38
aI1000000
absS'name'
p12
S'WayPoint1'
p13
sS'pose'
p14
g1
(cgeometry_msgs.msg._Pose
Pose
p15
g3
Ntp16
Rp17
(lp18
g1
(cgeometry_msgs.msg._Point
Point
p19
g3
Ntp20
Rp21
(lp22
F-1.549999999999999
aF-0.8999999999999986
aF0.0
abag1
(cgeometry_msgs.msg._Quaternion
Quaternion
p23
g3
Ntp24
Rp25
(lp26
I0
aI0
aI0
aI1
ababsS'path_len'
p27
F4.165
sS'_Destination__stats'
p28
(lp29
g1
(cdestination
Observation
p30
g3
Ntp31
Rp32
(dp33
S'idleness'
p34
g1
(cdestination
Idleness
p35
g3
Ntp36
Rp37
(dp38
S'_Idleness__true_idl'
p39
F38.001
sS'_Idleness__estim_idl'
p40
F33.53
sS'_Idleness__remaining_idl'
p41
F34.801
sbsg27
F8.719
sbasS'_Destination__available'
p42
I00
sS'_Destination__remaining_idl'
p43
g1
(g8
g3
Ntp44
Rp45
(lp46
I56
aI200000000
absS'estim_idl'
p47
F16.02
sbag1
(g2
g3
Ntp48
Rp49
(dp50
g7
g1
(g8
g3
Ntp51
Rp52
(lp53
I44
aI200000000
absg12
S'WayPoint10'
p54
sg14
g1
(g15
g3
Ntp55
Rp56
(lp57
g1
(g19
g3
Ntp58
Rp59
(lp60
F-2.75
aF4.0500000000000025
aF0.0
abag1
(g23
g3
Ntp61
Rp62
(lp63
I0
aI0
aI0
aI1
ababsg27
F0.0
sg28
(lp64
g1
(g30
g3
Ntp65
Rp66
(dp67
g34
g1
(g35
g3
Ntp68
Rp69
(dp70
g39
F44.2
sg40
F33.64
sg41
F41.0
sbsg27
F8.747
sbasg42
I01
sg43
g52
sg47
I0
sbag1
(g2
g3
Ntp71
Rp72
(dp73
g7
g1
(g8
g3
Ntp74
Rp75
(lp76
I55
aI201000000
absg12
S'WayPoint2'
p77
sg14
g1
(g15
g3
Ntp78
Rp79
(lp80
g1
(g19
g3
Ntp81
Rp82
(lp83
F-5.25
aF-0.04999999999999716
aF0.0
abag1
(g23
g3
Ntp84
Rp85
(lp86
I0
aI0
aI0
aI1
ababsg27
F0.0
sg28
(lp87
g1
(g30
g3
Ntp88
Rp89
(dp90
g34
g1
(g35
g3
Ntp91
Rp92
(dp93
g39
F55.201
sg40
F16.0
sg41
F16.001
sbsg27
F4.16
sbasg42
I01
sg43
g75
sg47
I0
sbag1
(g2
g3
Ntp94
Rp95
(dp96
g7
g1
(g8
g3
Ntp97
Rp98
(lp99
I0
aI0
absg12
S'WayPoint3'
p100
sg14
g1
(g15
g3
Ntp101
Rp102
(lp103
g1
(g19
g3
Ntp104
Rp105
(lp106
F-2.6499999999999995
aF-3.8999999999999986
aF0.0
abag1
(g23
g3
Ntp107
Rp108
(lp109
I0
aI0
aI0
aI1
ababsg27
F12.112
sg28
(lp110
sg42
I00
sg43
g1
(g8
g3
Ntp111
Rp112
(lp113
I2
aI800000000
absg47
F46.59
sbag1
(g2
g3
Ntp114
Rp115
(dp116
g7
g98
sg12
S'WayPoint4'
p117
sg14
g1
(g15
g3
Ntp118
Rp119
(lp120
g1
(g19
g3
Ntp121
Rp122
(lp123
F3.700000000000001
aF-1.3499999999999979
aF0.0
abag1
(g23
g3
Ntp124
Rp125
(lp126
I0
aI0
aI0
aI1
ababsg27
F0.0
sg28
(lp127
sg42
I01
sg43
g98
sg47
I0
sbag1
(g2
g3
Ntp128
Rp129
(dp130
g7
g1
(g8
g3
Ntp131
Rp132
(lp133
I22
aI200000000
absg12
S'WayPoint5'
p134
sg14
g1
(g15
g3
Ntp135
Rp136
(lp137
g1
(g19
g3
Ntp138
Rp139
(lp140
F7.650000000000002
aF-1.4999999999999982
aF0.0
abag1
(g23
g3
Ntp141
Rp142
(lp143
I0
aI0
aI0
aI1
ababsg27
F0.0
sg28
(lp144
g1
(g30
g3
Ntp145
Rp146
(dp147
g34
g1
(g35
g3
Ntp148
Rp149
(dp150
g39
F22.2
sg40
F15.56
sg41
F19.0
sbsg27
F4.047
sbasg42
I01
sg43
g132
sg47
I0
sbag1
(g2
g3
Ntp151
Rp152
(dp153
g7
g98
sg12
S'WayPoint6'
p154
sg14
g1
(g15
g3
Ntp155
Rp156
(lp157
g1
(g19
g3
Ntp158
Rp159
(lp160
F4.350000000000001
aF1.6000000000000023
aF0.0
abag1
(g23
g3
Ntp161
Rp162
(lp163
I0
aI0
aI0
aI1
ababsg27
F0.0
sg28
(lp164
sg42
I01
sg43
g98
sg47
I0
sbag1
(g2
g3
Ntp165
Rp166
(dp167
g7
g98
sg12
S'WayPoint7'
p168
sg14
g1
(g15
g3
Ntp169
Rp170
(lp171
g1
(g19
g3
Ntp172
Rp173
(lp174
F1.700000000000001
aF1.6500000000000021
aF0.0
abag1
(g23
g3
Ntp175
Rp176
(lp177
I0
aI0
aI0
aI1
ababsg27
F5.341
sg28
(lp178
sg42
I00
sg43
g1
(g8
g3
Ntp179
Rp180
(lp181
I45
aI200000000
absg47
F20.54
sbag1
(g2
g3
Ntp182
Rp183
(dp184
g7
g98
sg12
S'WayPoint8'
p185
sg14
g1
(g15
g3
Ntp186
Rp187
(lp188
g1
(g19
g3
Ntp189
Rp190
(lp191
F0.9000000000000004
aF4.350000000000002
aF0.0
abag1
(g23
g3
Ntp192
Rp193
(lp194
I0
aI0
aI0
aI1
ababsg27
F0.0
sg28
(lp195
sg42
I01
sg43
g98
sg47
I0
sbag1
(g2
g3
Ntp196
Rp197
(dp198
g7
g98
sg12
S'WayPoint9'
p199
sg14
g1
(g15
g3
Ntp200
Rp201
(lp202
g1
(g19
g3
Ntp203
Rp204
(lp205
F5.0
aF4.600000000000002
aF0.0
abag1
(g23
g3
Ntp206
Rp207
(lp208
I0
aI0
aI0
aI1
ababsg27
F14.816
sg28
(lp209
sg42
I00
sg43
g1
(g8
g3
Ntp210
Rp211
(lp212
I23
aI200000000
absg47
F56.99
sba.