(lp0
ccopy_reg
_reconstructor
p1
(cdestination
Destination
p2
c__builtin__
object
p3
Ntp4
Rp5
(dp6
S'_Destination__latest_usage'
p7
g1
(crospy.rostime
Time
p8
g3
Ntp9
Rp10
(lp11
I0
aI0
absS'name'
p12
S'WayPoint1'
p13
sS'pose'
p14
g1
(cgeometry_msgs.msg._Pose
Pose
p15
g3
Ntp16
Rp17
(lp18
g1
(cgeometry_msgs.msg._Point
Point
p19
g3
Ntp20
Rp21
(lp22
F-1.549999999999999
aF-0.8999999999999986
aF0.0
abag1
(cgeometry_msgs.msg._Quaternion
Quaternion
p23
g3
Ntp24
Rp25
(lp26
I0
aI0
aI0
aI1
ababsS'_Destination__stats'
p27
(lp28
sS'_Destination__available'
p29
I00
sS'_Destination__remaining_idl'
p30
g1
(g8
g3
Ntp31
Rp32
(lp33
I3
aI0
absS'estim_idl'
p34
F26.14
sbag1
(g2
g3
Ntp35
Rp36
(dp37
g7
g10
sg12
S'WayPoint10'
p38
sg14
g1
(g15
g3
Ntp39
Rp40
(lp41
g1
(g19
g3
Ntp42
Rp43
(lp44
F-2.75
aF4.0500000000000025
aF0.0
abag1
(g23
g3
Ntp45
Rp46
(lp47
I0
aI0
aI0
aI1
ababsg27
(lp48
sg29
I00
sg30
g1
(g8
g3
Ntp49
Rp50
(lp51
I57
aI1000000
absg34
F45.96
sbag1
(g2
g3
Ntp52
Rp53
(dp54
g7
g1
(g8
g3
Ntp55
Rp56
(lp57
I56
aI0
absg12
S'WayPoint2'
p58
sg14
g1
(g15
g3
Ntp59
Rp60
(lp61
g1
(g19
g3
Ntp62
Rp63
(lp64
F-5.25
aF-0.04999999999999716
aF0.0
abag1
(g23
g3
Ntp65
Rp66
(lp67
I0
aI0
aI0
aI1
ababsg27
(lp68
g1
(cdestination
Idleness
p69
g3
Ntp70
Rp71
(dp72
S'_Idleness__true_idl'
p73
F56.0
sS'_Idleness__estim_idl'
p74
F45.81
sS'_Idleness__remaining_idl'
p75
F53.0
sbasg29
I01
sg30
g56
sg34
I0
sbag1
(g2
g3
Ntp76
Rp77
(dp78
g7
g10
sg12
S'WayPoint3'
p79
sg14
g1
(g15
g3
Ntp80
Rp81
(lp82
g1
(g19
g3
Ntp83
Rp84
(lp85
F-2.6499999999999995
aF-3.8999999999999986
aF0.0
abag1
(g23
g3
Ntp86
Rp87
(lp88
I0
aI0
aI0
aI1
ababsg27
(lp89
sg29
I01
sg30
g10
sg34
I0
sbag1
(g2
g3
Ntp90
Rp91
(dp92
g7
g1
(g8
g3
Ntp93
Rp94
(lp95
I25
aI600000000
absg12
S'WayPoint4'
p96
sg14
g1
(g15
g3
Ntp97
Rp98
(lp99
g1
(g19
g3
Ntp100
Rp101
(lp102
F3.700000000000001
aF-1.3499999999999979
aF0.0
abag1
(g23
g3
Ntp103
Rp104
(lp105
I0
aI0
aI0
aI1
ababsg27
(lp106
g1
(g69
g3
Ntp107
Rp108
(dp109
g73
F25.6
sg74
F20.67
sg75
F23.0
sbasg29
I01
sg30
g94
sg34
I0
sbag1
(g2
g3
Ntp110
Rp111
(dp112
g7
g10
sg12
S'WayPoint5'
p113
sg14
g1
(g15
g3
Ntp114
Rp115
(lp116
g1
(g19
g3
Ntp117
Rp118
(lp119
F7.650000000000002
aF-1.4999999999999982
aF0.0
abag1
(g23
g3
Ntp120
Rp121
(lp122
I0
aI0
aI0
aI1
ababsg27
(lp123
sg29
I01
sg30
g10
sg34
I0
sbag1
(g2
g3
Ntp124
Rp125
(dp126
g7
g10
sg12
S'WayPoint6'
p127
sg14
g1
(g15
g3
Ntp128
Rp129
(lp130
g1
(g19
g3
Ntp131
Rp132
(lp133
F4.350000000000001
aF1.6000000000000023
aF0.0
abag1
(g23
g3
Ntp134
Rp135
(lp136
I0
aI0
aI0
aI1
ababsg27
(lp137
sg29
I01
sg30
g10
sg34
I0
sbag1
(g2
g3
Ntp138
Rp139
(dp140
g7
g10
sg12
S'WayPoint7'
p141
sg14
g1
(g15
g3
Ntp142
Rp143
(lp144
g1
(g19
g3
Ntp145
Rp146
(lp147
F1.700000000000001
aF1.6500000000000021
aF0.0
abag1
(g23
g3
Ntp148
Rp149
(lp150
I0
aI0
aI0
aI1
ababsg27
(lp151
sg29
I00
sg30
g1
(g8
g3
Ntp152
Rp153
(lp154
I26
aI200000000
absg34
F23.01
sbag1
(g2
g3
Ntp155
Rp156
(dp157
g7
g10
sg12
S'WayPoint8'
p158
sg14
g1
(g15
g3
Ntp159
Rp160
(lp161
g1
(g19
g3
Ntp162
Rp163
(lp164
F0.9000000000000004
aF4.350000000000002
aF0.0
abag1
(g23
g3
Ntp165
Rp166
(lp167
I0
aI0
aI0
aI1
ababsg27
(lp168
sg29
I00
sg30
g1
(g8
g3
Ntp169
Rp170
(lp171
I2
aI600000000
absg34
F28.8
sbag1
(g2
g3
Ntp172
Rp173
(dp174
g7
g10
sg12
S'WayPoint9'
p175
sg14
g1
(g15
g3
Ntp176
Rp177
(lp178
g1
(g19
g3
Ntp179
Rp180
(lp181
F5.0
aF4.600000000000002
aF0.0
abag1
(g23
g3
Ntp182
Rp183
(lp184
I0
aI0
aI0
aI1
ababsg27
(lp185
sg29
I00
sg30
g170
sg34
F41.85
sba.