(lp0
ccopy_reg
_reconstructor
p1
(cdestination
Destination
p2
c__builtin__
object
p3
Ntp4
Rp5
(dp6
S'_Destination__latest_usage'
p7
g1
(crospy.rostime
Time
p8
g3
Ntp9
Rp10
(lp11
I48
aI200000000
absS'name'
p12
S'WayPoint1'
p13
sS'pose'
p14
g1
(cgeometry_msgs.msg._Pose
Pose
p15
g3
Ntp16
Rp17
(lp18
g1
(cgeometry_msgs.msg._Point
Point
p19
g3
Ntp20
Rp21
(lp22
F-1.549999999999999
aF-0.8999999999999986
aF0.0
abag1
(cgeometry_msgs.msg._Quaternion
Quaternion
p23
g3
Ntp24
Rp25
(lp26
I0
aI0
aI0
aI1
ababsS'_Destination__stats'
p27
(lp28
g1
(cdestination
Idleness
p29
g3
Ntp30
Rp31
(dp32
S'_Idleness__true_idl'
p33
F20.6
sS'_Idleness__estim_idl'
p34
F20.84
sS'_Idleness__remaining_idl'
p35
F17.999
sbag1
(g29
g3
Ntp36
Rp37
(dp38
g33
F27.6
sg34
F12.64
sg35
F13.0
sbasS'_Destination__available'
p39
I01
sS'_Destination__remaining_idl'
p40
g10
sS'estim_idl'
p41
I0
sbag1
(g2
g3
Ntp42
Rp43
(dp44
g7
g1
(g8
g3
Ntp45
Rp46
(lp47
I0
aI0
absg12
S'WayPoint10'
p48
sg14
g1
(g15
g3
Ntp49
Rp50
(lp51
g1
(g19
g3
Ntp52
Rp53
(lp54
F-2.75
aF4.0500000000000025
aF0.0
abag1
(g23
g3
Ntp55
Rp56
(lp57
I0
aI0
aI0
aI1
ababsg27
(lp58
sg39
I00
sg40
g1
(g8
g3
Ntp59
Rp60
(lp61
I33
aI0
absg41
F25.98
sbag1
(g2
g3
Ntp62
Rp63
(dp64
g7
g46
sg12
S'WayPoint2'
p65
sg14
g1
(g15
g3
Ntp66
Rp67
(lp68
g1
(g19
g3
Ntp69
Rp70
(lp71
F-5.25
aF-0.04999999999999716
aF0.0
abag1
(g23
g3
Ntp72
Rp73
(lp74
I0
aI0
aI0
aI1
ababsg27
(lp75
sg39
I00
sg40
g1
(g8
g3
Ntp76
Rp77
(lp78
I19
aI0
absg41
F38.68
sbag1
(g2
g3
Ntp79
Rp80
(dp81
g7
g1
(g8
g3
Ntp82
Rp83
(lp84
I34
aI200000000
absg12
S'WayPoint3'
p85
sg14
g1
(g15
g3
Ntp86
Rp87
(lp88
g1
(g19
g3
Ntp89
Rp90
(lp91
F-2.6499999999999995
aF-3.8999999999999986
aF0.0
abag1
(g23
g3
Ntp92
Rp93
(lp94
I0
aI0
aI0
aI1
ababsg27
(lp95
g1
(g29
g3
Ntp96
Rp97
(dp98
g33
F34.2
sg34
F12.63
sg35
F13.0
sbasg39
I00
sg40
g1
(g8
g3
Ntp99
Rp100
(lp101
I44
aI2000000
absg41
F47.46
sbag1
(g2
g3
Ntp102
Rp103
(dp104
g7
g1
(g8
g3
Ntp105
Rp106
(lp107
I58
aI2000000
absg12
S'WayPoint4'
p108
sg14
g1
(g15
g3
Ntp109
Rp110
(lp111
g1
(g19
g3
Ntp112
Rp113
(lp114
F3.700000000000001
aF-1.3499999999999979
aF0.0
abag1
(g23
g3
Ntp115
Rp116
(lp117
I0
aI0
aI0
aI1
ababsg27
(lp118
g1
(g29
g3
Ntp119
Rp120
(dp121
g33
F58.002
sg34
F40.48
sg35
F55.002
sbasg39
I01
sg40
g106
sg41
I0
sbag1
(g2
g3
Ntp122
Rp123
(dp124
g7
g46
sg12
S'WayPoint5'
p125
sg14
g1
(g15
g3
Ntp126
Rp127
(lp128
g1
(g19
g3
Ntp129
Rp130
(lp131
F7.650000000000002
aF-1.4999999999999982
aF0.0
abag1
(g23
g3
Ntp132
Rp133
(lp134
I0
aI0
aI0
aI1
ababsg27
(lp135
sg39
I00
sg40
g1
(g8
g3
Ntp136
Rp137
(lp138
I49
aI200000000
absg41
F37.19
sbag1
(g2
g3
Ntp139
Rp140
(dp141
g7
g1
(g8
g3
Ntp142
Rp143
(lp144
I18
aI600000000
absg12
S'WayPoint6'
p145
sg14
g1
(g15
g3
Ntp146
Rp147
(lp148
g1
(g19
g3
Ntp149
Rp150
(lp151
F4.350000000000001
aF1.6000000000000023
aF0.0
abag1
(g23
g3
Ntp152
Rp153
(lp154
I0
aI0
aI0
aI1
ababsg27
(lp155
g1
(g29
g3
Ntp156
Rp157
(dp158
g33
F18.6
sg34
F18.38
sg35
F15.999
sbasg39
I00
sg40
g1
(g8
g3
Ntp159
Rp160
(lp161
I59
aI0
absg41
F32.98
sbag1
(g2
g3
Ntp162
Rp163
(dp164
g7
g1
(g8
g3
Ntp165
Rp166
(lp167
I9
aI0
absg12
S'WayPoint7'
p168
sg14
g1
(g15
g3
Ntp169
Rp170
(lp171
g1
(g19
g3
Ntp172
Rp173
(lp174
F1.700000000000001
aF1.6500000000000021
aF0.0
abag1
(g23
g3
Ntp175
Rp176
(lp177
I0
aI0
aI0
aI1
ababsg27
(lp178
g1
(g29
g3
Ntp179
Rp180
(dp181
g33
F9.0
sg34
F10.54
sg35
F6.0
sbasg39
I01
sg40
g166
sg41
I0
sbag1
(g2
g3
Ntp182
Rp183
(dp184
g7
g1
(g8
g3
Ntp185
Rp186
(lp187
I32
aI600000000
absg12
S'WayPoint8'
p188
sg14
g1
(g15
g3
Ntp189
Rp190
(lp191
g1
(g19
g3
Ntp192
Rp193
(lp194
F0.9000000000000004
aF4.350000000000002
aF0.0
abag1
(g23
g3
Ntp195
Rp196
(lp197
I0
aI0
aI0
aI1
ababsg27
(lp198
g1
(g29
g3
Ntp199
Rp200
(dp201
g33
F32.6
sg34
F25.65
sg35
F29.999
sbasg39
I01
sg40
g186
sg41
I0
sbag1
(g2
g3
Ntp202
Rp203
(dp204
g7
g1
(g8
g3
Ntp205
Rp206
(lp207
I43
aI0
absg12
S'WayPoint9'
p208
sg14
g1
(g15
g3
Ntp209
Rp210
(lp211
g1
(g19
g3
Ntp212
Rp213
(lp214
F5.0
aF4.600000000000002
aF0.0
abag1
(g23
g3
Ntp215
Rp216
(lp217
I0
aI0
aI0
aI1
ababsg27
(lp218
g1
(g29
g3
Ntp219
Rp220
(dp221
g33
F43.0
sg34
F19.51
sg35
F32.999
sbasg39
I01
sg40
g206
sg41
I0
sba.