(lp0
ccopy_reg
_reconstructor
p1
(cdestination
Destination
p2
c__builtin__
object
p3
Ntp4
Rp5
(dp6
S'_Destination__latest_usage'
p7
g1
(crospy.rostime
Time
p8
g3
Ntp9
Rp10
(lp11
I0
aI0
absS'name'
p12
S'WayPoint1'
p13
sS'pose'
p14
g1
(cgeometry_msgs.msg._Pose
Pose
p15
g3
Ntp16
Rp17
(lp18
g1
(cgeometry_msgs.msg._Point
Point
p19
g3
Ntp20
Rp21
(lp22
F-1.549999999999999
aF-0.8999999999999986
aF0.0
abag1
(cgeometry_msgs.msg._Quaternion
Quaternion
p23
g3
Ntp24
Rp25
(lp26
I0
aI0
aI0
aI1
ababsS'_Destination__stats'
p27
(lp28
sS'_Destination__available'
p29
I00
sS'_Destination__remaining_idl'
p30
g1
(g8
g3
Ntp31
Rp32
(lp33
I3
aI1000000
absS'estim_idl'
p34
F26.13
sbag1
(g2
g3
Ntp35
Rp36
(dp37
g7
g10
sg12
S'WayPoint10'
p38
sg14
g1
(g15
g3
Ntp39
Rp40
(lp41
g1
(g19
g3
Ntp42
Rp43
(lp44
F-2.75
aF4.0500000000000025
aF0.0
abag1
(g23
g3
Ntp45
Rp46
(lp47
I0
aI0
aI0
aI1
ababsg27
(lp48
sg29
I01
sg30
g10
sg34
I0
sbag1
(g2
g3
Ntp49
Rp50
(dp51
g7
g1
(g8
g3
Ntp52
Rp53
(lp54
I39
aI1000000
absg12
S'WayPoint2'
p55
sg14
g1
(g15
g3
Ntp56
Rp57
(lp58
g1
(g19
g3
Ntp59
Rp60
(lp61
F-5.25
aF-0.04999999999999716
aF0.0
abag1
(g23
g3
Ntp62
Rp63
(lp64
I0
aI0
aI0
aI1
ababsg27
(lp65
g1
(cdestination
Idleness
p66
g3
Ntp67
Rp68
(dp69
S'_Idleness__true_idl'
p70
F39.001
sS'_Idleness__estim_idl'
p71
F36.28
sS'_Idleness__remaining_idl'
p72
F36.0
sbasg29
I00
sg30
g1
(g8
g3
Ntp73
Rp74
(lp75
I49
aI0
absg34
F48.54
sbag1
(g2
g3
Ntp76
Rp77
(dp78
g7
g1
(g8
g3
Ntp79
Rp80
(lp81
I52
aI0
absg12
S'WayPoint3'
p82
sg14
g1
(g15
g3
Ntp83
Rp84
(lp85
g1
(g19
g3
Ntp86
Rp87
(lp88
F-2.6499999999999995
aF-3.8999999999999986
aF0.0
abag1
(g23
g3
Ntp89
Rp90
(lp91
I0
aI0
aI0
aI1
ababsg27
(lp92
g1
(g66
g3
Ntp93
Rp94
(dp95
g70
F52.0
sg71
F28.37
sg72
F31.0
sbasg29
I01
sg30
g80
sg34
I0
sbag1
(g2
g3
Ntp96
Rp97
(dp98
g7
g10
sg12
S'WayPoint4'
p99
sg14
g1
(g15
g3
Ntp100
Rp101
(lp102
g1
(g19
g3
Ntp103
Rp104
(lp105
F3.700000000000001
aF-1.3499999999999979
aF0.0
abag1
(g23
g3
Ntp106
Rp107
(lp108
I0
aI0
aI0
aI1
ababsg27
(lp109
sg29
I00
sg30
g1
(g8
g3
Ntp110
Rp111
(lp112
I18
aI200000000
absg34
F32.87
sbag1
(g2
g3
Ntp113
Rp114
(dp115
g7
g10
sg12
S'WayPoint5'
p116
sg14
g1
(g15
g3
Ntp117
Rp118
(lp119
g1
(g19
g3
Ntp120
Rp121
(lp122
F7.650000000000002
aF-1.4999999999999982
aF0.0
abag1
(g23
g3
Ntp123
Rp124
(lp125
I0
aI0
aI0
aI1
ababsg27
(lp126
sg29
I00
sg30
g1
(g8
g3
Ntp127
Rp128
(lp129
I40
aI0
absg34
F51.38
sbag1
(g2
g3
Ntp130
Rp131
(dp132
g7
g1
(g8
g3
Ntp133
Rp134
(lp135
I17
aI600000000
absg12
S'WayPoint6'
p136
sg14
g1
(g15
g3
Ntp137
Rp138
(lp139
g1
(g19
g3
Ntp140
Rp141
(lp142
F4.350000000000001
aF1.6000000000000023
aF0.0
abag1
(g23
g3
Ntp143
Rp144
(lp145
I0
aI0
aI0
aI1
ababsg27
(lp146
g1
(g66
g3
Ntp147
Rp148
(dp149
g70
F17.6
sg71
F18.27
sg72
F15.0
sbasg29
I00
sg30
g1
(g8
g3
Ntp150
Rp151
(lp152
I53
aI1000000
absg34
F37.56
sbag1
(g2
g3
Ntp153
Rp154
(dp155
g7
g1
(g8
g3
Ntp156
Rp157
(lp158
I20
aI400000000
absg12
S'WayPoint7'
p159
sg14
g1
(g15
g3
Ntp160
Rp161
(lp162
g1
(g19
g3
Ntp163
Rp164
(lp165
F1.700000000000001
aF1.6500000000000021
aF0.0
abag1
(g23
g3
Ntp166
Rp167
(lp168
I0
aI0
aI0
aI1
ababsg27
(lp169
g1
(g66
g3
Ntp170
Rp171
(dp172
g70
F20.4
sg71
F20.54
sg72
F18.0
sbasg29
I01
sg30
g157
sg34
I0
sbag1
(g2
g3
Ntp173
Rp174
(dp175
g7
g10
sg12
S'WayPoint8'
p176
sg14
g1
(g15
g3
Ntp177
Rp178
(lp179
g1
(g19
g3
Ntp180
Rp181
(lp182
F0.9000000000000004
aF4.350000000000002
aF0.0
abag1
(g23
g3
Ntp183
Rp184
(lp185
I0
aI0
aI0
aI1
ababsg27
(lp186
sg29
I01
sg30
g10
sg34
I0
sbag1
(g2
g3
Ntp187
Rp188
(dp189
g7
g1
(g8
g3
Ntp190
Rp191
(lp192
I48
aI400000000
absg12
S'WayPoint9'
p193
sg14
g1
(g15
g3
Ntp194
Rp195
(lp196
g1
(g19
g3
Ntp197
Rp198
(lp199
F5.0
aF4.600000000000002
aF0.0
abag1
(g23
g3
Ntp200
Rp201
(lp202
I0
aI0
aI0
aI1
ababsg27
(lp203
g1
(g66
g3
Ntp204
Rp205
(dp206
g70
F48.4
sg71
F35.02
sg72
F46.0
sbasg29
I01
sg30
g191
sg34
I0
sba.