(lp0
ccopy_reg
_reconstructor
p1
(cdestination
Destination
p2
c__builtin__
object
p3
Ntp4
Rp5
(dp6
S'_Destination__latest_usage'
p7
g1
(crospy.rostime
Time
p8
g3
Ntp9
Rp10
(lp11
I0
aI0
absS'name'
p12
S'WayPoint1'
p13
sS'pose'
p14
g1
(cgeometry_msgs.msg._Pose
Pose
p15
g3
Ntp16
Rp17
(lp18
g1
(cgeometry_msgs.msg._Point
Point
p19
g3
Ntp20
Rp21
(lp22
F-2.75
aF1.0500000000000025
aF0.0
abag1
(cgeometry_msgs.msg._Quaternion
Quaternion
p23
g3
Ntp24
Rp25
(lp26
I0
aI0
aI0
aI1
ababsS'_Destination__stats'
p27
(lp28
sS'_Destination__available'
p29
I00
sS'_Destination__remaining_idl'
p30
g1
(g8
g3
Ntp31
Rp32
(lp33
I2
aI800000000
absS'estim_idl'
p34
F53.84
sbag1
(g2
g3
Ntp35
Rp36
(dp37
g7
g1
(g8
g3
Ntp38
Rp39
(lp40
I40
aI203000000
absg12
S'WayPoint2'
p41
sg14
g1
(g15
g3
Ntp42
Rp43
(lp44
g1
(g19
g3
Ntp45
Rp46
(lp47
F5.15
aF0.9000000000000021
aF0.0
abag1
(g23
g3
Ntp48
Rp49
(lp50
I0
aI0
aI0
aI1
ababsg27
(lp51
g1
(cdestination
Idleness
p52
g3
Ntp53
Rp54
(dp55
S'_Idleness__true_idl'
p56
F40.203
sS'_Idleness__estim_idl'
p57
F11.96
sS'_Idleness__remaining_idl'
p58
F24.003
sbasg29
I00
sg30
g1
(g8
g3
Ntp59
Rp60
(lp61
I58
aI201000000
absg34
F23.43
sbag1
(g2
g3
Ntp62
Rp63
(dp64
g7
g1
(g8
g3
Ntp65
Rp66
(lp67
I15
aI601000000
absg12
S'WayPoint3'
p68
sg14
g1
(g15
g3
Ntp69
Rp70
(lp71
g1
(g19
g3
Ntp72
Rp73
(lp74
F4.850000000000001
aF3.900000000000002
aF0.0
abag1
(g23
g3
Ntp75
Rp76
(lp77
I0
aI0
aI0
aI1
ababsg27
(lp78
g1
(g52
g3
Ntp79
Rp80
(dp81
g56
F15.600999999999999
sg57
F11.98
sg58
F13.001
sbasg29
I00
sg30
g1
(g8
g3
Ntp82
Rp83
(lp84
I48
aI200000000
absg34
F55.27
sbag1
(g2
g3
Ntp85
Rp86
(dp87
g7
g10
sg12
S'WayPoint4'
p88
sg14
g1
(g15
g3
Ntp89
Rp90
(lp91
g1
(g19
g3
Ntp92
Rp93
(lp94
F1.200000000000001
aF3.1000000000000023
aF0.0
abag1
(g23
g3
Ntp95
Rp96
(lp97
I0
aI0
aI0
aI1
ababsg27
(lp98
sg29
I00
sg30
g1
(g8
g3
Ntp99
Rp100
(lp101
I2
aI600000000
absg34
F64.22
sbag1
(g2
g3
Ntp102
Rp103
(dp104
g7
g1
(g8
g3
Ntp105
Rp106
(lp107
I57
aI601000000
absg12
S'WayPoint5'
p108
sg14
g1
(g15
g3
Ntp109
Rp110
(lp111
g1
(g19
g3
Ntp112
Rp113
(lp114
F5.800000000000001
aF-4.349999999999998
aF0.0
abag1
(g23
g3
Ntp115
Rp116
(lp117
I0
aI0
aI0
aI1
ababsg27
(lp118
g1
(g52
g3
Ntp119
Rp120
(dp121
g56
F57.601
sg57
F53.79
sg58
F55.001
sbasg29
I01
sg30
g106
sg34
I0
sbag1
(g2
g3
Ntp122
Rp123
(dp124
g7
g1
(g8
g3
Ntp125
Rp126
(lp127
I46
aI800000000
absg12
S'WayPoint6'
p128
sg14
g1
(g15
g3
Ntp129
Rp130
(lp131
g1
(g19
g3
Ntp132
Rp133
(lp134
F-6.15
aF3.150000000000002
aF0.0
abag1
(g23
g3
Ntp135
Rp136
(lp137
I0
aI0
aI0
aI1
ababsg27
(lp138
g1
(g52
g3
Ntp139
Rp140
(dp141
g56
F46.8
sg57
F19.95
sg58
F44.0
sbasg29
I01
sg30
g126
sg34
I0
sbag1
(g2
g3
Ntp142
Rp143
(dp144
g7
g10
sg12
S'WayPoint7'
p145
sg14
g1
(g15
g3
Ntp146
Rp147
(lp148
g1
(g19
g3
Ntp149
Rp150
(lp151
F-6.3
aF-1.8999999999999986
aF0.0
abag1
(g23
g3
Ntp152
Rp153
(lp154
I0
aI0
aI0
aI1
ababsg27
(lp155
sg29
I00
sg30
g1
(g8
g3
Ntp156
Rp157
(lp158
I41
aI200000000
absg34
F63.69
sba.