(lp0
ccopy_reg
_reconstructor
p1
(cdestination
Destination
p2
c__builtin__
object
p3
Ntp4
Rp5
(dp6
S'_Destination__latest_usage'
p7
g1
(crospy.rostime
Time
p8
g3
Ntp9
Rp10
(lp11
I17
aI600000000
absS'name'
p12
S'WayPoint1'
p13
sS'pose'
p14
g1
(cgeometry_msgs.msg._Pose
Pose
p15
g3
Ntp16
Rp17
(lp18
g1
(cgeometry_msgs.msg._Point
Point
p19
g3
Ntp20
Rp21
(lp22
F-2.75
aF1.0500000000000025
aF0.0
abag1
(cgeometry_msgs.msg._Quaternion
Quaternion
p23
g3
Ntp24
Rp25
(lp26
I0
aI0
aI0
aI1
ababsS'_Destination__stats'
p27
(lp28
g1
(cdestination
Idleness
p29
g3
Ntp30
Rp31
(dp32
S'_Idleness__true_idl'
p33
F17.6
sS'_Idleness__estim_idl'
p34
F16.4
sS'_Idleness__remaining_idl'
p35
F15.0
sbasS'_Destination__available'
p36
I00
sS'_Destination__remaining_idl'
p37
g1
(g8
g3
Ntp38
Rp39
(lp40
I36
aI0
absS'estim_idl'
p41
F16.4
sbag1
(g2
g3
Ntp42
Rp43
(dp44
g7
g1
(g8
g3
Ntp45
Rp46
(lp47
I34
aI600000000
absg12
S'WayPoint2'
p48
sg14
g1
(g15
g3
Ntp49
Rp50
(lp51
g1
(g19
g3
Ntp52
Rp53
(lp54
F5.15
aF0.9000000000000021
aF0.0
abag1
(g23
g3
Ntp55
Rp56
(lp57
I0
aI0
aI0
aI1
ababsg27
(lp58
g1
(g29
g3
Ntp59
Rp60
(dp61
g33
F34.6
sg34
F31.53
sg35
F32.0
sbasg36
I00
sg37
g1
(g8
g3
Ntp62
Rp63
(lp64
I45
aI800000000
absg41
F23.35
sbag1
(g2
g3
Ntp65
Rp66
(dp67
g7
g1
(g8
g3
Ntp68
Rp69
(lp70
I0
aI0
absg12
S'WayPoint3'
p71
sg14
g1
(g15
g3
Ntp72
Rp73
(lp74
g1
(g19
g3
Ntp75
Rp76
(lp77
F4.850000000000001
aF3.900000000000002
aF0.0
abag1
(g23
g3
Ntp78
Rp79
(lp80
I0
aI0
aI0
aI1
ababsg27
(lp81
sg36
I00
sg37
g1
(g8
g3
Ntp82
Rp83
(lp84
I2
aI800000000
absg41
F34.86
sbag1
(g2
g3
Ntp85
Rp86
(dp87
g7
g69
sg12
S'WayPoint4'
p88
sg14
g1
(g15
g3
Ntp89
Rp90
(lp91
g1
(g19
g3
Ntp92
Rp93
(lp94
F1.200000000000001
aF3.1000000000000023
aF0.0
abag1
(g23
g3
Ntp95
Rp96
(lp97
I0
aI0
aI0
aI1
ababsg27
(lp98
sg36
I00
sg37
g83
sg41
F80.43
sbag1
(g2
g3
Ntp99
Rp100
(dp101
g7
g1
(g8
g3
Ntp102
Rp103
(lp104
I44
aI800000000
absg12
S'WayPoint5'
p105
sg14
g1
(g15
g3
Ntp106
Rp107
(lp108
g1
(g19
g3
Ntp109
Rp110
(lp111
F5.800000000000001
aF-4.349999999999998
aF0.0
abag1
(g23
g3
Ntp112
Rp113
(lp114
I0
aI0
aI0
aI1
ababsg27
(lp115
g1
(g29
g3
Ntp116
Rp117
(dp118
g33
F44.8
sg34
F23.26
sg35
F42.0
sbasg36
I01
sg37
g103
sg41
I0
sbag1
(g2
g3
Ntp119
Rp120
(dp121
g7
g1
(g8
g3
Ntp122
Rp123
(lp124
I35
aI201000000
absg12
S'WayPoint6'
p125
sg14
g1
(g15
g3
Ntp126
Rp127
(lp128
g1
(g19
g3
Ntp129
Rp130
(lp131
F-6.15
aF3.150000000000002
aF0.0
abag1
(g23
g3
Ntp132
Rp133
(lp134
I0
aI0
aI0
aI1
ababsg27
(lp135
g1
(g29
g3
Ntp136
Rp137
(dp138
g33
F35.201
sg34
F16.38
sg35
F17.199
sbasg36
I01
sg37
g123
sg41
I0
sbag1
(g2
g3
Ntp139
Rp140
(dp141
g7
g69
sg12
S'WayPoint7'
p142
sg14
g1
(g15
g3
Ntp143
Rp144
(lp145
g1
(g19
g3
Ntp146
Rp147
(lp148
F-6.3
aF-1.8999999999999986
aF0.0
abag1
(g23
g3
Ntp149
Rp150
(lp151
I0
aI0
aI0
aI1
ababsg27
(lp152
sg36
I00
sg37
g1
(g8
g3
Ntp153
Rp154
(lp155
I35
aI0
absg41
F63.52
sba.