(lp0
ccopy_reg
_reconstructor
p1
(cdestination
Destination
p2
c__builtin__
object
p3
Ntp4
Rp5
(dp6
S'_Destination__latest_usage'
p7
g1
(crospy.rostime
Time
p8
g3
Ntp9
Rp10
(lp11
I0
aI0
absS'name'
p12
S'WayPoint1'
p13
sS'pose'
p14
g1
(cgeometry_msgs.msg._Pose
Pose
p15
g3
Ntp16
Rp17
(lp18
g1
(cgeometry_msgs.msg._Point
Point
p19
g3
Ntp20
Rp21
(lp22
F-2.75
aF1.0500000000000025
aF0.0
abag1
(cgeometry_msgs.msg._Quaternion
Quaternion
p23
g3
Ntp24
Rp25
(lp26
I0
aI0
aI0
aI1
ababsS'_Destination__stats'
p27
(lp28
sS'_Destination__available'
p29
I01
sS'_Destination__remaining_idl'
p30
g10
sS'estim_idl'
p31
I0
sbag1
(g2
g3
Ntp32
Rp33
(dp34
g7
g10
sg12
S'WayPoint2'
p35
sg14
g1
(g15
g3
Ntp36
Rp37
(lp38
g1
(g19
g3
Ntp39
Rp40
(lp41
F5.15
aF0.9000000000000021
aF0.0
abag1
(g23
g3
Ntp42
Rp43
(lp44
I0
aI0
aI0
aI1
ababsg27
(lp45
sg29
I00
sg30
g1
(g8
g3
Ntp46
Rp47
(lp48
I2
aI600000000
absg31
F63.72
sbag1
(g2
g3
Ntp49
Rp50
(dp51
g7
g10
sg12
S'WayPoint3'
p52
sg14
g1
(g15
g3
Ntp53
Rp54
(lp55
g1
(g19
g3
Ntp56
Rp57
(lp58
F4.850000000000001
aF3.900000000000002
aF0.0
abag1
(g23
g3
Ntp59
Rp60
(lp61
I0
aI0
aI0
aI1
ababsg27
(lp62
sg29
I00
sg30
g47
sg31
F55.27
sbag1
(g2
g3
Ntp63
Rp64
(dp65
g7
g1
(g8
g3
Ntp66
Rp67
(lp68
I49
aI606000000
absg12
S'WayPoint4'
p69
sg14
g1
(g15
g3
Ntp70
Rp71
(lp72
g1
(g19
g3
Ntp73
Rp74
(lp75
F1.200000000000001
aF3.1000000000000023
aF0.0
abag1
(g23
g3
Ntp76
Rp77
(lp78
I0
aI0
aI0
aI1
ababsg27
(lp79
g1
(cdestination
Idleness
p80
g3
Ntp81
Rp82
(dp83
S'_Idleness__true_idl'
p84
F49.606
sS'_Idleness__estim_idl'
p85
F52.15
sS'_Idleness__remaining_idl'
p86
F47.006
sbasg29
I01
sg30
g67
sg31
I0
sbag1
(g2
g3
Ntp87
Rp88
(dp89
g7
g10
sg12
S'WayPoint5'
p90
sg14
g1
(g15
g3
Ntp91
Rp92
(lp93
g1
(g19
g3
Ntp94
Rp95
(lp96
F5.800000000000001
aF-4.349999999999998
aF0.0
abag1
(g23
g3
Ntp97
Rp98
(lp99
I0
aI0
aI0
aI1
ababsg27
(lp100
sg29
I00
sg30
g1
(g8
g3
Ntp101
Rp102
(lp103
I3
aI200000000
absg31
F53.79
sbag1
(g2
g3
Ntp104
Rp105
(dp106
g7
g10
sg12
S'WayPoint6'
p107
sg14
g1
(g15
g3
Ntp108
Rp109
(lp110
g1
(g19
g3
Ntp111
Rp112
(lp113
F-6.15
aF3.150000000000002
aF0.0
abag1
(g23
g3
Ntp114
Rp115
(lp116
I0
aI0
aI0
aI1
ababsg27
(lp117
sg29
I00
sg30
g1
(g8
g3
Ntp118
Rp119
(lp120
I50
aI201000000
absg31
F64.43
sbag1
(g2
g3
Ntp121
Rp122
(dp123
g7
g10
sg12
S'WayPoint7'
p124
sg14
g1
(g15
g3
Ntp125
Rp126
(lp127
g1
(g19
g3
Ntp128
Rp129
(lp130
F-6.3
aF-1.8999999999999986
aF0.0
abag1
(g23
g3
Ntp131
Rp132
(lp133
I0
aI0
aI0
aI1
ababsg27
(lp134
sg29
I00
sg30
g47
sg31
F63.58
sba.