(lp0
ccopy_reg
_reconstructor
p1
(cdestination
Destination
p2
c__builtin__
object
p3
Ntp4
Rp5
(dp6
S'_Destination__latest_usage'
p7
g1
(crospy.rostime
Time
p8
g3
Ntp9
Rp10
(lp11
I38
aI600000000
absS'name'
p12
S'WayPoint1'
p13
sS'pose'
p14
g1
(cgeometry_msgs.msg._Pose
Pose
p15
g3
Ntp16
Rp17
(lp18
g1
(cgeometry_msgs.msg._Point
Point
p19
g3
Ntp20
Rp21
(lp22
F-2.75
aF1.0500000000000025
aF0.0
abag1
(cgeometry_msgs.msg._Quaternion
Quaternion
p23
g3
Ntp24
Rp25
(lp26
I0
aI0
aI0
aI1
ababsS'_Destination__stats'
p27
(lp28
g1
(cdestination
Idleness
p29
g3
Ntp30
Rp31
(dp32
S'_Idleness__true_idl'
p33
F38.6
sS'_Idleness__estim_idl'
p34
F31.58
sS'_Idleness__remaining_idl'
p35
F36.0
sbasS'_Destination__available'
p36
I00
sS'_Destination__remaining_idl'
p37
g1
(g8
g3
Ntp38
Rp39
(lp40
I49
aI200000000
absS'estim_idl'
p41
F16.4
sbag1
(g2
g3
Ntp42
Rp43
(dp44
g7
g1
(g8
g3
Ntp45
Rp46
(lp47
I0
aI0
absg12
S'WayPoint2'
p48
sg14
g1
(g15
g3
Ntp49
Rp50
(lp51
g1
(g19
g3
Ntp52
Rp53
(lp54
F5.15
aF0.9000000000000021
aF0.0
abag1
(g23
g3
Ntp55
Rp56
(lp57
I0
aI0
aI0
aI1
ababsg27
(lp58
sg36
I00
sg37
g1
(g8
g3
Ntp59
Rp60
(lp61
I50
aI800000000
absg41
F29.46
sbag1
(g2
g3
Ntp62
Rp63
(dp64
g7
g46
sg12
S'WayPoint3'
p65
sg14
g1
(g15
g3
Ntp66
Rp67
(lp68
g1
(g19
g3
Ntp69
Rp70
(lp71
F4.850000000000001
aF3.900000000000002
aF0.0
abag1
(g23
g3
Ntp72
Rp73
(lp74
I0
aI0
aI0
aI1
ababsg27
(lp75
sg36
I00
sg37
g1
(g8
g3
Ntp76
Rp77
(lp78
I2
aI600000000
absg41
F39.27
sbag1
(g2
g3
Ntp79
Rp80
(dp81
g7
g1
(g8
g3
Ntp82
Rp83
(lp84
I49
aI800000000
absg12
S'WayPoint4'
p85
sg14
g1
(g15
g3
Ntp86
Rp87
(lp88
g1
(g19
g3
Ntp89
Rp90
(lp91
F1.200000000000001
aF3.1000000000000023
aF0.0
abag1
(g23
g3
Ntp92
Rp93
(lp94
I0
aI0
aI0
aI1
ababsg27
(lp95
g1
(g29
g3
Ntp96
Rp97
(dp98
g33
F49.8
sg34
F51.89
sg35
F47.0
sbasg36
I01
sg37
g83
sg41
I0
sbag1
(g2
g3
Ntp99
Rp100
(dp101
g7
g46
sg12
S'WayPoint5'
p102
sg14
g1
(g15
g3
Ntp103
Rp104
(lp105
g1
(g19
g3
Ntp106
Rp107
(lp108
F5.800000000000001
aF-4.349999999999998
aF0.0
abag1
(g23
g3
Ntp109
Rp110
(lp111
I0
aI0
aI0
aI1
ababsg27
(lp112
sg36
I00
sg37
g77
sg41
F69.78
sbag1
(g2
g3
Ntp113
Rp114
(dp115
g7
g1
(g8
g3
Ntp116
Rp117
(lp118
I47
aI800000000
absg12
S'WayPoint6'
p119
sg14
g1
(g15
g3
Ntp120
Rp121
(lp122
g1
(g19
g3
Ntp123
Rp124
(lp125
F-6.15
aF3.150000000000002
aF0.0
abag1
(g23
g3
Ntp126
Rp127
(lp128
I0
aI0
aI0
aI1
ababsg27
(lp129
g1
(g29
g3
Ntp130
Rp131
(dp132
g33
F47.8
sg34
F19.92
sg35
F45.0
sbasg36
I01
sg37
g117
sg41
I0
sbag1
(g2
g3
Ntp133
Rp134
(dp135
g7
g46
sg12
S'WayPoint7'
p136
sg14
g1
(g15
g3
Ntp137
Rp138
(lp139
g1
(g19
g3
Ntp140
Rp141
(lp142
F-6.3
aF-1.8999999999999986
aF0.0
abag1
(g23
g3
Ntp143
Rp144
(lp145
I0
aI0
aI0
aI1
ababsg27
(lp146
sg36
I00
sg37
g1
(g8
g3
Ntp147
Rp148
(lp149
I39
aI200000000
absg41
F32.43
sba.