(lp0
ccopy_reg
_reconstructor
p1
(cdestination
Destination
p2
c__builtin__
object
p3
Ntp4
Rp5
(dp6
S'_Destination__latest_usage'
p7
g1
(crospy.rostime
Time
p8
g3
Ntp9
Rp10
(lp11
I0
aI0
absS'name'
p12
S'WayPoint1'
p13
sS'pose'
p14
g1
(cgeometry_msgs.msg._Pose
Pose
p15
g3
Ntp16
Rp17
(lp18
g1
(cgeometry_msgs.msg._Point
Point
p19
g3
Ntp20
Rp21
(lp22
F-1.549999999999999
aF-0.8999999999999986
aF0.0
abag1
(cgeometry_msgs.msg._Quaternion
Quaternion
p23
g3
Ntp24
Rp25
(lp26
I0
aI0
aI0
aI1
ababsS'path_len'
p27
F0.0
sS'_Destination__stats'
p28
(lp29
sS'_Destination__available'
p30
I01
sS'_Destination__remaining_idl'
p31
g10
sS'estim_idl'
p32
I0
sbag1
(g2
g3
Ntp33
Rp34
(dp35
g7
g10
sg12
S'WayPoint10'
p36
sg14
g1
(g15
g3
Ntp37
Rp38
(lp39
g1
(g19
g3
Ntp40
Rp41
(lp42
F-2.75
aF4.0500000000000025
aF0.0
abag1
(g23
g3
Ntp43
Rp44
(lp45
I0
aI0
aI0
aI1
ababsg27
F8.747
sg28
(lp46
sg30
I00
sg31
g1
(g8
g3
Ntp47
Rp48
(lp49
I2
aI400000000
absg32
F33.64
sbag1
(g2
g3
Ntp50
Rp51
(dp52
g7
g10
sg12
S'WayPoint2'
p53
sg14
g1
(g15
g3
Ntp54
Rp55
(lp56
g1
(g19
g3
Ntp57
Rp58
(lp59
F-5.25
aF-0.04999999999999716
aF0.0
abag1
(g23
g3
Ntp60
Rp61
(lp62
I0
aI0
aI0
aI1
ababsg27
F7.32
sg28
(lp63
sg30
I00
sg31
g1
(g8
g3
Ntp64
Rp65
(lp66
I15
aI0
absg32
F28.16
sbag1
(g2
g3
Ntp67
Rp68
(dp69
g7
g10
sg12
S'WayPoint3'
p70
sg14
g1
(g15
g3
Ntp71
Rp72
(lp73
g1
(g19
g3
Ntp74
Rp75
(lp76
F-2.6499999999999995
aF-3.8999999999999986
aF0.0
abag1
(g23
g3
Ntp77
Rp78
(lp79
I0
aI0
aI0
aI1
ababsg27
F11.686
sg28
(lp80
sg30
I00
sg31
g48
sg32
F44.94
sbag1
(g2
g3
Ntp81
Rp82
(dp83
g7
g10
sg12
S'WayPoint4'
p84
sg14
g1
(g15
g3
Ntp85
Rp86
(lp87
g1
(g19
g3
Ntp88
Rp89
(lp90
F3.700000000000001
aF-1.3499999999999979
aF0.0
abag1
(g23
g3
Ntp91
Rp92
(lp93
I0
aI0
aI0
aI1
ababsg27
F10.925
sg28
(lp94
sg30
I00
sg31
g1
(g8
g3
Ntp95
Rp96
(lp97
I2
aI800000000
absg32
F42.02
sbag1
(g2
g3
Ntp98
Rp99
(dp100
g7
g10
sg12
S'WayPoint5'
p101
sg14
g1
(g15
g3
Ntp102
Rp103
(lp104
g1
(g19
g3
Ntp105
Rp106
(lp107
F7.650000000000002
aF-1.4999999999999982
aF0.0
abag1
(g23
g3
Ntp108
Rp109
(lp110
I0
aI0
aI0
aI1
ababsg27
F12.509
sg28
(lp111
sg30
I00
sg31
g1
(g8
g3
Ntp112
Rp113
(lp114
I3
aI0
absg32
F48.11
sbag1
(g2
g3
Ntp115
Rp116
(dp117
g7
g10
sg12
S'WayPoint6'
p118
sg14
g1
(g15
g3
Ntp119
Rp120
(lp121
g1
(g19
g3
Ntp122
Rp123
(lp124
F4.350000000000001
aF1.6000000000000023
aF0.0
abag1
(g23
g3
Ntp125
Rp126
(lp127
I0
aI0
aI0
aI1
ababsg27
F0.0
sg28
(lp128
sg30
I01
sg31
g10
sg32
I0
sbag1
(g2
g3
Ntp129
Rp130
(dp131
g7
g1
(g8
g3
Ntp132
Rp133
(lp134
I14
aI1000000
absg12
S'WayPoint7'
p135
sg14
g1
(g15
g3
Ntp136
Rp137
(lp138
g1
(g19
g3
Ntp139
Rp140
(lp141
F1.700000000000001
aF1.6500000000000021
aF0.0
abag1
(g23
g3
Ntp142
Rp143
(lp144
I0
aI0
aI0
aI1
ababsg27
F0.0
sg28
(lp145
g1
(cdestination
Observation
p146
g3
Ntp147
Rp148
(dp149
S'idleness'
p150
g1
(cdestination
Idleness
p151
g3
Ntp152
Rp153
(dp154
S'_Idleness__true_idl'
p155
F14.001
sS'_Idleness__estim_idl'
p156
F11.39
sS'_Idleness__remaining_idl'
p157
F11.001
sbsg27
F2.961
sbasg30
I01
sg31
g133
sg32
I0
sbag1
(g2
g3
Ntp158
Rp159
(dp160
g7
g10
sg12
S'WayPoint8'
p161
sg14
g1
(g15
g3
Ntp162
Rp163
(lp164
g1
(g19
g3
Ntp165
Rp166
(lp167
F0.9000000000000004
aF4.350000000000002
aF0.0
abag1
(g23
g3
Ntp168
Rp169
(lp170
I0
aI0
aI0
aI1
ababsg27
F0.0
sg28
(lp171
sg30
I01
sg31
g10
sg32
I0
sbag1
(g2
g3
Ntp172
Rp173
(dp174
g7
g10
sg12
S'WayPoint9'
p175
sg14
g1
(g15
g3
Ntp176
Rp177
(lp178
g1
(g19
g3
Ntp179
Rp180
(lp181
F5.0
aF4.600000000000002
aF0.0
abag1
(g23
g3
Ntp182
Rp183
(lp184
I0
aI0
aI0
aI1
ababsg27
F10.881
sg28
(lp185
sg30
I00
sg31
g113
sg32
F41.85
sba.