(lp0
ccopy_reg
_reconstructor
p1
(cdestination
Destination
p2
c__builtin__
object
p3
Ntp4
Rp5
(dp6
S'_Destination__latest_usage'
p7
g1
(crospy.rostime
Time
p8
g3
Ntp9
Rp10
(lp11
I32
aI0
absS'name'
p12
S'WayPoint1'
p13
sS'pose'
p14
g1
(cgeometry_msgs.msg._Pose
Pose
p15
g3
Ntp16
Rp17
(lp18
g1
(cgeometry_msgs.msg._Point
Point
p19
g3
Ntp20
Rp21
(lp22
F-1.549999999999999
aF-0.8999999999999986
aF0.0
abag1
(cgeometry_msgs.msg._Quaternion
Quaternion
p23
g3
Ntp24
Rp25
(lp26
I0
aI0
aI0
aI1
ababsS'path_len'
p27
F0.0
sS'_Destination__stats'
p28
(lp29
g1
(cdestination
Observation
p30
g3
Ntp31
Rp32
(dp33
S'idleness'
p34
g1
(cdestination
Idleness
p35
g3
Ntp36
Rp37
(dp38
S'_Idleness__true_idl'
p39
F32.0
sS'_Idleness__estim_idl'
p40
F25.57
sS'_Idleness__remaining_idl'
p41
F29.0
sbsg27
F6.649
sbasS'_Destination__available'
p42
I01
sS'_Destination__remaining_idl'
p43
g10
sS'estim_idl'
p44
I0
sbag1
(g2
g3
Ntp45
Rp46
(dp47
g7
g1
(g8
g3
Ntp48
Rp49
(lp50
I29
aI600000000
absg12
S'WayPoint10'
p51
sg14
g1
(g15
g3
Ntp52
Rp53
(lp54
g1
(g19
g3
Ntp55
Rp56
(lp57
F-2.75
aF4.0500000000000025
aF0.0
abag1
(g23
g3
Ntp58
Rp59
(lp60
I0
aI0
aI0
aI1
ababsg27
F0.0
sg28
(lp61
g1
(g30
g3
Ntp62
Rp63
(dp64
g34
g1
(g35
g3
Ntp65
Rp66
(dp67
g39
F29.6
sg40
F30.49
sg41
F26.998
sbsg27
F7.929
sbasg42
I01
sg43
g49
sg44
I0
sbag1
(g2
g3
Ntp68
Rp69
(dp70
g7
g1
(g8
g3
Ntp71
Rp72
(lp73
I0
aI0
absg12
S'WayPoint2'
p74
sg14
g1
(g15
g3
Ntp75
Rp76
(lp77
g1
(g19
g3
Ntp78
Rp79
(lp80
F-5.25
aF-0.04999999999999716
aF0.0
abag1
(g23
g3
Ntp81
Rp82
(lp83
I0
aI0
aI0
aI1
ababsg27
F6.097
sg28
(lp84
sg42
I00
sg43
g1
(g8
g3
Ntp85
Rp86
(lp87
I37
aI200000000
absg44
F23.45
sbag1
(g2
g3
Ntp88
Rp89
(dp90
g7
g1
(g8
g3
Ntp91
Rp92
(lp93
I36
aI800000000
absg12
S'WayPoint3'
p94
sg14
g1
(g15
g3
Ntp95
Rp96
(lp97
g1
(g19
g3
Ntp98
Rp99
(lp100
F-2.6499999999999995
aF-3.8999999999999986
aF0.0
abag1
(g23
g3
Ntp101
Rp102
(lp103
I0
aI0
aI0
aI1
ababsg27
F0.0
sg28
(lp104
g1
(g30
g3
Ntp105
Rp106
(dp107
g34
g1
(g35
g3
Ntp108
Rp109
(dp110
g39
F36.8
sg40
F28.32
sg41
F34.0
sbsg27
F7.364
sbasg42
I01
sg43
g92
sg44
I0
sbag1
(g2
g3
Ntp111
Rp112
(dp113
g7
g1
(g8
g3
Ntp114
Rp115
(lp116
I24
aI600000000
absg12
S'WayPoint4'
p117
sg14
g1
(g15
g3
Ntp118
Rp119
(lp120
g1
(g19
g3
Ntp121
Rp122
(lp123
F3.700000000000001
aF-1.3499999999999979
aF0.0
abag1
(g23
g3
Ntp124
Rp125
(lp126
I0
aI0
aI0
aI1
ababsg27
F0.0
sg28
(lp127
g1
(g30
g3
Ntp128
Rp129
(dp130
g34
g1
(g35
g3
Ntp131
Rp132
(dp133
g39
F24.6
sg40
F20.67
sg41
F21.998
sbsg27
F5.374
sbasg42
I01
sg43
g115
sg44
I0
sbag1
(g2
g3
Ntp134
Rp135
(dp136
g7
g72
sg12
S'WayPoint5'
p137
sg14
g1
(g15
g3
Ntp138
Rp139
(lp140
g1
(g19
g3
Ntp141
Rp142
(lp143
F7.650000000000002
aF-1.4999999999999982
aF0.0
abag1
(g23
g3
Ntp144
Rp145
(lp146
I0
aI0
aI0
aI1
ababsg27
F14.496
sg28
(lp147
sg42
I00
sg43
g1
(g8
g3
Ntp148
Rp149
(lp150
I2
aI800000000
absg44
F55.75
sbag1
(g2
g3
Ntp151
Rp152
(dp153
g7
g1
(g8
g3
Ntp154
Rp155
(lp156
I60
aI0
absg12
S'WayPoint6'
p157
sg14
g1
(g15
g3
Ntp158
Rp159
(lp160
g1
(g19
g3
Ntp161
Rp162
(lp163
F4.350000000000001
aF1.6000000000000023
aF0.0
abag1
(g23
g3
Ntp164
Rp165
(lp166
I0
aI0
aI0
aI1
ababsg27
F0.0
sg28
(lp167
g1
(g30
g3
Ntp168
Rp169
(dp170
g34
g1
(g35
g3
Ntp171
Rp172
(dp173
g39
F60.0
sg40
F26.29
sg41
F26.996
sbsg27
F6.835
sbasg42
I01
sg43
g155
sg44
I0
sbag1
(g2
g3
Ntp174
Rp175
(dp176
g7
g72
sg12
S'WayPoint7'
p177
sg14
g1
(g15
g3
Ntp178
Rp179
(lp180
g1
(g19
g3
Ntp181
Rp182
(lp183
F1.700000000000001
aF1.6500000000000021
aF0.0
abag1
(g23
g3
Ntp184
Rp185
(lp186
I0
aI0
aI0
aI1
ababsg27
F5.031
sg28
(lp187
sg42
I00
sg43
g1
(g8
g3
Ntp188
Rp189
(lp190
I3
aI0
absg44
F19.35
sbag1
(g2
g3
Ntp191
Rp192
(dp193
g7
g72
sg12
S'WayPoint8'
p194
sg14
g1
(g15
g3
Ntp195
Rp196
(lp197
g1
(g19
g3
Ntp198
Rp199
(lp200
F0.9000000000000004
aF4.350000000000002
aF0.0
abag1
(g23
g3
Ntp201
Rp202
(lp203
I0
aI0
aI0
aI1
ababsg27
F8.501
sg28
(lp204
sg42
I00
sg43
g1
(g8
g3
Ntp205
Rp206
(lp207
I25
aI200000000
absg44
F32.7
sbag1
(g2
g3
Ntp208
Rp209
(dp210
g7
g72
sg12
S'WayPoint9'
p211
sg14
g1
(g15
g3
Ntp212
Rp213
(lp214
g1
(g19
g3
Ntp215
Rp216
(lp217
F5.0
aF4.600000000000002
aF0.0
abag1
(g23
g3
Ntp218
Rp219
(lp220
I0
aI0
aI0
aI1
ababsg27
F10.964
sg28
(lp221
sg42
I00
sg43
g1
(g8
g3
Ntp222
Rp223
(lp224
I30
aI0
absg44
F42.17
sba.