(lp0
ccopy_reg
_reconstructor
p1
(cdestination
Destination
p2
c__builtin__
object
p3
Ntp4
Rp5
(dp6
S'_Destination__latest_usage'
p7
g1
(crospy.rostime
Time
p8
g3
Ntp9
Rp10
(lp11
I40
aI1000000
absS'name'
p12
S'WayPoint1'
p13
sS'pose'
p14
g1
(cgeometry_msgs.msg._Pose
Pose
p15
g3
Ntp16
Rp17
(lp18
g1
(cgeometry_msgs.msg._Point
Point
p19
g3
Ntp20
Rp21
(lp22
F-1.549999999999999
aF-0.8999999999999986
aF0.0
abag1
(cgeometry_msgs.msg._Quaternion
Quaternion
p23
g3
Ntp24
Rp25
(lp26
I0
aI0
aI0
aI1
ababsS'path_len'
p27
F0.0
sS'_Destination__stats'
p28
(lp29
g1
(cdestination
Observation
p30
g3
Ntp31
Rp32
(dp33
S'idleness'
p34
g1
(cdestination
Idleness
p35
g3
Ntp36
Rp37
(dp38
S'_Idleness__true_idl'
p39
F40.001
sS'_Idleness__estim_idl'
p40
F16.21
sS'_Idleness__remaining_idl'
p41
F17.0
sbsg27
F4.215
sbasS'_Destination__available'
p42
I01
sS'_Destination__remaining_idl'
p43
g10
sS'estim_idl'
p44
I0
sbag1
(g2
g3
Ntp45
Rp46
(dp47
g7
g1
(g8
g3
Ntp48
Rp49
(lp50
I56
aI800000000
absg12
S'WayPoint10'
p51
sg14
g1
(g15
g3
Ntp52
Rp53
(lp54
g1
(g19
g3
Ntp55
Rp56
(lp57
F-2.75
aF4.0500000000000025
aF0.0
abag1
(g23
g3
Ntp58
Rp59
(lp60
I0
aI0
aI0
aI1
ababsg27
F0.0
sg28
(lp61
g1
(g30
g3
Ntp62
Rp63
(dp64
g34
g1
(g35
g3
Ntp65
Rp66
(dp67
g39
F56.8
sg40
F38.76
sg41
F53.0
sbsg27
F10.079
sbasg42
I01
sg43
g49
sg44
I0
sbag1
(g2
g3
Ntp68
Rp69
(dp70
g7
g1
(g8
g3
Ntp71
Rp72
(lp73
I60
aI1000000
absg12
S'WayPoint2'
p74
sg14
g1
(g15
g3
Ntp75
Rp76
(lp77
g1
(g19
g3
Ntp78
Rp79
(lp80
F-5.25
aF-0.04999999999999716
aF0.0
abag1
(g23
g3
Ntp81
Rp82
(lp83
I0
aI0
aI0
aI1
ababsg27
F0.0
sg28
(lp84
g1
(g30
g3
Ntp85
Rp86
(dp87
g34
g1
(g35
g3
Ntp88
Rp89
(dp90
g39
F18.0
sg40
F16.0
sg41
F14.0
sbsg27
F4.16
sbag1
(g30
g3
Ntp91
Rp92
(dp93
g34
g1
(g35
g3
Ntp94
Rp95
(dp96
g39
F42.001
sg40
F17.6
sg41
F19.001
sbsg27
F4.577
sbasg42
I01
sg43
g72
sg44
I0
sbag1
(g2
g3
Ntp97
Rp98
(dp99
g7
g1
(g8
g3
Ntp100
Rp101
(lp102
I0
aI0
absg12
S'WayPoint3'
p103
sg14
g1
(g15
g3
Ntp104
Rp105
(lp106
g1
(g19
g3
Ntp107
Rp108
(lp109
F-2.6499999999999995
aF-3.8999999999999986
aF0.0
abag1
(g23
g3
Ntp110
Rp111
(lp112
I0
aI0
aI0
aI1
ababsg27
F7.364
sg28
(lp113
sg42
I00
sg43
g1
(g8
g3
Ntp114
Rp115
(lp116
I3
aI800000000
absg44
F28.32
sbag1
(g2
g3
Ntp117
Rp118
(dp119
g7
g101
sg12
S'WayPoint4'
p120
sg14
g1
(g15
g3
Ntp121
Rp122
(lp123
g1
(g19
g3
Ntp124
Rp125
(lp126
F3.700000000000001
aF-1.3499999999999979
aF0.0
abag1
(g23
g3
Ntp127
Rp128
(lp129
I0
aI0
aI0
aI1
ababsg27
F8.564
sg28
(lp130
sg42
I00
sg43
g1
(g8
g3
Ntp131
Rp132
(lp133
I28
aI1000000
absg44
F32.94
sbag1
(g2
g3
Ntp134
Rp135
(dp136
g7
g101
sg12
S'WayPoint5'
p137
sg14
g1
(g15
g3
Ntp138
Rp139
(lp140
g1
(g19
g3
Ntp141
Rp142
(lp143
F7.650000000000002
aF-1.4999999999999982
aF0.0
abag1
(g23
g3
Ntp144
Rp145
(lp146
I0
aI0
aI0
aI1
ababsg27
F12.506
sg28
(lp147
sg42
I00
sg43
g115
sg44
F48.1
sbag1
(g2
g3
Ntp148
Rp149
(dp150
g7
g1
(g8
g3
Ntp151
Rp152
(lp153
I27
aI0
absg12
S'WayPoint6'
p154
sg14
g1
(g15
g3
Ntp155
Rp156
(lp157
g1
(g19
g3
Ntp158
Rp159
(lp160
F4.350000000000001
aF1.6000000000000023
aF0.0
abag1
(g23
g3
Ntp161
Rp162
(lp163
I0
aI0
aI0
aI1
ababsg27
F0.0
sg28
(lp164
g1
(g30
g3
Ntp165
Rp166
(dp167
g34
g1
(g35
g3
Ntp168
Rp169
(dp170
g39
F27.0
sg40
F20.48
sg41
F23.0
sbsg27
F5.326
sbasg42
I01
sg43
g152
sg44
I0
sbag1
(g2
g3
Ntp171
Rp172
(dp173
g7
g1
(g8
g3
Ntp174
Rp175
(lp176
I22
aI0
absg12
S'WayPoint7'
p177
sg14
g1
(g15
g3
Ntp178
Rp179
(lp180
g1
(g19
g3
Ntp181
Rp182
(lp183
F1.700000000000001
aF1.6500000000000021
aF0.0
abag1
(g23
g3
Ntp184
Rp185
(lp186
I0
aI0
aI0
aI1
ababsg27
F5.341
sg28
(lp187
g1
(g30
g3
Ntp188
Rp189
(dp190
g34
g1
(g35
g3
Ntp191
Rp192
(dp193
g39
F22.0
sg40
F20.54
sg41
F18.0
sbsg27
F5.341
sbasg42
I00
sg43
g1
(g8
g3
Ntp194
Rp195
(lp196
I57
aI401000000
absg44
F20.54
sbag1
(g2
g3
Ntp197
Rp198
(dp199
g7
g101
sg12
S'WayPoint8'
p200
sg14
g1
(g15
g3
Ntp201
Rp202
(lp203
g1
(g19
g3
Ntp204
Rp205
(lp206
F0.9000000000000004
aF4.350000000000002
aF0.0
abag1
(g23
g3
Ntp207
Rp208
(lp209
I0
aI0
aI0
aI1
ababsg27
F9.853
sg28
(lp210
sg42
I00
sg43
g1
(g8
g3
Ntp211
Rp212
(lp213
I19
aI0
absg44
F37.9
sbag1
(g2
g3
Ntp214
Rp215
(dp216
g7
g101
sg12
S'WayPoint9'
p217
sg14
g1
(g15
g3
Ntp218
Rp219
(lp220
g1
(g19
g3
Ntp221
Rp222
(lp223
F5.0
aF4.600000000000002
aF0.0
abag1
(g23
g3
Ntp224
Rp225
(lp226
I0
aI0
aI0
aI1
ababsg27
F0.0
sg28
(lp227
sg42
I01
sg43
g101
sg44
I0
sba.