(lp0
ccopy_reg
_reconstructor
p1
(cdestination
Destination
p2
c__builtin__
object
p3
Ntp4
Rp5
(dp6
S'_Destination__latest_usage'
p7
g1
(crospy.rostime
Time
p8
g3
Ntp9
Rp10
(lp11
I0
aI0
absS'name'
p12
S'WayPoint1'
p13
sS'pose'
p14
g1
(cgeometry_msgs.msg._Pose
Pose
p15
g3
Ntp16
Rp17
(lp18
g1
(cgeometry_msgs.msg._Point
Point
p19
g3
Ntp20
Rp21
(lp22
F-1.549999999999999
aF-0.8999999999999986
aF0.0
abag1
(cgeometry_msgs.msg._Quaternion
Quaternion
p23
g3
Ntp24
Rp25
(lp26
I0
aI0
aI0
aI1
ababsS'path_len'
p27
F6.506
sS'_Destination__stats'
p28
(lp29
sS'_Destination__available'
p30
I00
sS'_Destination__remaining_idl'
p31
g1
(g8
g3
Ntp32
Rp33
(lp34
I31
aI0
absS'estim_idl'
p35
F25.02
sbag1
(g2
g3
Ntp36
Rp37
(dp38
g7
g1
(g8
g3
Ntp39
Rp40
(lp41
I36
aI800000000
absg12
S'WayPoint10'
p42
sg14
g1
(g15
g3
Ntp43
Rp44
(lp45
g1
(g19
g3
Ntp46
Rp47
(lp48
F-2.75
aF4.0500000000000025
aF0.0
abag1
(g23
g3
Ntp49
Rp50
(lp51
I0
aI0
aI0
aI1
ababsg27
F0.0
sg28
(lp52
g1
(cdestination
Observation
p53
g3
Ntp54
Rp55
(dp56
S'idleness'
p57
g1
(cdestination
Idleness
p58
g3
Ntp59
Rp60
(dp61
S'_Idleness__true_idl'
p62
F36.8
sS'_Idleness__estim_idl'
p63
F30.49
sS'_Idleness__remaining_idl'
p64
F33.0
sbsg27
F7.929
sbasg30
I01
sg31
g40
sg35
I0
sbag1
(g2
g3
Ntp65
Rp66
(dp67
g7
g10
sg12
S'WayPoint2'
p68
sg14
g1
(g15
g3
Ntp69
Rp70
(lp71
g1
(g19
g3
Ntp72
Rp73
(lp74
F-5.25
aF-0.04999999999999716
aF0.0
abag1
(g23
g3
Ntp75
Rp76
(lp77
I0
aI0
aI0
aI1
ababsg27
F11.911
sg28
(lp78
sg30
I00
sg31
g1
(g8
g3
Ntp79
Rp80
(lp81
I3
aI800000000
absg35
F45.81
sbag1
(g2
g3
Ntp82
Rp83
(dp84
g7
g1
(g8
g3
Ntp85
Rp86
(lp87
I34
aI801000000
absg12
S'WayPoint3'
p88
sg14
g1
(g15
g3
Ntp89
Rp90
(lp91
g1
(g19
g3
Ntp92
Rp93
(lp94
F-2.6499999999999995
aF-3.8999999999999986
aF0.0
abag1
(g23
g3
Ntp95
Rp96
(lp97
I0
aI0
aI0
aI1
ababsg27
F11.554
sg28
(lp98
g1
(g53
g3
Ntp99
Rp100
(dp101
g57
g1
(g58
g3
Ntp102
Rp103
(dp104
g62
F34.801
sg63
F28.32
sg64
F31.001
sbsg27
F7.364
sbasg30
I00
sg31
g1
(g8
g3
Ntp105
Rp106
(lp107
I37
aI400000000
absg35
F44.44
sbag1
(g2
g3
Ntp108
Rp109
(dp110
g7
g10
sg12
S'WayPoint4'
p111
sg14
g1
(g15
g3
Ntp112
Rp113
(lp114
g1
(g19
g3
Ntp115
Rp116
(lp117
F3.700000000000001
aF-1.3499999999999979
aF0.0
abag1
(g23
g3
Ntp118
Rp119
(lp120
I0
aI0
aI0
aI1
ababsg27
F8.545
sg28
(lp121
sg30
I00
sg31
g1
(g8
g3
Ntp122
Rp123
(lp124
I31
aI200000000
absg35
F32.87
sbag1
(g2
g3
Ntp125
Rp126
(dp127
g7
g10
sg12
S'WayPoint5'
p128
sg14
g1
(g15
g3
Ntp129
Rp130
(lp131
g1
(g19
g3
Ntp132
Rp133
(lp134
F7.650000000000002
aF-1.4999999999999982
aF0.0
abag1
(g23
g3
Ntp135
Rp136
(lp137
I0
aI0
aI0
aI1
ababsg27
F14.896
sg28
(lp138
sg30
I00
sg31
g1
(g8
g3
Ntp139
Rp140
(lp141
I4
aI1000000
absg35
F57.29
sbag1
(g2
g3
Ntp142
Rp143
(dp144
g7
g1
(g8
g3
Ntp145
Rp146
(lp147
I30
aI800000000
absg12
S'WayPoint6'
p148
sg14
g1
(g15
g3
Ntp149
Rp150
(lp151
g1
(g19
g3
Ntp152
Rp153
(lp154
F4.350000000000001
aF1.6000000000000023
aF0.0
abag1
(g23
g3
Ntp155
Rp156
(lp157
I0
aI0
aI0
aI1
ababsg27
F9.767
sg28
(lp158
g1
(g53
g3
Ntp159
Rp160
(dp161
g57
g1
(g58
g3
Ntp162
Rp163
(dp164
g62
F30.8
sg63
F26.29
sg64
F27.0
sbsg27
F6.835
sbasg30
I00
sg31
g1
(g8
g3
Ntp165
Rp166
(lp167
I35
aI202000000
absg35
F37.56
sbag1
(g2
g3
Ntp168
Rp169
(dp170
g7
g1
(g8
g3
Ntp171
Rp172
(lp173
I16
aI0
absg12
S'WayPoint7'
p174
sg14
g1
(g15
g3
Ntp175
Rp176
(lp177
g1
(g19
g3
Ntp178
Rp179
(lp180
F1.700000000000001
aF1.6500000000000021
aF0.0
abag1
(g23
g3
Ntp181
Rp182
(lp183
I0
aI0
aI0
aI1
ababsg27
F0.0
sg28
(lp184
g1
(g53
g3
Ntp185
Rp186
(dp187
g57
g1
(g58
g3
Ntp188
Rp189
(dp190
g62
F16.0
sg63
F11.39
sg64
F11.999
sbsg27
F2.961
sbasg30
I01
sg31
g172
sg35
I0
sbag1
(g2
g3
Ntp191
Rp192
(dp193
g7
g1
(g8
g3
Ntp194
Rp195
(lp196
I30
aI0
absg12
S'WayPoint8'
p197
sg14
g1
(g15
g3
Ntp198
Rp199
(lp200
g1
(g19
g3
Ntp201
Rp202
(lp203
F0.9000000000000004
aF4.350000000000002
aF0.0
abag1
(g23
g3
Ntp204
Rp205
(lp206
I0
aI0
aI0
aI1
ababsg27
F0.0
sg28
(lp207
g1
(g53
g3
Ntp208
Rp209
(dp210
g57
g1
(g58
g3
Ntp211
Rp212
(dp213
g62
F30.0
sg63
F11.39
sg64
F13.0
sbsg27
F2.961
sbasg30
I01
sg31
g195
sg35
I0
sbag1
(g2
g3
Ntp214
Rp215
(dp216
g7
g10
sg12
S'WayPoint9'
p217
sg14
g1
(g15
g3
Ntp218
Rp219
(lp220
g1
(g19
g3
Ntp221
Rp222
(lp223
F5.0
aF4.600000000000002
aF0.0
abag1
(g23
g3
Ntp224
Rp225
(lp226
I0
aI0
aI0
aI1
ababsg27
F0.0
sg28
(lp227
sg30
I01
sg31
g10
sg35
I0
sba.