(lp0
ccopy_reg
_reconstructor
p1
(cdestination
Destination
p2
c__builtin__
object
p3
Ntp4
Rp5
(dp6
S'_Destination__latest_usage'
p7
g1
(crospy.rostime
Time
p8
g3
Ntp9
Rp10
(lp11
I0
aI0
absS'name'
p12
S'WayPoint1'
p13
sS'pose'
p14
g1
(cgeometry_msgs.msg._Pose
Pose
p15
g3
Ntp16
Rp17
(lp18
g1
(cgeometry_msgs.msg._Point
Point
p19
g3
Ntp20
Rp21
(lp22
F-1.549999999999999
aF-0.8999999999999986
aF0.0
abag1
(cgeometry_msgs.msg._Quaternion
Quaternion
p23
g3
Ntp24
Rp25
(lp26
I0
aI0
aI0
aI1
ababsS'path_len'
p27
F9.675
sS'_Destination__stats'
p28
(lp29
sS'_Destination__available'
p30
I00
sS'_Destination__remaining_idl'
p31
g1
(g8
g3
Ntp32
Rp33
(lp34
I49
aI201000000
absS'estim_idl'
p35
F37.21
sbag1
(g2
g3
Ntp36
Rp37
(dp38
g7
g1
(g8
g3
Ntp39
Rp40
(lp41
I43
aI803000000
absg12
S'WayPoint10'
p42
sg14
g1
(g15
g3
Ntp43
Rp44
(lp45
g1
(g19
g3
Ntp46
Rp47
(lp48
F-2.75
aF4.0500000000000025
aF0.0
abag1
(g23
g3
Ntp49
Rp50
(lp51
I0
aI0
aI0
aI1
ababsg27
F0.0
sg28
(lp52
g1
(cdestination
Observation
p53
g3
Ntp54
Rp55
(dp56
S'idleness'
p57
g1
(cdestination
Idleness
p58
g3
Ntp59
Rp60
(dp61
S'_Idleness__true_idl'
p62
F43.803
sS'_Idleness__estim_idl'
p63
F26.01
sS'_Idleness__remaining_idl'
p64
F41.002
sbsg27
F6.762
sbasg30
I01
sg31
g40
sg35
I0
sbag1
(g2
g3
Ntp65
Rp66
(dp67
g7
g1
(g8
g3
Ntp68
Rp69
(lp70
I38
aI0
absg12
S'WayPoint2'
p71
sg14
g1
(g15
g3
Ntp72
Rp73
(lp74
g1
(g19
g3
Ntp75
Rp76
(lp77
F-5.25
aF-0.04999999999999716
aF0.0
abag1
(g23
g3
Ntp78
Rp79
(lp80
I0
aI0
aI0
aI1
ababsg27
F0.0
sg28
(lp81
g1
(g53
g3
Ntp82
Rp83
(dp84
g57
g1
(g58
g3
Ntp85
Rp86
(dp87
g62
F38.0
sg63
F36.28
sg64
F35.0
sbsg27
F9.432
sbasg30
I01
sg31
g69
sg35
I0
sbag1
(g2
g3
Ntp88
Rp89
(dp90
g7
g10
sg12
S'WayPoint3'
p91
sg14
g1
(g15
g3
Ntp92
Rp93
(lp94
g1
(g19
g3
Ntp95
Rp96
(lp97
F-2.6499999999999995
aF-3.8999999999999986
aF0.0
abag1
(g23
g3
Ntp98
Rp99
(lp100
I0
aI0
aI0
aI1
ababsg27
F9.731
sg28
(lp101
sg30
I00
sg31
g1
(g8
g3
Ntp102
Rp103
(lp104
I3
aI0
absg35
F37.43
sbag1
(g2
g3
Ntp105
Rp106
(dp107
g7
g10
sg12
S'WayPoint4'
p108
sg14
g1
(g15
g3
Ntp109
Rp110
(lp111
g1
(g19
g3
Ntp112
Rp113
(lp114
F3.700000000000001
aF-1.3499999999999979
aF0.0
abag1
(g23
g3
Ntp115
Rp116
(lp117
I0
aI0
aI0
aI1
ababsg27
F10.925
sg28
(lp118
sg30
I00
sg31
g1
(g8
g3
Ntp119
Rp120
(lp121
I2
aI801000000
absg35
F42.02
sbag1
(g2
g3
Ntp122
Rp123
(dp124
g7
g10
sg12
S'WayPoint5'
p125
sg14
g1
(g15
g3
Ntp126
Rp127
(lp128
g1
(g19
g3
Ntp129
Rp130
(lp131
F7.650000000000002
aF-1.4999999999999982
aF0.0
abag1
(g23
g3
Ntp132
Rp133
(lp134
I0
aI0
aI0
aI1
ababsg27
F13.354
sg28
(lp135
sg30
I00
sg31
g1
(g8
g3
Ntp136
Rp137
(lp138
I39
aI0
absg35
F51.36
sbag1
(g2
g3
Ntp139
Rp140
(dp141
g7
g1
(g8
g3
Ntp142
Rp143
(lp144
I29
aI600000000
absg12
S'WayPoint6'
p145
sg14
g1
(g15
g3
Ntp146
Rp147
(lp148
g1
(g19
g3
Ntp149
Rp150
(lp151
F4.350000000000001
aF1.6000000000000023
aF0.0
abag1
(g23
g3
Ntp152
Rp153
(lp154
I0
aI0
aI0
aI1
ababsg27
F0.0
sg28
(lp155
g1
(g53
g3
Ntp156
Rp157
(dp158
g57
g1
(g58
g3
Ntp159
Rp160
(dp161
g62
F29.6
sg63
F26.29
sg64
F26.999
sbsg27
F6.835
sbasg30
I01
sg31
g143
sg35
I0
sbag1
(g2
g3
Ntp162
Rp163
(dp164
g7
g10
sg12
S'WayPoint7'
p165
sg14
g1
(g15
g3
Ntp166
Rp167
(lp168
g1
(g19
g3
Ntp169
Rp170
(lp171
F1.700000000000001
aF1.6500000000000021
aF0.0
abag1
(g23
g3
Ntp172
Rp173
(lp174
I0
aI0
aI0
aI1
ababsg27
F5.341
sg28
(lp175
sg30
I00
sg31
g1
(g8
g3
Ntp176
Rp177
(lp178
I2
aI201000000
absg35
F20.54
sbag1
(g2
g3
Ntp179
Rp180
(dp181
g7
g10
sg12
S'WayPoint8'
p182
sg14
g1
(g15
g3
Ntp183
Rp184
(lp185
g1
(g19
g3
Ntp186
Rp187
(lp188
F0.9000000000000004
aF4.350000000000002
aF0.0
abag1
(g23
g3
Ntp189
Rp190
(lp191
I0
aI0
aI0
aI1
ababsg27
F6.753
sg28
(lp192
sg30
I00
sg31
g1
(g8
g3
Ntp193
Rp194
(lp195
I44
aI800000000
absg35
F25.97
sbag1
(g2
g3
Ntp196
Rp197
(dp198
g7
g1
(g8
g3
Ntp199
Rp200
(lp201
I48
aI200000000
absg12
S'WayPoint9'
p202
sg14
g1
(g15
g3
Ntp203
Rp204
(lp205
g1
(g19
g3
Ntp206
Rp207
(lp208
F5.0
aF4.600000000000002
aF0.0
abag1
(g23
g3
Ntp209
Rp210
(lp211
I0
aI0
aI0
aI1
ababsg27
F0.0
sg28
(lp212
g1
(g53
g3
Ntp213
Rp214
(dp215
g57
g1
(g58
g3
Ntp216
Rp217
(dp218
g62
F48.2
sg63
F18.03
sg64
F18.0
sbsg27
F4.689
sbasg30
I01
sg31
g200
sg35
I0
sba.