(lp0
ccopy_reg
_reconstructor
p1
(cdestination
Destination
p2
c__builtin__
object
p3
Ntp4
Rp5
(dp6
S'_Destination__latest_usage'
p7
g1
(crospy.rostime
Time
p8
g3
Ntp9
Rp10
(lp11
I0
aI0
absS'name'
p12
S'WayPoint1'
p13
sS'pose'
p14
g1
(cgeometry_msgs.msg._Pose
Pose
p15
g3
Ntp16
Rp17
(lp18
g1
(cgeometry_msgs.msg._Point
Point
p19
g3
Ntp20
Rp21
(lp22
F-1.549999999999999
aF-0.8999999999999986
aF0.0
abag1
(cgeometry_msgs.msg._Quaternion
Quaternion
p23
g3
Ntp24
Rp25
(lp26
I0
aI0
aI0
aI1
ababsS'path_len'
p27
F9.361
sS'_Destination__stats'
p28
(lp29
sS'_Destination__available'
p30
I00
sS'_Destination__remaining_idl'
p31
g1
(g8
g3
Ntp32
Rp33
(lp34
I24
aI0
absS'estim_idl'
p35
F36.0
sbag1
(g2
g3
Ntp36
Rp37
(dp38
g7
g10
sg12
S'WayPoint10'
p39
sg14
g1
(g15
g3
Ntp40
Rp41
(lp42
g1
(g19
g3
Ntp43
Rp44
(lp45
F-2.75
aF4.0500000000000025
aF0.0
abag1
(g23
g3
Ntp46
Rp47
(lp48
I0
aI0
aI0
aI1
ababsg27
F10.079
sg28
(lp49
sg30
I00
sg31
g1
(g8
g3
Ntp50
Rp51
(lp52
I4
aI0
absg35
F38.76
sbag1
(g2
g3
Ntp53
Rp54
(dp55
g7
g10
sg12
S'WayPoint2'
p56
sg14
g1
(g15
g3
Ntp57
Rp58
(lp59
g1
(g19
g3
Ntp60
Rp61
(lp62
F-5.25
aF-0.04999999999999716
aF0.0
abag1
(g23
g3
Ntp63
Rp64
(lp65
I0
aI0
aI0
aI1
ababsg27
F11.911
sg28
(lp66
sg30
I00
sg31
g1
(g8
g3
Ntp67
Rp68
(lp69
I2
aI801000000
absg35
F45.81
sbag1
(g2
g3
Ntp70
Rp71
(dp72
g7
g1
(g8
g3
Ntp73
Rp74
(lp75
I47
aI806000000
absg12
S'WayPoint3'
p76
sg14
g1
(g15
g3
Ntp77
Rp78
(lp79
g1
(g19
g3
Ntp80
Rp81
(lp82
F-2.6499999999999995
aF-3.8999999999999986
aF0.0
abag1
(g23
g3
Ntp83
Rp84
(lp85
I0
aI0
aI0
aI1
ababsg27
F0.0
sg28
(lp86
g1
(cdestination
Observation
p87
g3
Ntp88
Rp89
(dp90
S'idleness'
p91
g1
(cdestination
Idleness
p92
g3
Ntp93
Rp94
(dp95
S'_Idleness__true_idl'
p96
F47.806
sS'_Idleness__estim_idl'
p97
F12.63
sS'_Idleness__remaining_idl'
p98
F44.006
sbsg27
F3.283
sbasg30
I01
sg31
g74
sg35
I0
sbag1
(g2
g3
Ntp99
Rp100
(dp101
g7
g10
sg12
S'WayPoint4'
p102
sg14
g1
(g15
g3
Ntp103
Rp104
(lp105
g1
(g19
g3
Ntp106
Rp107
(lp108
F3.700000000000001
aF-1.3499999999999979
aF0.0
abag1
(g23
g3
Ntp109
Rp110
(lp111
I0
aI0
aI0
aI1
ababsg27
F10.825
sg28
(lp112
sg30
I00
sg31
g1
(g8
g3
Ntp113
Rp114
(lp115
I47
aI400000000
absg35
F41.64
sbag1
(g2
g3
Ntp116
Rp117
(dp118
g7
g1
(g8
g3
Ntp119
Rp120
(lp121
I23
aI0
absg12
S'WayPoint5'
p122
sg14
g1
(g15
g3
Ntp123
Rp124
(lp125
g1
(g19
g3
Ntp126
Rp127
(lp128
F7.650000000000002
aF-1.4999999999999982
aF0.0
abag1
(g23
g3
Ntp129
Rp130
(lp131
I0
aI0
aI0
aI1
ababsg27
F11.318
sg28
(lp132
g1
(g87
g3
Ntp133
Rp134
(dp135
g91
g1
(g92
g3
Ntp136
Rp137
(dp138
g96
F23.0
sg97
F15.56
sg98
F19.0
sbsg27
F4.047
sbasg30
I00
sg31
g1
(g8
g3
Ntp139
Rp140
(lp141
I48
aI401000000
absg35
F43.53
sbag1
(g2
g3
Ntp142
Rp143
(dp144
g7
g10
sg12
S'WayPoint6'
p145
sg14
g1
(g15
g3
Ntp146
Rp147
(lp148
g1
(g19
g3
Ntp149
Rp150
(lp151
F4.350000000000001
aF1.6000000000000023
aF0.0
abag1
(g23
g3
Ntp152
Rp153
(lp154
I0
aI0
aI0
aI1
ababsg27
F5.322
sg28
(lp155
sg30
I00
sg31
g120
sg35
F20.47
sbag1
(g2
g3
Ntp156
Rp157
(dp158
g7
g1
(g8
g3
Ntp159
Rp160
(lp161
I16
aI801000000
absg12
S'WayPoint7'
p162
sg14
g1
(g15
g3
Ntp163
Rp164
(lp165
g1
(g19
g3
Ntp166
Rp167
(lp168
F1.700000000000001
aF1.6500000000000021
aF0.0
abag1
(g23
g3
Ntp169
Rp170
(lp171
I0
aI0
aI0
aI1
ababsg27
F0.0
sg28
(lp172
g1
(g87
g3
Ntp173
Rp174
(dp175
g91
g1
(g92
g3
Ntp176
Rp177
(dp178
g96
F16.801
sg97
F11.39
sg98
F13.001
sbsg27
F2.961
sbasg30
I01
sg31
g160
sg35
I0
sbag1
(g2
g3
Ntp179
Rp180
(dp181
g7
g1
(g8
g3
Ntp182
Rp183
(lp184
I22
aI0
absg12
S'WayPoint8'
p185
sg14
g1
(g15
g3
Ntp186
Rp187
(lp188
g1
(g19
g3
Ntp189
Rp190
(lp191
F0.9000000000000004
aF4.350000000000002
aF0.0
abag1
(g23
g3
Ntp192
Rp193
(lp194
I0
aI0
aI0
aI1
ababsg27
F0.0
sg28
(lp195
g1
(g87
g3
Ntp196
Rp197
(dp198
g91
g1
(g92
g3
Ntp199
Rp200
(dp201
g96
F22.0
sg97
F20.53
sg98
F18.0
sbsg27
F5.339
sbasg30
I01
sg31
g183
sg35
I0
sbag1
(g2
g3
Ntp202
Rp203
(dp204
g7
g1
(g8
g3
Ntp205
Rp206
(lp207
I46
aI400000000
absg12
S'WayPoint9'
p208
sg14
g1
(g15
g3
Ntp209
Rp210
(lp211
g1
(g19
g3
Ntp212
Rp213
(lp214
F5.0
aF4.600000000000002
aF0.0
abag1
(g23
g3
Ntp215
Rp216
(lp217
I0
aI0
aI0
aI1
ababsg27
F0.0
sg28
(lp218
g1
(g87
g3
Ntp219
Rp220
(dp221
g91
g1
(g92
g3
Ntp222
Rp223
(dp224
g96
F46.4
sg97
F19.45
sg98
F29.0
sbsg27
F5.058
sbasg30
I01
sg31
g206
sg35
I0
sba.