(lp0
ccopy_reg
_reconstructor
p1
(cdestination
Destination
p2
c__builtin__
object
p3
Ntp4
Rp5
(dp6
S'_Destination__latest_usage'
p7
g1
(crospy.rostime
Time
p8
g3
Ntp9
Rp10
(lp11
I0
aI0
absS'name'
p12
S'WayPoint1'
p13
sS'pose'
p14
g1
(cgeometry_msgs.msg._Pose
Pose
p15
g3
Ntp16
Rp17
(lp18
g1
(cgeometry_msgs.msg._Point
Point
p19
g3
Ntp20
Rp21
(lp22
F-1.549999999999999
aF-0.8999999999999986
aF0.0
abag1
(cgeometry_msgs.msg._Quaternion
Quaternion
p23
g3
Ntp24
Rp25
(lp26
I0
aI0
aI0
aI1
ababsS'path_len'
p27
F6.794
sS'_Destination__stats'
p28
(lp29
sS'_Destination__available'
p30
I00
sS'_Destination__remaining_idl'
p31
g1
(g8
g3
Ntp32
Rp33
(lp34
I2
aI800000000
absS'estim_idl'
p35
F26.13
sbag1
(g2
g3
Ntp36
Rp37
(dp38
g7
g10
sg12
S'WayPoint10'
p39
sg14
g1
(g15
g3
Ntp40
Rp41
(lp42
g1
(g19
g3
Ntp43
Rp44
(lp45
F-2.75
aF4.0500000000000025
aF0.0
abag1
(g23
g3
Ntp46
Rp47
(lp48
I0
aI0
aI0
aI1
ababsg27
F8.747
sg28
(lp49
sg30
I00
sg31
g33
sg35
F33.64
sbag1
(g2
g3
Ntp50
Rp51
(dp52
g7
g10
sg12
S'WayPoint2'
p53
sg14
g1
(g15
g3
Ntp54
Rp55
(lp56
g1
(g19
g3
Ntp57
Rp58
(lp59
F-5.25
aF-0.04999999999999716
aF0.0
abag1
(g23
g3
Ntp60
Rp61
(lp62
I0
aI0
aI0
aI1
ababsg27
F10.353
sg28
(lp63
sg30
I00
sg31
g1
(g8
g3
Ntp64
Rp65
(lp66
I46
aI200000000
absg35
F39.82
sbag1
(g2
g3
Ntp67
Rp68
(dp69
g7
g10
sg12
S'WayPoint3'
p70
sg14
g1
(g15
g3
Ntp71
Rp72
(lp73
g1
(g19
g3
Ntp74
Rp75
(lp76
F-2.6499999999999995
aF-3.8999999999999986
aF0.0
abag1
(g23
g3
Ntp77
Rp78
(lp79
I0
aI0
aI0
aI1
ababsg27
F12.085
sg28
(lp80
sg30
I00
sg31
g1
(g8
g3
Ntp81
Rp82
(lp83
I3
aI1000000
absg35
F46.48
sbag1
(g2
g3
Ntp84
Rp85
(dp86
g7
g10
sg12
S'WayPoint4'
p87
sg14
g1
(g15
g3
Ntp88
Rp89
(lp90
g1
(g19
g3
Ntp91
Rp92
(lp93
F3.700000000000001
aF-1.3499999999999979
aF0.0
abag1
(g23
g3
Ntp94
Rp95
(lp96
I0
aI0
aI0
aI1
ababsg27
F8.441
sg28
(lp97
sg30
I00
sg31
g82
sg35
F32.47
sbag1
(g2
g3
Ntp98
Rp99
(dp100
g7
g10
sg12
S'WayPoint5'
p101
sg14
g1
(g15
g3
Ntp102
Rp103
(lp104
g1
(g19
g3
Ntp105
Rp106
(lp107
F7.650000000000002
aF-1.4999999999999982
aF0.0
abag1
(g23
g3
Ntp108
Rp109
(lp110
I0
aI0
aI0
aI1
ababsg27
F0.0
sg28
(lp111
sg30
I01
sg31
g10
sg35
I0
sbag1
(g2
g3
Ntp112
Rp113
(dp114
g7
g1
(g8
g3
Ntp115
Rp116
(lp117
I45
aI201000000
absg12
S'WayPoint6'
p118
sg14
g1
(g15
g3
Ntp119
Rp120
(lp121
g1
(g19
g3
Ntp122
Rp123
(lp124
F4.350000000000001
aF1.6000000000000023
aF0.0
abag1
(g23
g3
Ntp125
Rp126
(lp127
I0
aI0
aI0
aI1
ababsg27
F0.0
sg28
(lp128
g1
(cdestination
Observation
p129
g3
Ntp130
Rp131
(dp132
S'idleness'
p133
g1
(cdestination
Idleness
p134
g3
Ntp135
Rp136
(dp137
S'_Idleness__true_idl'
p138
F45.201
sS'_Idleness__estim_idl'
p139
F11.8
sS'_Idleness__remaining_idl'
p140
F14.001
sbsg27
F3.068
sbasg30
I01
sg31
g116
sg35
I0
sbag1
(g2
g3
Ntp141
Rp142
(dp143
g7
g1
(g8
g3
Ntp144
Rp145
(lp146
I30
aI600000000
absg12
S'WayPoint7'
p147
sg14
g1
(g15
g3
Ntp148
Rp149
(lp150
g1
(g19
g3
Ntp151
Rp152
(lp153
F1.700000000000001
aF1.6500000000000021
aF0.0
abag1
(g23
g3
Ntp154
Rp155
(lp156
I0
aI0
aI0
aI1
ababsg27
F0.0
sg28
(lp157
g1
(g129
g3
Ntp158
Rp159
(dp160
g133
g1
(g134
g3
Ntp161
Rp162
(dp163
g138
F30.6
sg139
F20.54
sg140
F27.997
sbsg27
F5.341
sbasg30
I01
sg31
g145
sg35
I0
sbag1
(g2
g3
Ntp164
Rp165
(dp166
g7
g10
sg12
S'WayPoint8'
p167
sg14
g1
(g15
g3
Ntp168
Rp169
(lp170
g1
(g19
g3
Ntp171
Rp172
(lp173
F0.9000000000000004
aF4.350000000000002
aF0.0
abag1
(g23
g3
Ntp174
Rp175
(lp176
I0
aI0
aI0
aI1
ababsg27
F8.501
sg28
(lp177
sg30
I00
sg31
g1
(g8
g3
Ntp178
Rp179
(lp180
I2
aI603000000
absg35
F32.7
sbag1
(g2
g3
Ntp181
Rp182
(dp183
g7
g10
sg12
S'WayPoint9'
p184
sg14
g1
(g15
g3
Ntp185
Rp186
(lp187
g1
(g19
g3
Ntp188
Rp189
(lp190
F5.0
aF4.600000000000002
aF0.0
abag1
(g23
g3
Ntp191
Rp192
(lp193
I0
aI0
aI0
aI1
ababsg27
F0.0
sg28
(lp194
sg30
I01
sg31
g10
sg35
I0
sba.