(lp0
ccopy_reg
_reconstructor
p1
(cdestination
Destination
p2
c__builtin__
object
p3
Ntp4
Rp5
(dp6
S'_Destination__latest_usage'
p7
g1
(crospy.rostime
Time
p8
g3
Ntp9
Rp10
(lp11
I0
aI0
absS'name'
p12
S'WayPoint1'
p13
sS'pose'
p14
g1
(cgeometry_msgs.msg._Pose
Pose
p15
g3
Ntp16
Rp17
(lp18
g1
(cgeometry_msgs.msg._Point
Point
p19
g3
Ntp20
Rp21
(lp22
F-6.75
aF-2.6999999999999975
aF0.0
abag1
(cgeometry_msgs.msg._Quaternion
Quaternion
p23
g3
Ntp24
Rp25
(lp26
I0
aI0
aI0
aI1
ababsS'path_len'
p27
F8.558
sS'_Destination__stats'
p28
(lp29
sS'_Destination__available'
p30
I00
sS'_Destination__remaining_idl'
p31
g1
(g8
g3
Ntp32
Rp33
(lp34
I2
aI800000000
absS'estim_idl'
p35
F32.92
sbag1
(g2
g3
Ntp36
Rp37
(dp38
g7
g10
sg12
S'WayPoint10'
p39
sg14
g1
(g15
g3
Ntp40
Rp41
(lp42
g1
(g19
g3
Ntp43
Rp44
(lp45
F1.8500000000000014
aF2.8500000000000023
aF0.0
abag1
(g23
g3
Ntp46
Rp47
(lp48
I0
aI0
aI0
aI1
ababsg27
F0.0
sg28
(lp49
sg30
I01
sg31
g10
sg35
I0
sbag1
(g2
g3
Ntp50
Rp51
(dp52
g7
g10
sg12
S'WayPoint11'
p53
sg14
g1
(g15
g3
Ntp54
Rp55
(lp56
g1
(g19
g3
Ntp57
Rp58
(lp59
F6.600000000000001
aF3.450000000000003
aF0.0
abag1
(g23
g3
Ntp60
Rp61
(lp62
I0
aI0
aI0
aI1
ababsg27
F7.812
sg28
(lp63
sg30
I00
sg31
g1
(g8
g3
Ntp64
Rp65
(lp66
I21
aI800000000
absg35
F30.05
sbag1
(g2
g3
Ntp67
Rp68
(dp69
g7
g10
sg12
S'WayPoint2'
p70
sg14
g1
(g15
g3
Ntp71
Rp72
(lp73
g1
(g19
g3
Ntp74
Rp75
(lp76
F-3.1999999999999993
aF-3.349999999999998
aF0.0
abag1
(g23
g3
Ntp77
Rp78
(lp79
I0
aI0
aI0
aI1
ababsg27
F11.36
sg28
(lp80
sg30
I00
sg31
g1
(g8
g3
Ntp81
Rp82
(lp83
I27
aI804000000
absg35
F43.69
sbag1
(g2
g3
Ntp84
Rp85
(dp86
g7
g10
sg12
S'WayPoint3'
p87
sg14
g1
(g15
g3
Ntp88
Rp89
(lp90
g1
(g19
g3
Ntp91
Rp92
(lp93
F0.0
aF-3.349999999999998
aF0.0
abag1
(g23
g3
Ntp94
Rp95
(lp96
I0
aI0
aI0
aI1
ababsg27
F0.0
sg28
(lp97
sg30
I01
sg31
g10
sg35
I0
sbag1
(g2
g3
Ntp98
Rp99
(dp100
g7
g1
(g8
g3
Ntp101
Rp102
(lp103
I48
aI600000000
absg12
S'WayPoint4'
p104
sg14
g1
(g15
g3
Ntp105
Rp106
(lp107
g1
(g19
g3
Ntp108
Rp109
(lp110
F2.3500000000000014
aF-3.2499999999999982
aF0.0
abag1
(g23
g3
Ntp111
Rp112
(lp113
I0
aI0
aI0
aI1
ababsg27
F0.0
sg28
(lp114
g1
(cdestination
Observation
p115
g3
Ntp116
Rp117
(dp118
S'idleness'
p119
g1
(cdestination
Idleness
p120
g3
Ntp121
Rp122
(dp123
S'_Idleness__true_idl'
p124
F48.6
sS'_Idleness__estim_idl'
p125
F43.13
sS'_Idleness__remaining_idl'
p126
F45.997
sbsg27
F11.214
sbasg30
I01
sg31
g102
sg35
I0
sbag1
(g2
g3
Ntp127
Rp128
(dp129
g7
g10
sg12
S'WayPoint5'
p130
sg14
g1
(g15
g3
Ntp131
Rp132
(lp133
g1
(g19
g3
Ntp134
Rp135
(lp136
F5.4
aF-3.4499999999999975
aF0.0
abag1
(g23
g3
Ntp137
Rp138
(lp139
I0
aI0
aI0
aI1
ababsg27
F8.352
sg28
(lp140
sg30
I00
sg31
g1
(g8
g3
Ntp141
Rp142
(lp143
I49
aI0
absg35
F32.12
sbag1
(g2
g3
Ntp144
Rp145
(dp146
g7
g1
(g8
g3
Ntp147
Rp148
(lp149
I26
aI800000000
absg12
S'WayPoint6'
p150
sg14
g1
(g15
g3
Ntp151
Rp152
(lp153
g1
(g19
g3
Ntp154
Rp155
(lp156
F4.850000000000001
aF-0.7499999999999982
aF0.0
abag1
(g23
g3
Ntp157
Rp158
(lp159
I0
aI0
aI0
aI1
ababsg27
F0.0
sg28
(lp160
g1
(g115
g3
Ntp161
Rp162
(dp163
g119
g1
(g120
g3
Ntp164
Rp165
(dp166
g124
F26.8
sg125
F21.79
sg126
F24.0
sbsg27
F5.667
sbasg30
I01
sg31
g148
sg35
I0
sbag1
(g2
g3
Ntp167
Rp168
(dp169
g7
g1
(g8
g3
Ntp170
Rp171
(lp172
I20
aI800000000
absg12
S'WayPoint7'
p173
sg14
g1
(g15
g3
Ntp174
Rp175
(lp176
g1
(g19
g3
Ntp177
Rp178
(lp179
F1.0500000000000007
aF-0.6999999999999975
aF0.0
abag1
(g23
g3
Ntp180
Rp181
(lp182
I0
aI0
aI0
aI1
ababsg27
F0.0
sg28
(lp183
g1
(g115
g3
Ntp184
Rp185
(dp186
g119
g1
(g120
g3
Ntp187
Rp188
(dp189
g124
F20.8
sg125
F15.13
sg126
F18.0
sbsg27
F3.933
sbasg30
I01
sg31
g171
sg35
I0
sbag1
(g2
g3
Ntp190
Rp191
(dp192
g7
g10
sg12
S'WayPoint8'
p193
sg14
g1
(g15
g3
Ntp194
Rp195
(lp196
g1
(g19
g3
Ntp197
Rp198
(lp199
F-3.05
aF-0.5999999999999979
aF0.0
abag1
(g23
g3
Ntp200
Rp201
(lp202
I0
aI0
aI0
aI1
ababsg27
F10.848
sg28
(lp203
sg30
I00
sg31
g33
sg35
F41.72
sbag1
(g2
g3
Ntp204
Rp205
(dp206
g7
g10
sg12
S'WayPoint9'
p207
sg14
g1
(g15
g3
Ntp208
Rp209
(lp210
g1
(g19
g3
Ntp211
Rp212
(lp213
F-1.5
aF2.700000000000003
aF0.0
abag1
(g23
g3
Ntp214
Rp215
(lp216
I0
aI0
aI0
aI1
ababsg27
F9.247
sg28
(lp217
sg30
I00
sg31
g33
sg35
F35.56
sba.