(lp0
ccopy_reg
_reconstructor
p1
(cdestination
Destination
p2
c__builtin__
object
p3
Ntp4
Rp5
(dp6
S'_Destination__latest_usage'
p7
g1
(crospy.rostime
Time
p8
g3
Ntp9
Rp10
(lp11
I58
aI200000000
absS'name'
p12
S'WayPoint1'
p13
sS'pose'
p14
g1
(cgeometry_msgs.msg._Pose
Pose
p15
g3
Ntp16
Rp17
(lp18
g1
(cgeometry_msgs.msg._Point
Point
p19
g3
Ntp20
Rp21
(lp22
F-6.75
aF-2.6999999999999975
aF0.0
abag1
(cgeometry_msgs.msg._Quaternion
Quaternion
p23
g3
Ntp24
Rp25
(lp26
I0
aI0
aI0
aI1
ababsS'path_len'
p27
F0.0
sS'_Destination__stats'
p28
(lp29
g1
(cdestination
Observation
p30
g3
Ntp31
Rp32
(dp33
S'idleness'
p34
g1
(cdestination
Idleness
p35
g3
Ntp36
Rp37
(dp38
S'_Idleness__true_idl'
p39
F58.2
sS'_Idleness__estim_idl'
p40
F19.39
sS'_Idleness__remaining_idl'
p41
F19.999
sbsg27
F5.041
sbasS'_Destination__available'
p42
I01
sS'_Destination__remaining_idl'
p43
g10
sS'estim_idl'
p44
I0
sbag1
(g2
g3
Ntp45
Rp46
(dp47
g7
g1
(g8
g3
Ntp48
Rp49
(lp50
I0
aI0
absg12
S'WayPoint10'
p51
sg14
g1
(g15
g3
Ntp52
Rp53
(lp54
g1
(g19
g3
Ntp55
Rp56
(lp57
F1.8500000000000014
aF2.8500000000000023
aF0.0
abag1
(g23
g3
Ntp58
Rp59
(lp60
I0
aI0
aI0
aI1
ababsg27
F7.62
sg28
(lp61
sg42
I00
sg43
g1
(g8
g3
Ntp62
Rp63
(lp64
I50
aI0
absg44
F29.31
sbag1
(g2
g3
Ntp65
Rp66
(dp67
g7
g1
(g8
g3
Ntp68
Rp69
(lp70
I41
aI0
absg12
S'WayPoint11'
p71
sg14
g1
(g15
g3
Ntp72
Rp73
(lp74
g1
(g19
g3
Ntp75
Rp76
(lp77
F6.600000000000001
aF3.450000000000003
aF0.0
abag1
(g23
g3
Ntp78
Rp79
(lp80
I0
aI0
aI0
aI1
ababsg27
F0.0
sg28
(lp81
g1
(g30
g3
Ntp82
Rp83
(dp84
g34
g1
(g35
g3
Ntp85
Rp86
(dp87
g39
F41.0
sg40
F33.64
sg41
F38.0
sbsg27
F8.748
sbasg42
I01
sg43
g69
sg44
I0
sbag1
(g2
g3
Ntp88
Rp89
(dp90
g7
g49
sg12
S'WayPoint2'
p91
sg14
g1
(g15
g3
Ntp92
Rp93
(lp94
g1
(g19
g3
Ntp95
Rp96
(lp97
F-3.1999999999999993
aF-3.349999999999998
aF0.0
abag1
(g23
g3
Ntp98
Rp99
(lp100
I0
aI0
aI0
aI1
ababsg27
F7.089
sg28
(lp101
sg42
I00
sg43
g1
(g8
g3
Ntp102
Rp103
(lp104
I2
aI800000000
absg44
F27.26
sbag1
(g2
g3
Ntp105
Rp106
(dp107
g7
g49
sg12
S'WayPoint3'
p108
sg14
g1
(g15
g3
Ntp109
Rp110
(lp111
g1
(g19
g3
Ntp112
Rp113
(lp114
F0.0
aF-3.349999999999998
aF0.0
abag1
(g23
g3
Ntp115
Rp116
(lp117
I0
aI0
aI0
aI1
ababsg27
F9.6
sg28
(lp118
sg42
I00
sg43
g63
sg44
F36.92
sbag1
(g2
g3
Ntp119
Rp120
(dp121
g7
g1
(g8
g3
Ntp122
Rp123
(lp124
I49
aI0
absg12
S'WayPoint4'
p125
sg14
g1
(g15
g3
Ntp126
Rp127
(lp128
g1
(g19
g3
Ntp129
Rp130
(lp131
F2.3500000000000014
aF-3.2499999999999982
aF0.0
abag1
(g23
g3
Ntp132
Rp133
(lp134
I0
aI0
aI0
aI1
ababsg27
F0.0
sg28
(lp135
g1
(g30
g3
Ntp136
Rp137
(dp138
g34
g1
(g35
g3
Ntp139
Rp140
(dp141
g39
F49.0
sg40
F43.12
sg41
F46.0
sbsg27
F11.211
sbasg42
I01
sg43
g123
sg44
I0
sbag1
(g2
g3
Ntp142
Rp143
(dp144
g7
g123
sg12
S'WayPoint5'
p145
sg14
g1
(g15
g3
Ntp146
Rp147
(lp148
g1
(g19
g3
Ntp149
Rp150
(lp151
F5.4
aF-3.4499999999999975
aF0.0
abag1
(g23
g3
Ntp152
Rp153
(lp154
I0
aI0
aI0
aI1
ababsg27
F15.845
sg28
(lp155
g1
(g30
g3
Ntp156
Rp157
(dp158
g34
g1
(g35
g3
Ntp159
Rp160
(dp161
g39
F49.0
sg40
F36.93
sg41
F46.0
sbsg27
F9.603
sbasg42
I00
sg43
g1
(g8
g3
Ntp162
Rp163
(lp164
I59
aI200000000
absg44
F60.94
sbag1
(g2
g3
Ntp165
Rp166
(dp167
g7
g49
sg12
S'WayPoint6'
p168
sg14
g1
(g15
g3
Ntp169
Rp170
(lp171
g1
(g19
g3
Ntp172
Rp173
(lp174
F4.850000000000001
aF-0.7499999999999982
aF0.0
abag1
(g23
g3
Ntp175
Rp176
(lp177
I0
aI0
aI0
aI1
ababsg27
F5.667
sg28
(lp178
sg42
I00
sg43
g1
(g8
g3
Ntp179
Rp180
(lp181
I42
aI2000000
absg44
F21.79
sbag1
(g2
g3
Ntp182
Rp183
(dp184
g7
g49
sg12
S'WayPoint7'
p185
sg14
g1
(g15
g3
Ntp186
Rp187
(lp188
g1
(g19
g3
Ntp189
Rp190
(lp191
F1.0500000000000007
aF-0.6999999999999975
aF0.0
abag1
(g23
g3
Ntp192
Rp193
(lp194
I0
aI0
aI0
aI1
ababsg27
F0.0
sg28
(lp195
sg42
I01
sg43
g49
sg44
I0
sbag1
(g2
g3
Ntp196
Rp197
(dp198
g7
g1
(g8
g3
Ntp199
Rp200
(lp201
I37
aI600000000
absg12
S'WayPoint8'
p202
sg14
g1
(g15
g3
Ntp203
Rp204
(lp205
g1
(g19
g3
Ntp206
Rp207
(lp208
F-3.05
aF-0.5999999999999979
aF0.0
abag1
(g23
g3
Ntp209
Rp210
(lp211
I0
aI0
aI0
aI1
ababsg27
F0.0
sg28
(lp212
g1
(g30
g3
Ntp213
Rp214
(dp215
g34
g1
(g35
g3
Ntp216
Rp217
(dp218
g39
F37.6
sg40
F27.75
sg41
F35.0
sbsg27
F7.214
sbasg42
I01
sg43
g200
sg44
I0
sbag1
(g2
g3
Ntp219
Rp220
(dp221
g7
g49
sg12
S'WayPoint9'
p222
sg14
g1
(g15
g3
Ntp223
Rp224
(lp225
g1
(g19
g3
Ntp226
Rp227
(lp228
F-1.5
aF2.700000000000003
aF0.0
abag1
(g23
g3
Ntp229
Rp230
(lp231
I0
aI0
aI0
aI1
ababsg27
F14.475
sg28
(lp232
sg42
I00
sg43
g1
(g8
g3
Ntp233
Rp234
(lp235
I2
aI600000000
absg44
F55.67
sba.