(lp0
ccopy_reg
_reconstructor
p1
(cdestination
Destination
p2
c__builtin__
object
p3
Ntp4
Rp5
(dp6
S'_Destination__latest_usage'
p7
g1
(crospy.rostime
Time
p8
g3
Ntp9
Rp10
(lp11
I0
aI0
absS'name'
p12
S'WayPoint1'
p13
sS'pose'
p14
g1
(cgeometry_msgs.msg._Pose
Pose
p15
g3
Ntp16
Rp17
(lp18
g1
(cgeometry_msgs.msg._Point
Point
p19
g3
Ntp20
Rp21
(lp22
F-6.75
aF-2.6999999999999975
aF0.0
abag1
(cgeometry_msgs.msg._Quaternion
Quaternion
p23
g3
Ntp24
Rp25
(lp26
I0
aI0
aI0
aI1
ababsS'path_len'
p27
F12.128
sS'_Destination__stats'
p28
(lp29
sS'_Destination__available'
p30
I00
sS'_Destination__remaining_idl'
p31
g1
(g8
g3
Ntp32
Rp33
(lp34
I52
aI200000000
absS'estim_idl'
p35
F46.65
sbag1
(g2
g3
Ntp36
Rp37
(dp38
g7
g1
(g8
g3
Ntp39
Rp40
(lp41
I51
aI200000000
absg12
S'WayPoint10'
p42
sg14
g1
(g15
g3
Ntp43
Rp44
(lp45
g1
(g19
g3
Ntp46
Rp47
(lp48
F1.8500000000000014
aF2.8500000000000023
aF0.0
abag1
(g23
g3
Ntp49
Rp50
(lp51
I0
aI0
aI0
aI1
ababsg27
F0.0
sg28
(lp52
g1
(cdestination
Observation
p53
g3
Ntp54
Rp55
(dp56
S'idleness'
p57
g1
(cdestination
Idleness
p58
g3
Ntp59
Rp60
(dp61
S'_Idleness__true_idl'
p62
F51.2
sS'_Idleness__estim_idl'
p63
F14.97
sS'_Idleness__remaining_idl'
p64
F15.999
sbsg27
F3.893
sbasg30
I01
sg31
g40
sg35
I0
sbag1
(g2
g3
Ntp65
Rp66
(dp67
g7
g1
(g8
g3
Ntp68
Rp69
(lp70
I52
aI802000000
absg12
S'WayPoint11'
p71
sg14
g1
(g15
g3
Ntp72
Rp73
(lp74
g1
(g19
g3
Ntp75
Rp76
(lp77
F6.600000000000001
aF3.450000000000003
aF0.0
abag1
(g23
g3
Ntp78
Rp79
(lp80
I0
aI0
aI0
aI1
ababsg27
F0.0
sg28
(lp81
g1
(g53
g3
Ntp82
Rp83
(dp84
g57
g1
(g58
g3
Ntp85
Rp86
(dp87
g62
F52.802
sg63
F40.75
sg64
F50.002
sbsg27
F10.596
sbasg30
I01
sg31
g69
sg35
I0
sbag1
(g2
g3
Ntp88
Rp89
(dp90
g7
g10
sg12
S'WayPoint2'
p91
sg14
g1
(g15
g3
Ntp92
Rp93
(lp94
g1
(g19
g3
Ntp95
Rp96
(lp97
F-3.1999999999999993
aF-3.349999999999998
aF0.0
abag1
(g23
g3
Ntp98
Rp99
(lp100
I0
aI0
aI0
aI1
ababsg27
F0.0
sg28
(lp101
sg30
I01
sg31
g10
sg35
I0
sbag1
(g2
g3
Ntp102
Rp103
(dp104
g7
g1
(g8
g3
Ntp105
Rp106
(lp107
I32
aI205000000
absg12
S'WayPoint3'
p108
sg14
g1
(g15
g3
Ntp109
Rp110
(lp111
g1
(g19
g3
Ntp112
Rp113
(lp114
F0.0
aF-3.349999999999998
aF0.0
abag1
(g23
g3
Ntp115
Rp116
(lp117
I0
aI0
aI0
aI1
ababsg27
F0.0
sg28
(lp118
g1
(g53
g3
Ntp119
Rp120
(dp121
g57
g1
(g58
g3
Ntp122
Rp123
(dp124
g62
F32.205
sg63
F25.97
sg64
F29.005
sbsg27
F6.752
sbasg30
I01
sg31
g106
sg35
I0
sbag1
(g2
g3
Ntp125
Rp126
(dp127
g7
g10
sg12
S'WayPoint4'
p128
sg14
g1
(g15
g3
Ntp129
Rp130
(lp131
g1
(g19
g3
Ntp132
Rp133
(lp134
F2.3500000000000014
aF-3.2499999999999982
aF0.0
abag1
(g23
g3
Ntp135
Rp136
(lp137
I0
aI0
aI0
aI1
ababsg27
F6.592
sg28
(lp138
sg30
I00
sg31
g1
(g8
g3
Ntp139
Rp140
(lp141
I33
aI201000000
absg35
F25.35
sbag1
(g2
g3
Ntp142
Rp143
(dp144
g7
g10
sg12
S'WayPoint5'
p145
sg14
g1
(g15
g3
Ntp146
Rp147
(lp148
g1
(g19
g3
Ntp149
Rp150
(lp151
F5.4
aF-3.4499999999999975
aF0.0
abag1
(g23
g3
Ntp152
Rp153
(lp154
I0
aI0
aI0
aI1
ababsg27
F13.557
sg28
(lp155
sg30
I00
sg31
g1
(g8
g3
Ntp156
Rp157
(lp158
I2
aI800000000
absg35
F52.14
sbag1
(g2
g3
Ntp159
Rp160
(dp161
g7
g10
sg12
S'WayPoint6'
p162
sg14
g1
(g15
g3
Ntp163
Rp164
(lp165
g1
(g19
g3
Ntp166
Rp167
(lp168
F4.850000000000001
aF-0.7499999999999982
aF0.0
abag1
(g23
g3
Ntp169
Rp170
(lp171
I0
aI0
aI0
aI1
ababsg27
F5.667
sg28
(lp172
sg30
I00
sg31
g1
(g8
g3
Ntp173
Rp174
(lp175
I2
aI601000000
absg35
F21.79
sbag1
(g2
g3
Ntp176
Rp177
(dp178
g7
g1
(g8
g3
Ntp179
Rp180
(lp181
I34
aI801000000
absg12
S'WayPoint7'
p182
sg14
g1
(g15
g3
Ntp183
Rp184
(lp185
g1
(g19
g3
Ntp186
Rp187
(lp188
F1.0500000000000007
aF-0.6999999999999975
aF0.0
abag1
(g23
g3
Ntp189
Rp190
(lp191
I0
aI0
aI0
aI1
ababsg27
F0.0
sg28
(lp192
g1
(g53
g3
Ntp193
Rp194
(dp195
g57
g1
(g58
g3
Ntp196
Rp197
(dp198
g62
F34.801
sg63
F28.71
sg64
F32.001
sbsg27
F7.464
sbasg30
I01
sg31
g180
sg35
I0
sbag1
(g2
g3
Ntp199
Rp200
(dp201
g7
g10
sg12
S'WayPoint8'
p202
sg14
g1
(g15
g3
Ntp203
Rp204
(lp205
g1
(g19
g3
Ntp206
Rp207
(lp208
F-3.05
aF-0.5999999999999979
aF0.0
abag1
(g23
g3
Ntp209
Rp210
(lp211
I0
aI0
aI0
aI1
ababsg27
F10.851
sg28
(lp212
sg30
I00
sg31
g1
(g8
g3
Ntp213
Rp214
(lp215
I3
aI200000000
absg35
F41.73
sbag1
(g2
g3
Ntp216
Rp217
(dp218
g7
g10
sg12
S'WayPoint9'
p219
sg14
g1
(g15
g3
Ntp220
Rp221
(lp222
g1
(g19
g3
Ntp223
Rp224
(lp225
F-1.5
aF2.700000000000003
aF0.0
abag1
(g23
g3
Ntp226
Rp227
(lp228
I0
aI0
aI0
aI1
ababsg27
F14.644
sg28
(lp229
sg30
I00
sg31
g1
(g8
g3
Ntp230
Rp231
(lp232
I53
aI200000000
absg35
F56.32
sba.