(lp0
ccopy_reg
_reconstructor
p1
(cdestination
Destination
p2
c__builtin__
object
p3
Ntp4
Rp5
(dp6
S'_Destination__latest_usage'
p7
g1
(crospy.rostime
Time
p8
g3
Ntp9
Rp10
(lp11
I0
aI0
absS'name'
p12
S'WayPoint1'
p13
sS'pose'
p14
g1
(cgeometry_msgs.msg._Pose
Pose
p15
g3
Ntp16
Rp17
(lp18
g1
(cgeometry_msgs.msg._Point
Point
p19
g3
Ntp20
Rp21
(lp22
F-6.75
aF-2.6999999999999975
aF0.0
abag1
(cgeometry_msgs.msg._Quaternion
Quaternion
p23
g3
Ntp24
Rp25
(lp26
I0
aI0
aI0
aI1
ababsS'path_len'
p27
F0.0
sS'_Destination__stats'
p28
(lp29
sS'_Destination__available'
p30
I01
sS'_Destination__remaining_idl'
p31
g10
sS'estim_idl'
p32
I0
sbag1
(g2
g3
Ntp33
Rp34
(dp35
g7
g1
(g8
g3
Ntp36
Rp37
(lp38
I31
aI1000000
absg12
S'WayPoint10'
p39
sg14
g1
(g15
g3
Ntp40
Rp41
(lp42
g1
(g19
g3
Ntp43
Rp44
(lp45
F1.8500000000000014
aF2.8500000000000023
aF0.0
abag1
(g23
g3
Ntp46
Rp47
(lp48
I0
aI0
aI0
aI1
ababsg27
F0.0
sg28
(lp49
g1
(cdestination
Observation
p50
g3
Ntp51
Rp52
(dp53
S'idleness'
p54
g1
(cdestination
Idleness
p55
g3
Ntp56
Rp57
(dp58
S'_Idleness__true_idl'
p59
F31.001
sS'_Idleness__estim_idl'
p60
F26.14
sS'_Idleness__remaining_idl'
p61
F27.001
sbsg27
F6.797
sbasg30
I01
sg31
g37
sg32
I0
sbag1
(g2
g3
Ntp62
Rp63
(dp64
g7
g10
sg12
S'WayPoint11'
p65
sg14
g1
(g15
g3
Ntp66
Rp67
(lp68
g1
(g19
g3
Ntp69
Rp70
(lp71
F6.600000000000001
aF3.450000000000003
aF0.0
abag1
(g23
g3
Ntp72
Rp73
(lp74
I0
aI0
aI0
aI1
ababsg27
F11.334
sg28
(lp75
sg30
I00
sg31
g1
(g8
g3
Ntp76
Rp77
(lp78
I4
aI0
absg32
F43.59
sbag1
(g2
g3
Ntp79
Rp80
(dp81
g7
g10
sg12
S'WayPoint2'
p82
sg14
g1
(g15
g3
Ntp83
Rp84
(lp85
g1
(g19
g3
Ntp86
Rp87
(lp88
F-3.1999999999999993
aF-3.349999999999998
aF0.0
abag1
(g23
g3
Ntp89
Rp90
(lp91
I0
aI0
aI0
aI1
ababsg27
F11.36
sg28
(lp92
sg30
I00
sg31
g1
(g8
g3
Ntp93
Rp94
(lp95
I4
aI200000000
absg32
F43.69
sbag1
(g2
g3
Ntp96
Rp97
(dp98
g7
g10
sg12
S'WayPoint3'
p99
sg14
g1
(g15
g3
Ntp100
Rp101
(lp102
g1
(g19
g3
Ntp103
Rp104
(lp105
F0.0
aF-3.349999999999998
aF0.0
abag1
(g23
g3
Ntp106
Rp107
(lp108
I0
aI0
aI0
aI1
ababsg27
F11.453
sg28
(lp109
sg30
I00
sg31
g77
sg32
F44.05
sbag1
(g2
g3
Ntp110
Rp111
(dp112
g7
g1
(g8
g3
Ntp113
Rp114
(lp115
I47
aI201000000
absg12
S'WayPoint4'
p116
sg14
g1
(g15
g3
Ntp117
Rp118
(lp119
g1
(g19
g3
Ntp120
Rp121
(lp122
F2.3500000000000014
aF-3.2499999999999982
aF0.0
abag1
(g23
g3
Ntp123
Rp124
(lp125
I0
aI0
aI0
aI1
ababsg27
F0.0
sg28
(lp126
g1
(g50
g3
Ntp127
Rp128
(dp129
g54
g1
(g55
g3
Ntp130
Rp131
(dp132
g59
F47.201
sg60
F31.52
sg61
F43.001
sbsg27
F8.195
sbasg30
I01
sg31
g114
sg32
I0
sbag1
(g2
g3
Ntp133
Rp134
(dp135
g7
g10
sg12
S'WayPoint5'
p136
sg14
g1
(g15
g3
Ntp137
Rp138
(lp139
g1
(g19
g3
Ntp140
Rp141
(lp142
F5.4
aF-3.4499999999999975
aF0.0
abag1
(g23
g3
Ntp143
Rp144
(lp145
I0
aI0
aI0
aI1
ababsg27
F14.2
sg28
(lp146
sg30
I00
sg31
g1
(g8
g3
Ntp147
Rp148
(lp149
I3
aI600000000
absg32
F54.62
sbag1
(g2
g3
Ntp150
Rp151
(dp152
g7
g10
sg12
S'WayPoint6'
p153
sg14
g1
(g15
g3
Ntp154
Rp155
(lp156
g1
(g19
g3
Ntp157
Rp158
(lp159
F4.850000000000001
aF-0.7499999999999982
aF0.0
abag1
(g23
g3
Ntp160
Rp161
(lp162
I0
aI0
aI0
aI1
ababsg27
F5.667
sg28
(lp163
sg30
I00
sg31
g148
sg32
F21.79
sbag1
(g2
g3
Ntp164
Rp165
(dp166
g7
g10
sg12
S'WayPoint7'
p167
sg14
g1
(g15
g3
Ntp168
Rp169
(lp170
g1
(g19
g3
Ntp171
Rp172
(lp173
F1.0500000000000007
aF-0.6999999999999975
aF0.0
abag1
(g23
g3
Ntp174
Rp175
(lp176
I0
aI0
aI0
aI1
ababsg27
F6.879
sg28
(lp177
sg30
I00
sg31
g148
sg32
F26.46
sbag1
(g2
g3
Ntp178
Rp179
(dp180
g7
g10
sg12
S'WayPoint8'
p181
sg14
g1
(g15
g3
Ntp182
Rp183
(lp184
g1
(g19
g3
Ntp185
Rp186
(lp187
F-3.05
aF-0.5999999999999979
aF0.0
abag1
(g23
g3
Ntp188
Rp189
(lp190
I0
aI0
aI0
aI1
ababsg27
F8.076
sg28
(lp191
sg30
I00
sg31
g1
(g8
g3
Ntp192
Rp193
(lp194
I48
aI201000000
absg32
F31.06
sbag1
(g2
g3
Ntp195
Rp196
(dp197
g7
g10
sg12
S'WayPoint9'
p198
sg14
g1
(g15
g3
Ntp199
Rp200
(lp201
g1
(g19
g3
Ntp202
Rp203
(lp204
F-1.5
aF2.700000000000003
aF0.0
abag1
(g23
g3
Ntp205
Rp206
(lp207
I0
aI0
aI0
aI1
ababsg27
F9.892
sg28
(lp208
sg30
I00
sg31
g1
(g8
g3
Ntp209
Rp210
(lp211
I32
aI2000000
absg32
F38.05
sba.