(lp0
ccopy_reg
_reconstructor
p1
(cdestination
Destination
p2
c__builtin__
object
p3
Ntp4
Rp5
(dp6
S'_Destination__latest_usage'
p7
g1
(crospy.rostime
Time
p8
g3
Ntp9
Rp10
(lp11
I0
aI0
absS'name'
p12
S'WayPoint1'
p13
sS'pose'
p14
g1
(cgeometry_msgs.msg._Pose
Pose
p15
g3
Ntp16
Rp17
(lp18
g1
(cgeometry_msgs.msg._Point
Point
p19
g3
Ntp20
Rp21
(lp22
F-6.75
aF-2.6999999999999975
aF0.0
abag1
(cgeometry_msgs.msg._Quaternion
Quaternion
p23
g3
Ntp24
Rp25
(lp26
I0
aI0
aI0
aI1
ababsS'path_len'
p27
F11.473
sS'_Destination__stats'
p28
(lp29
sS'_Destination__available'
p30
I00
sS'_Destination__remaining_idl'
p31
g1
(g8
g3
Ntp32
Rp33
(lp34
I4
aI0
absS'estim_idl'
p35
F44.13
sbag1
(g2
g3
Ntp36
Rp37
(dp38
g7
g1
(g8
g3
Ntp39
Rp40
(lp41
I49
aI401000000
absg12
S'WayPoint10'
p42
sg14
g1
(g15
g3
Ntp43
Rp44
(lp45
g1
(g19
g3
Ntp46
Rp47
(lp48
F1.8500000000000014
aF2.8500000000000023
aF0.0
abag1
(g23
g3
Ntp49
Rp50
(lp51
I0
aI0
aI0
aI1
ababsg27
F0.0
sg28
(lp52
g1
(cdestination
Observation
p53
g3
Ntp54
Rp55
(dp56
S'idleness'
p57
g1
(cdestination
Idleness
p58
g3
Ntp59
Rp60
(dp61
S'_Idleness__true_idl'
p62
F49.401
sS'_Idleness__estim_idl'
p63
F39.73
sS'_Idleness__remaining_idl'
p64
F47.0
sbsg27
F10.33
sbasg30
I01
sg31
g40
sg35
I0
sbag1
(g2
g3
Ntp65
Rp66
(dp67
g7
g10
sg12
S'WayPoint11'
p68
sg14
g1
(g15
g3
Ntp69
Rp70
(lp71
g1
(g19
g3
Ntp72
Rp73
(lp74
F6.600000000000001
aF3.450000000000003
aF0.0
abag1
(g23
g3
Ntp75
Rp76
(lp77
I0
aI0
aI0
aI1
ababsg27
F12.067
sg28
(lp78
sg30
I00
sg31
g1
(g8
g3
Ntp79
Rp80
(lp81
I50
aI400000000
absg35
F46.41
sbag1
(g2
g3
Ntp82
Rp83
(dp84
g7
g10
sg12
S'WayPoint2'
p85
sg14
g1
(g15
g3
Ntp86
Rp87
(lp88
g1
(g19
g3
Ntp89
Rp90
(lp91
F-3.1999999999999993
aF-3.349999999999998
aF0.0
abag1
(g23
g3
Ntp92
Rp93
(lp94
I0
aI0
aI0
aI1
ababsg27
F10.439
sg28
(lp95
sg30
I00
sg31
g1
(g8
g3
Ntp96
Rp97
(lp98
I4
aI203000000
absg35
F40.15
sbag1
(g2
g3
Ntp99
Rp100
(dp101
g7
g10
sg12
S'WayPoint3'
p102
sg14
g1
(g15
g3
Ntp103
Rp104
(lp105
g1
(g19
g3
Ntp106
Rp107
(lp108
F0.0
aF-3.349999999999998
aF0.0
abag1
(g23
g3
Ntp109
Rp110
(lp111
I0
aI0
aI0
aI1
ababsg27
F0.0
sg28
(lp112
sg30
I01
sg31
g10
sg35
I0
sbag1
(g2
g3
Ntp113
Rp114
(dp115
g7
g10
sg12
S'WayPoint4'
p116
sg14
g1
(g15
g3
Ntp117
Rp118
(lp119
g1
(g19
g3
Ntp120
Rp121
(lp122
F2.3500000000000014
aF-3.2499999999999982
aF0.0
abag1
(g23
g3
Ntp123
Rp124
(lp125
I0
aI0
aI0
aI1
ababsg27
F0.0
sg28
(lp126
sg30
I01
sg31
g10
sg35
I0
sbag1
(g2
g3
Ntp127
Rp128
(dp129
g7
g10
sg12
S'WayPoint5'
p130
sg14
g1
(g15
g3
Ntp131
Rp132
(lp133
g1
(g19
g3
Ntp134
Rp135
(lp136
F5.4
aF-3.4499999999999975
aF0.0
abag1
(g23
g3
Ntp137
Rp138
(lp139
I0
aI0
aI0
aI1
ababsg27
F14.201
sg28
(lp140
sg30
I00
sg31
g97
sg35
F54.62
sbag1
(g2
g3
Ntp141
Rp142
(dp143
g7
g10
sg12
S'WayPoint6'
p144
sg14
g1
(g15
g3
Ntp145
Rp146
(lp147
g1
(g19
g3
Ntp148
Rp149
(lp150
F4.850000000000001
aF-0.7499999999999982
aF0.0
abag1
(g23
g3
Ntp151
Rp152
(lp153
I0
aI0
aI0
aI1
ababsg27
F10.804
sg28
(lp154
sg30
I00
sg31
g97
sg35
F41.55
sbag1
(g2
g3
Ntp155
Rp156
(dp157
g7
g10
sg12
S'WayPoint7'
p158
sg14
g1
(g15
g3
Ntp159
Rp160
(lp161
g1
(g19
g3
Ntp162
Rp163
(lp164
F1.0500000000000007
aF-0.6999999999999975
aF0.0
abag1
(g23
g3
Ntp165
Rp166
(lp167
I0
aI0
aI0
aI1
ababsg27
F7.737
sg28
(lp168
sg30
I00
sg31
g1
(g8
g3
Ntp169
Rp170
(lp171
I2
aI600000000
absg35
F29.76
sbag1
(g2
g3
Ntp172
Rp173
(dp174
g7
g10
sg12
S'WayPoint8'
p175
sg14
g1
(g15
g3
Ntp176
Rp177
(lp178
g1
(g19
g3
Ntp179
Rp180
(lp181
F-3.05
aF-0.5999999999999979
aF0.0
abag1
(g23
g3
Ntp182
Rp183
(lp184
I0
aI0
aI0
aI1
ababsg27
F5.05
sg28
(lp185
sg30
I00
sg31
g33
sg35
F19.42
sbag1
(g2
g3
Ntp186
Rp187
(dp188
g7
g10
sg12
S'WayPoint9'
p189
sg14
g1
(g15
g3
Ntp190
Rp191
(lp192
g1
(g19
g3
Ntp193
Rp194
(lp195
F-1.5
aF2.700000000000003
aF0.0
abag1
(g23
g3
Ntp196
Rp197
(lp198
I0
aI0
aI0
aI1
ababsg27
F10.801
sg28
(lp199
sg30
I00
sg31
g97
sg35
F41.54
sba.