(lp0
ccopy_reg
_reconstructor
p1
(cdestination
Destination
p2
c__builtin__
object
p3
Ntp4
Rp5
(dp6
S'_Destination__latest_usage'
p7
g1
(crospy.rostime
Time
p8
g3
Ntp9
Rp10
(lp11
I0
aI0
absS'name'
p12
S'WayPoint1'
p13
sS'pose'
p14
g1
(cgeometry_msgs.msg._Pose
Pose
p15
g3
Ntp16
Rp17
(lp18
g1
(cgeometry_msgs.msg._Point
Point
p19
g3
Ntp20
Rp21
(lp22
F-6.75
aF-2.6999999999999975
aF0.0
abag1
(cgeometry_msgs.msg._Quaternion
Quaternion
p23
g3
Ntp24
Rp25
(lp26
I0
aI0
aI0
aI1
ababsS'path_len'
p27
F16.709
sS'_Destination__stats'
p28
(lp29
sS'_Destination__available'
p30
I00
sS'_Destination__remaining_idl'
p31
g1
(g8
g3
Ntp32
Rp33
(lp34
I3
aI0
absS'estim_idl'
p35
F64.27
sbag1
(g2
g3
Ntp36
Rp37
(dp38
g7
g1
(g8
g3
Ntp39
Rp40
(lp41
I51
aI0
absg12
S'WayPoint10'
p42
sg14
g1
(g15
g3
Ntp43
Rp44
(lp45
g1
(g19
g3
Ntp46
Rp47
(lp48
F1.8500000000000014
aF2.8500000000000023
aF0.0
abag1
(g23
g3
Ntp49
Rp50
(lp51
I0
aI0
aI0
aI1
ababsg27
F0.0
sg28
(lp52
g1
(cdestination
Observation
p53
g3
Ntp54
Rp55
(dp56
S'idleness'
p57
g1
(cdestination
Idleness
p58
g3
Ntp59
Rp60
(dp61
S'_Idleness__true_idl'
p62
F51.0
sS'_Idleness__estim_idl'
p63
F40.57
sS'_Idleness__remaining_idl'
p64
F48.0
sbsg27
F10.548
sbasg30
I01
sg31
g40
sg35
I0
sbag1
(g2
g3
Ntp65
Rp66
(dp67
g7
g10
sg12
S'WayPoint11'
p68
sg14
g1
(g15
g3
Ntp69
Rp70
(lp71
g1
(g19
g3
Ntp72
Rp73
(lp74
F6.600000000000001
aF3.450000000000003
aF0.0
abag1
(g23
g3
Ntp75
Rp76
(lp77
I0
aI0
aI0
aI1
ababsg27
F14.522
sg28
(lp78
sg30
I00
sg31
g1
(g8
g3
Ntp79
Rp80
(lp81
I2
aI600000000
absg35
F55.85
sbag1
(g2
g3
Ntp82
Rp83
(dp84
g7
g1
(g8
g3
Ntp85
Rp86
(lp87
I33
aI402000000
absg12
S'WayPoint2'
p88
sg14
g1
(g15
g3
Ntp89
Rp90
(lp91
g1
(g19
g3
Ntp92
Rp93
(lp94
F-3.1999999999999993
aF-3.349999999999998
aF0.0
abag1
(g23
g3
Ntp95
Rp96
(lp97
I0
aI0
aI0
aI1
ababsg27
F10.345
sg28
(lp98
g1
(g53
g3
Ntp99
Rp100
(dp101
g57
g1
(g58
g3
Ntp102
Rp103
(dp104
g62
F33.402
sg63
F12.96
sg64
F13.002
sbsg27
F3.369
sbasg30
I00
sg31
g1
(g8
g3
Ntp105
Rp106
(lp107
I51
aI601000000
absg35
F39.79
sbag1
(g2
g3
Ntp108
Rp109
(dp110
g7
g10
sg12
S'WayPoint3'
p111
sg14
g1
(g15
g3
Ntp112
Rp113
(lp114
g1
(g19
g3
Ntp115
Rp116
(lp117
F0.0
aF-3.349999999999998
aF0.0
abag1
(g23
g3
Ntp118
Rp119
(lp120
I0
aI0
aI0
aI1
ababsg27
F9.67
sg28
(lp121
sg30
I00
sg31
g1
(g8
g3
Ntp122
Rp123
(lp124
I34
aI400000000
absg35
F37.19
sbag1
(g2
g3
Ntp125
Rp126
(dp127
g7
g1
(g8
g3
Ntp128
Rp129
(lp130
I56
aI0
absg12
S'WayPoint4'
p131
sg14
g1
(g15
g3
Ntp132
Rp133
(lp134
g1
(g19
g3
Ntp135
Rp136
(lp137
F2.3500000000000014
aF-3.2499999999999982
aF0.0
abag1
(g23
g3
Ntp138
Rp139
(lp140
I0
aI0
aI0
aI1
ababsg27
F5.467
sg28
(lp141
g1
(g53
g3
Ntp142
Rp143
(dp144
g57
g1
(g58
g3
Ntp145
Rp146
(dp147
g62
F56.0
sg63
F21.18
sg64
F53.0
sbsg27
F5.507
sbasg30
I00
sg31
g1
(g8
g3
Ntp148
Rp149
(lp150
I58
aI601000000
absg35
F21.03
sbag1
(g2
g3
Ntp151
Rp152
(dp153
g7
g106
sg12
S'WayPoint5'
p154
sg14
g1
(g15
g3
Ntp155
Rp156
(lp157
g1
(g19
g3
Ntp158
Rp159
(lp160
F5.4
aF-3.4499999999999975
aF0.0
abag1
(g23
g3
Ntp161
Rp162
(lp163
I0
aI0
aI0
aI1
ababsg27
F0.0
sg28
(lp164
g1
(g53
g3
Ntp165
Rp166
(dp167
g57
g1
(g58
g3
Ntp168
Rp169
(dp170
g62
F51.601
sg63
F37.04
sg64
F48.001
sbsg27
F9.63
sbasg30
I01
sg31
g106
sg35
I0
sbag1
(g2
g3
Ntp171
Rp172
(dp173
g7
g1
(g8
g3
Ntp174
Rp175
(lp176
I57
aI600000000
absg12
S'WayPoint6'
p177
sg14
g1
(g15
g3
Ntp178
Rp179
(lp180
g1
(g19
g3
Ntp181
Rp182
(lp183
F4.850000000000001
aF-0.7499999999999982
aF0.0
abag1
(g23
g3
Ntp184
Rp185
(lp186
I0
aI0
aI0
aI1
ababsg27
F0.0
sg28
(lp187
g1
(g53
g3
Ntp188
Rp189
(dp190
g57
g1
(g58
g3
Ntp191
Rp192
(dp193
g62
F57.6
sg63
F29.33
sg64
F55.0
sbsg27
F7.626
sbasg30
I01
sg31
g175
sg35
I0
sbag1
(g2
g3
Ntp194
Rp195
(dp196
g7
g1
(g8
g3
Ntp197
Rp198
(lp199
I36
aI0
absg12
S'WayPoint7'
p200
sg14
g1
(g15
g3
Ntp201
Rp202
(lp203
g1
(g19
g3
Ntp204
Rp205
(lp206
F1.0500000000000007
aF-0.6999999999999975
aF0.0
abag1
(g23
g3
Ntp207
Rp208
(lp209
I0
aI0
aI0
aI1
ababsg27
F4.039
sg28
(lp210
g1
(g53
g3
Ntp211
Rp212
(dp213
g57
g1
(g58
g3
Ntp214
Rp215
(dp216
g62
F36.0
sg63
F26.05
sg64
F33.0
sbsg27
F6.772
sbasg30
I00
sg31
g1
(g8
g3
Ntp217
Rp218
(lp219
I56
aI600000000
absg35
F15.53
sbag1
(g2
g3
Ntp220
Rp221
(dp222
g7
g1
(g8
g3
Ntp223
Rp224
(lp225
I20
aI1000000
absg12
S'WayPoint8'
p226
sg14
g1
(g15
g3
Ntp227
Rp228
(lp229
g1
(g19
g3
Ntp230
Rp231
(lp232
F-3.05
aF-0.5999999999999979
aF0.0
abag1
(g23
g3
Ntp233
Rp234
(lp235
I0
aI0
aI0
aI1
ababsg27
F4.544
sg28
(lp236
g1
(g53
g3
Ntp237
Rp238
(dp239
g57
g1
(g58
g3
Ntp240
Rp241
(dp242
g62
F20.001
sg63
F19.42
sg64
F17.001
sbsg27
F5.05
sbasg30
I00
sg31
g1
(g8
g3
Ntp243
Rp244
(lp245
I36
aI600000000
absg35
F17.48
sbag1
(g2
g3
Ntp246
Rp247
(dp248
g7
g10
sg12
S'WayPoint9'
p249
sg14
g1
(g15
g3
Ntp250
Rp251
(lp252
g1
(g19
g3
Ntp253
Rp254
(lp255
F-1.5
aF2.700000000000003
aF0.0
abag1
(g23
g3
Ntp256
Rp257
(lp258
I0
aI0
aI0
aI1
ababsg27
F13.578
sg28
(lp259
sg30
I00
sg31
g1
(g8
g3
Ntp260
Rp261
(lp262
I52
aI602000000
absg35
F52.22
sba.