(lp0
ccopy_reg
_reconstructor
p1
(cdestination
Destination
p2
c__builtin__
object
p3
Ntp4
Rp5
(dp6
S'_Destination__latest_usage'
p7
g1
(crospy.rostime
Time
p8
g3
Ntp9
Rp10
(lp11
I0
aI0
absS'name'
p12
S'WayPoint1'
p13
sS'pose'
p14
g1
(cgeometry_msgs.msg._Pose
Pose
p15
g3
Ntp16
Rp17
(lp18
g1
(cgeometry_msgs.msg._Point
Point
p19
g3
Ntp20
Rp21
(lp22
F-6.75
aF-2.6999999999999975
aF0.0
abag1
(cgeometry_msgs.msg._Quaternion
Quaternion
p23
g3
Ntp24
Rp25
(lp26
I0
aI0
aI0
aI1
ababsS'path_len'
p27
F13.039
sS'_Destination__stats'
p28
(lp29
sS'_Destination__available'
p30
I00
sS'_Destination__remaining_idl'
p31
g1
(g8
g3
Ntp32
Rp33
(lp34
I3
aI0
absS'estim_idl'
p35
F50.15
sbag1
(g2
g3
Ntp36
Rp37
(dp38
g7
g10
sg12
S'WayPoint10'
p39
sg14
g1
(g15
g3
Ntp40
Rp41
(lp42
g1
(g19
g3
Ntp43
Rp44
(lp45
F1.8500000000000014
aF2.8500000000000023
aF0.0
abag1
(g23
g3
Ntp46
Rp47
(lp48
I0
aI0
aI0
aI1
ababsg27
F7.406
sg28
(lp49
sg30
I00
sg31
g1
(g8
g3
Ntp50
Rp51
(lp52
I21
aI200000000
absg35
F28.48
sbag1
(g2
g3
Ntp53
Rp54
(dp55
g7
g10
sg12
S'WayPoint11'
p56
sg14
g1
(g15
g3
Ntp57
Rp58
(lp59
g1
(g19
g3
Ntp60
Rp61
(lp62
F6.600000000000001
aF3.450000000000003
aF0.0
abag1
(g23
g3
Ntp63
Rp64
(lp65
I0
aI0
aI0
aI1
ababsg27
F10.596
sg28
(lp66
sg30
I00
sg31
g1
(g8
g3
Ntp67
Rp68
(lp69
I2
aI800000000
absg35
F40.75
sbag1
(g2
g3
Ntp70
Rp71
(dp72
g7
g10
sg12
S'WayPoint2'
p73
sg14
g1
(g15
g3
Ntp74
Rp75
(lp76
g1
(g19
g3
Ntp77
Rp78
(lp79
F-3.1999999999999993
aF-3.349999999999998
aF0.0
abag1
(g23
g3
Ntp80
Rp81
(lp82
I0
aI0
aI0
aI1
ababsg27
F15.033
sg28
(lp83
sg30
I00
sg31
g33
sg35
F57.82
sbag1
(g2
g3
Ntp84
Rp85
(dp86
g7
g10
sg12
S'WayPoint3'
p87
sg14
g1
(g15
g3
Ntp88
Rp89
(lp90
g1
(g19
g3
Ntp91
Rp92
(lp93
F0.0
aF-3.349999999999998
aF0.0
abag1
(g23
g3
Ntp94
Rp95
(lp96
I0
aI0
aI0
aI1
ababsg27
F9.525
sg28
(lp97
sg30
I00
sg31
g68
sg35
F36.63
sbag1
(g2
g3
Ntp98
Rp99
(dp100
g7
g1
(g8
g3
Ntp101
Rp102
(lp103
I35
aI1000000
absg12
S'WayPoint4'
p104
sg14
g1
(g15
g3
Ntp105
Rp106
(lp107
g1
(g19
g3
Ntp108
Rp109
(lp110
F2.3500000000000014
aF-3.2499999999999982
aF0.0
abag1
(g23
g3
Ntp111
Rp112
(lp113
I0
aI0
aI0
aI1
ababsg27
F10.699
sg28
(lp114
g1
(cdestination
Observation
p115
g3
Ntp116
Rp117
(dp118
S'idleness'
p119
g1
(cdestination
Idleness
p120
g3
Ntp121
Rp122
(dp123
S'_Idleness__true_idl'
p124
F35.001
sS'_Idleness__estim_idl'
p125
F29.13
sS'_Idleness__remaining_idl'
p126
F32.601
sbsg27
F7.573
sbasg30
I00
sg31
g1
(g8
g3
Ntp127
Rp128
(lp129
I55
aI600000000
absg35
F41.15
sbag1
(g2
g3
Ntp130
Rp131
(dp132
g7
g10
sg12
S'WayPoint5'
p133
sg14
g1
(g15
g3
Ntp134
Rp135
(lp136
g1
(g19
g3
Ntp137
Rp138
(lp139
F5.4
aF-3.4499999999999975
aF0.0
abag1
(g23
g3
Ntp140
Rp141
(lp142
I0
aI0
aI0
aI1
ababsg27
F7.227
sg28
(lp143
sg30
I00
sg31
g1
(g8
g3
Ntp144
Rp145
(lp146
I49
aI401000000
absg35
F27.8
sbag1
(g2
g3
Ntp147
Rp148
(dp149
g7
g10
sg12
S'WayPoint6'
p150
sg14
g1
(g15
g3
Ntp151
Rp152
(lp153
g1
(g19
g3
Ntp154
Rp155
(lp156
F4.850000000000001
aF-0.7499999999999982
aF0.0
abag1
(g23
g3
Ntp157
Rp158
(lp159
I0
aI0
aI0
aI1
ababsg27
F11.449
sg28
(lp160
sg30
I00
sg31
g33
sg35
F44.03
sbag1
(g2
g3
Ntp161
Rp162
(dp163
g7
g1
(g8
g3
Ntp164
Rp165
(lp166
I48
aI400000000
absg12
S'WayPoint7'
p167
sg14
g1
(g15
g3
Ntp168
Rp169
(lp170
g1
(g19
g3
Ntp171
Rp172
(lp173
F1.0500000000000007
aF-0.6999999999999975
aF0.0
abag1
(g23
g3
Ntp174
Rp175
(lp176
I0
aI0
aI0
aI1
ababsg27
F0.0
sg28
(lp177
g1
(g115
g3
Ntp178
Rp179
(dp180
g119
g1
(g120
g3
Ntp181
Rp182
(dp183
g124
F48.4
sg125
F15.12
sg126
F12.999
sbsg27
F3.931
sbasg30
I01
sg31
g165
sg35
I0
sbag1
(g2
g3
Ntp184
Rp185
(dp186
g7
g1
(g8
g3
Ntp187
Rp188
(lp189
I20
aI600000000
absg12
S'WayPoint8'
p190
sg14
g1
(g15
g3
Ntp191
Rp192
(lp193
g1
(g19
g3
Ntp194
Rp195
(lp196
F-3.05
aF-0.5999999999999979
aF0.0
abag1
(g23
g3
Ntp197
Rp198
(lp199
I0
aI0
aI0
aI1
ababsg27
F0.0
sg28
(lp200
g1
(g115
g3
Ntp201
Rp202
(dp203
g119
g1
(g120
g3
Ntp204
Rp205
(dp206
g124
F20.6
sg125
F14.6
sg126
F18.0
sbsg27
F3.797
sbasg30
I01
sg31
g188
sg35
I0
sbag1
(g2
g3
Ntp207
Rp208
(dp209
g7
g1
(g8
g3
Ntp210
Rp211
(lp212
I54
aI600000000
absg12
S'WayPoint9'
p213
sg14
g1
(g15
g3
Ntp214
Rp215
(lp216
g1
(g19
g3
Ntp217
Rp218
(lp219
F-1.5
aF2.700000000000003
aF0.0
abag1
(g23
g3
Ntp220
Rp221
(lp222
I0
aI0
aI0
aI1
ababsg27
F0.0
sg28
(lp223
g1
(g115
g3
Ntp224
Rp225
(dp226
g119
g1
(g120
g3
Ntp227
Rp228
(dp229
g124
F54.6
sg125
F33.07
sg126
F51.6
sbsg27
F8.598
sbasg30
I01
sg31
g211
sg35
I0
sba.