(lp0
ccopy_reg
_reconstructor
p1
(cdestination
Destination
p2
c__builtin__
object
p3
Ntp4
Rp5
(dp6
S'_Destination__latest_usage'
p7
g1
(crospy.rostime
Time
p8
g3
Ntp9
Rp10
(lp11
I0
aI0
absS'name'
p12
S'WayPoint1'
p13
sS'pose'
p14
g1
(cgeometry_msgs.msg._Pose
Pose
p15
g3
Ntp16
Rp17
(lp18
g1
(cgeometry_msgs.msg._Point
Point
p19
g3
Ntp20
Rp21
(lp22
F-6.75
aF-2.6999999999999975
aF0.0
abag1
(cgeometry_msgs.msg._Quaternion
Quaternion
p23
g3
Ntp24
Rp25
(lp26
I0
aI0
aI0
aI1
ababsS'path_len'
p27
F11.184
sS'_Destination__stats'
p28
(lp29
sS'_Destination__available'
p30
I00
sS'_Destination__remaining_idl'
p31
g1
(g8
g3
Ntp32
Rp33
(lp34
I28
aI400000000
absS'estim_idl'
p35
F43.02
sbag1
(g2
g3
Ntp36
Rp37
(dp38
g7
g10
sg12
S'WayPoint10'
p39
sg14
g1
(g15
g3
Ntp40
Rp41
(lp42
g1
(g19
g3
Ntp43
Rp44
(lp45
F1.8500000000000014
aF2.8500000000000023
aF0.0
abag1
(g23
g3
Ntp46
Rp47
(lp48
I0
aI0
aI0
aI1
ababsg27
F9.902
sg28
(lp49
sg30
I00
sg31
g1
(g8
g3
Ntp50
Rp51
(lp52
I2
aI602000000
absg35
F38.08
sbag1
(g2
g3
Ntp53
Rp54
(dp55
g7
g10
sg12
S'WayPoint11'
p56
sg14
g1
(g15
g3
Ntp57
Rp58
(lp59
g1
(g19
g3
Ntp60
Rp61
(lp62
F6.600000000000001
aF3.450000000000003
aF0.0
abag1
(g23
g3
Ntp63
Rp64
(lp65
I0
aI0
aI0
aI1
ababsg27
F15.126
sg28
(lp66
sg30
I00
sg31
g1
(g8
g3
Ntp67
Rp68
(lp69
I51
aI203000000
absg35
F58.18
sbag1
(g2
g3
Ntp70
Rp71
(dp72
g7
g1
(g8
g3
Ntp73
Rp74
(lp75
I50
aI600000000
absg12
S'WayPoint2'
p76
sg14
g1
(g15
g3
Ntp77
Rp78
(lp79
g1
(g19
g3
Ntp80
Rp81
(lp82
F-3.1999999999999993
aF-3.349999999999998
aF0.0
abag1
(g23
g3
Ntp83
Rp84
(lp85
I0
aI0
aI0
aI1
ababsg27
F0.0
sg28
(lp86
g1
(cdestination
Observation
p87
g3
Ntp88
Rp89
(dp90
S'idleness'
p91
g1
(cdestination
Idleness
p92
g3
Ntp93
Rp94
(dp95
S'_Idleness__true_idl'
p96
F50.6
sS'_Idleness__estim_idl'
p97
F28.63
sS'_Idleness__remaining_idl'
p98
F47.998
sbsg27
F7.444
sbasg30
I01
sg31
g74
sg35
I0
sbag1
(g2
g3
Ntp99
Rp100
(dp101
g7
g1
(g8
g3
Ntp102
Rp103
(lp104
I27
aI402000000
absg12
S'WayPoint3'
p105
sg14
g1
(g15
g3
Ntp106
Rp107
(lp108
g1
(g19
g3
Ntp109
Rp110
(lp111
F0.0
aF-3.349999999999998
aF0.0
abag1
(g23
g3
Ntp112
Rp113
(lp114
I0
aI0
aI0
aI1
ababsg27
F9.208
sg28
(lp115
g1
(g87
g3
Ntp116
Rp117
(dp118
g91
g1
(g92
g3
Ntp119
Rp120
(dp121
g96
F27.402
sg97
F11.55
sg98
F13.002
sbsg27
F3.004
sbasg30
I00
sg31
g1
(g8
g3
Ntp122
Rp123
(lp124
I32
aI400000000
absg35
F35.41
sbag1
(g2
g3
Ntp125
Rp126
(dp127
g7
g1
(g8
g3
Ntp128
Rp129
(lp130
I47
aI600000000
absg12
S'WayPoint4'
p131
sg14
g1
(g15
g3
Ntp132
Rp133
(lp134
g1
(g19
g3
Ntp135
Rp136
(lp137
F2.3500000000000014
aF-3.2499999999999982
aF0.0
abag1
(g23
g3
Ntp138
Rp139
(lp140
I0
aI0
aI0
aI1
ababsg27
F3.895
sg28
(lp141
g1
(g87
g3
Ntp142
Rp143
(dp144
g91
g1
(g92
g3
Ntp145
Rp146
(dp147
g96
F47.6
sg97
F31.51
sg98
F44.998
sbsg27
F8.192
sbasg30
I00
sg31
g1
(g8
g3
Ntp148
Rp149
(lp150
I55
aI200000000
absg35
F14.98
sbag1
(g2
g3
Ntp151
Rp152
(dp153
g7
g10
sg12
S'WayPoint5'
p154
sg14
g1
(g15
g3
Ntp155
Rp156
(lp157
g1
(g19
g3
Ntp158
Rp159
(lp160
F5.4
aF-3.4499999999999975
aF0.0
abag1
(g23
g3
Ntp161
Rp162
(lp163
I0
aI0
aI0
aI1
ababsg27
F4.328
sg28
(lp164
sg30
I00
sg31
g1
(g8
g3
Ntp165
Rp166
(lp167
I3
aI405000000
absg35
F16.64
sbag1
(g2
g3
Ntp168
Rp169
(dp170
g7
g10
sg12
S'WayPoint6'
p171
sg14
g1
(g15
g3
Ntp172
Rp173
(lp174
g1
(g19
g3
Ntp175
Rp176
(lp177
F4.850000000000001
aF-0.7499999999999982
aF0.0
abag1
(g23
g3
Ntp178
Rp179
(lp180
I0
aI0
aI0
aI1
ababsg27
F5.667
sg28
(lp181
sg30
I00
sg31
g166
sg35
F21.79
sbag1
(g2
g3
Ntp182
Rp183
(dp184
g7
g1
(g8
g3
Ntp185
Rp186
(lp187
I54
aI200000000
absg12
S'WayPoint7'
p188
sg14
g1
(g15
g3
Ntp189
Rp190
(lp191
g1
(g19
g3
Ntp192
Rp193
(lp194
F1.0500000000000007
aF-0.6999999999999975
aF0.0
abag1
(g23
g3
Ntp195
Rp196
(lp197
I0
aI0
aI0
aI1
ababsg27
F0.0
sg28
(lp198
g1
(g87
g3
Ntp199
Rp200
(dp201
g91
g1
(g92
g3
Ntp202
Rp203
(dp204
g96
F13.801
sg97
F11.63
sg98
F11.001
sbsg27
F3.023
sbag1
(g87
g3
Ntp205
Rp206
(dp207
g91
g1
(g92
g3
Ntp208
Rp209
(dp210
g96
F40.399
sg97
F16.21
sg98
F14.998
sbsg27
F4.215
sbasg30
I01
sg31
g186
sg35
I0
sbag1
(g2
g3
Ntp211
Rp212
(dp213
g7
g1
(g8
g3
Ntp214
Rp215
(lp216
I38
aI801000000
absg12
S'WayPoint8'
p217
sg14
g1
(g15
g3
Ntp218
Rp219
(lp220
g1
(g19
g3
Ntp221
Rp222
(lp223
F-3.05
aF-0.5999999999999979
aF0.0
abag1
(g23
g3
Ntp224
Rp225
(lp226
I0
aI0
aI0
aI1
ababsg27
F0.0
sg28
(lp227
g1
(g87
g3
Ntp228
Rp229
(dp230
g91
g1
(g92
g3
Ntp231
Rp232
(dp233
g96
F38.801
sg97
F27.75
sg98
F36.001
sbsg27
F7.214
sbasg30
I01
sg31
g215
sg35
I0
sbag1
(g2
g3
Ntp234
Rp235
(dp236
g7
g1
(g8
g3
Ntp237
Rp238
(lp239
I31
aI800000000
absg12
S'WayPoint9'
p240
sg14
g1
(g15
g3
Ntp241
Rp242
(lp243
g1
(g19
g3
Ntp244
Rp245
(lp246
F-1.5
aF2.700000000000003
aF0.0
abag1
(g23
g3
Ntp247
Rp248
(lp249
I0
aI0
aI0
aI1
ababsg27
F10.764
sg28
(lp250
g1
(g87
g3
Ntp251
Rp252
(dp253
g91
g1
(g92
g3
Ntp254
Rp255
(dp256
g96
F31.8
sg97
F27.58
sg98
F29.0
sbsg27
F7.172
sbasg30
I00
sg31
g1
(g8
g3
Ntp257
Rp258
(lp259
I48
aI200000000
absg35
F41.4
sba.