(lp0
ccopy_reg
_reconstructor
p1
(cdestination
Destination
p2
c__builtin__
object
p3
Ntp4
Rp5
(dp6
S'_Destination__latest_usage'
p7
g1
(crospy.rostime
Time
p8
g3
Ntp9
Rp10
(lp11
I0
aI0
absS'name'
p12
S'WayPoint1'
p13
sS'pose'
p14
g1
(cgeometry_msgs.msg._Pose
Pose
p15
g3
Ntp16
Rp17
(lp18
g1
(cgeometry_msgs.msg._Point
Point
p19
g3
Ntp20
Rp21
(lp22
F-6.75
aF-2.6999999999999975
aF0.0
abag1
(cgeometry_msgs.msg._Quaternion
Quaternion
p23
g3
Ntp24
Rp25
(lp26
I0
aI0
aI0
aI1
ababsS'path_len'
p27
F8.988
sS'_Destination__stats'
p28
(lp29
sS'_Destination__available'
p30
I00
sS'_Destination__remaining_idl'
p31
g1
(g8
g3
Ntp32
Rp33
(lp34
I34
aI202000000
absS'estim_idl'
p35
F34.57
sbag1
(g2
g3
Ntp36
Rp37
(dp38
g7
g1
(g8
g3
Ntp39
Rp40
(lp41
I54
aI200000000
absg12
S'WayPoint10'
p42
sg14
g1
(g15
g3
Ntp43
Rp44
(lp45
g1
(g19
g3
Ntp46
Rp47
(lp48
F1.8500000000000014
aF2.8500000000000023
aF0.0
abag1
(g23
g3
Ntp49
Rp50
(lp51
I0
aI0
aI0
aI1
ababsg27
F0.0
sg28
(lp52
g1
(cdestination
Observation
p53
g3
Ntp54
Rp55
(dp56
S'idleness'
p57
g1
(cdestination
Idleness
p58
g3
Ntp59
Rp60
(dp61
S'_Idleness__true_idl'
p62
F54.2
sS'_Idleness__estim_idl'
p63
F29.3
sS'_Idleness__remaining_idl'
p64
F51.0
sbsg27
F7.619
sbasg30
I01
sg31
g40
sg35
I0
sbag1
(g2
g3
Ntp65
Rp66
(dp67
g7
g10
sg12
S'WayPoint11'
p68
sg14
g1
(g15
g3
Ntp69
Rp70
(lp71
g1
(g19
g3
Ntp72
Rp73
(lp74
F6.600000000000001
aF3.450000000000003
aF0.0
abag1
(g23
g3
Ntp75
Rp76
(lp77
I0
aI0
aI0
aI1
ababsg27
F11.873
sg28
(lp78
sg30
I00
sg31
g1
(g8
g3
Ntp79
Rp80
(lp81
I37
aI600000000
absg35
F45.67
sbag1
(g2
g3
Ntp82
Rp83
(dp84
g7
g10
sg12
S'WayPoint2'
p85
sg14
g1
(g15
g3
Ntp86
Rp87
(lp88
g1
(g19
g3
Ntp89
Rp90
(lp91
F-3.1999999999999993
aF-3.349999999999998
aF0.0
abag1
(g23
g3
Ntp92
Rp93
(lp94
I0
aI0
aI0
aI1
ababsg27
F14.068
sg28
(lp95
sg30
I00
sg31
g1
(g8
g3
Ntp96
Rp97
(lp98
I2
aI601000000
absg35
F54.11
sbag1
(g2
g3
Ntp99
Rp100
(dp101
g7
g10
sg12
S'WayPoint3'
p102
sg14
g1
(g15
g3
Ntp103
Rp104
(lp105
g1
(g19
g3
Ntp106
Rp107
(lp108
F0.0
aF-3.349999999999998
aF0.0
abag1
(g23
g3
Ntp109
Rp110
(lp111
I0
aI0
aI0
aI1
ababsg27
F6.76
sg28
(lp112
sg30
I00
sg31
g1
(g8
g3
Ntp113
Rp114
(lp115
I55
aI200000000
absg35
F26.0
sbag1
(g2
g3
Ntp116
Rp117
(dp118
g7
g10
sg12
S'WayPoint4'
p119
sg14
g1
(g15
g3
Ntp120
Rp121
(lp122
g1
(g19
g3
Ntp123
Rp124
(lp125
F2.3500000000000014
aF-3.2499999999999982
aF0.0
abag1
(g23
g3
Ntp126
Rp127
(lp128
I0
aI0
aI0
aI1
ababsg27
F10.684
sg28
(lp129
sg30
I00
sg31
g1
(g8
g3
Ntp130
Rp131
(lp132
I2
aI800000000
absg35
F41.09
sbag1
(g2
g3
Ntp133
Rp134
(dp135
g7
g10
sg12
S'WayPoint5'
p136
sg14
g1
(g15
g3
Ntp137
Rp138
(lp139
g1
(g19
g3
Ntp140
Rp141
(lp142
F5.4
aF-3.4499999999999975
aF0.0
abag1
(g23
g3
Ntp143
Rp144
(lp145
I0
aI0
aI0
aI1
ababsg27
F8.783
sg28
(lp146
sg30
I00
sg31
g131
sg35
F33.78
sbag1
(g2
g3
Ntp147
Rp148
(dp149
g7
g10
sg12
S'WayPoint6'
p150
sg14
g1
(g15
g3
Ntp151
Rp152
(lp153
g1
(g19
g3
Ntp154
Rp155
(lp156
F4.850000000000001
aF-0.7499999999999982
aF0.0
abag1
(g23
g3
Ntp157
Rp158
(lp159
I0
aI0
aI0
aI1
ababsg27
F6.88
sg28
(lp160
sg30
I00
sg31
g1
(g8
g3
Ntp161
Rp162
(lp163
I3
aI0
absg35
F26.46
sbag1
(g2
g3
Ntp164
Rp165
(dp166
g7
g1
(g8
g3
Ntp167
Rp168
(lp169
I33
aI1000000
absg12
S'WayPoint7'
p170
sg14
g1
(g15
g3
Ntp171
Rp172
(lp173
g1
(g19
g3
Ntp174
Rp175
(lp176
F1.0500000000000007
aF-0.6999999999999975
aF0.0
abag1
(g23
g3
Ntp177
Rp178
(lp179
I0
aI0
aI0
aI1
ababsg27
F0.0
sg28
(lp180
g1
(g53
g3
Ntp181
Rp182
(dp183
g57
g1
(g58
g3
Ntp184
Rp185
(dp186
g62
F33.001
sg63
F28.73
sg64
F30.001
sbsg27
F7.47
sbasg30
I01
sg31
g168
sg35
I0
sbag1
(g2
g3
Ntp187
Rp188
(dp189
g7
g1
(g8
g3
Ntp190
Rp191
(lp192
I36
aI600000000
absg12
S'WayPoint8'
p193
sg14
g1
(g15
g3
Ntp194
Rp195
(lp196
g1
(g19
g3
Ntp197
Rp198
(lp199
F-3.05
aF-0.5999999999999979
aF0.0
abag1
(g23
g3
Ntp200
Rp201
(lp202
I0
aI0
aI0
aI1
ababsg27
F0.0
sg28
(lp203
g1
(g53
g3
Ntp204
Rp205
(dp206
g57
g1
(g58
g3
Ntp207
Rp208
(dp209
g62
F36.6
sg63
F27.75
sg64
F33.999
sbsg27
F7.214
sbasg30
I01
sg31
g191
sg35
I0
sbag1
(g2
g3
Ntp210
Rp211
(dp212
g7
g10
sg12
S'WayPoint9'
p213
sg14
g1
(g15
g3
Ntp214
Rp215
(lp216
g1
(g19
g3
Ntp217
Rp218
(lp219
F-1.5
aF2.700000000000003
aF0.0
abag1
(g23
g3
Ntp220
Rp221
(lp222
I0
aI0
aI0
aI1
ababsg27
F8.598
sg28
(lp223
sg30
I00
sg31
g162
sg35
F33.07
sba.