(lp0
ccopy_reg
_reconstructor
p1
(cdestination
Destination
p2
c__builtin__
object
p3
Ntp4
Rp5
(dp6
S'_Destination__latest_usage'
p7
g1
(crospy.rostime
Time
p8
g3
Ntp9
Rp10
(lp11
I0
aI0
absS'name'
p12
S'WayPoint1'
p13
sS'pose'
p14
g1
(cgeometry_msgs.msg._Pose
Pose
p15
g3
Ntp16
Rp17
(lp18
g1
(cgeometry_msgs.msg._Point
Point
p19
g3
Ntp20
Rp21
(lp22
F-6.75
aF-2.6999999999999975
aF0.0
abag1
(cgeometry_msgs.msg._Quaternion
Quaternion
p23
g3
Ntp24
Rp25
(lp26
I0
aI0
aI0
aI1
ababsS'path_len'
p27
F15.753
sS'_Destination__stats'
p28
(lp29
sS'_Destination__available'
p30
I00
sS'_Destination__remaining_idl'
p31
g1
(g8
g3
Ntp32
Rp33
(lp34
I2
aI800000000
absS'estim_idl'
p35
F60.59
sbag1
(g2
g3
Ntp36
Rp37
(dp38
g7
g10
sg12
S'WayPoint10'
p39
sg14
g1
(g15
g3
Ntp40
Rp41
(lp42
g1
(g19
g3
Ntp43
Rp44
(lp45
F1.8500000000000014
aF2.8500000000000023
aF0.0
abag1
(g23
g3
Ntp46
Rp47
(lp48
I0
aI0
aI0
aI1
ababsg27
F11.292
sg28
(lp49
sg30
I00
sg31
g1
(g8
g3
Ntp50
Rp51
(lp52
I2
aI602000000
absg35
F43.43
sbag1
(g2
g3
Ntp53
Rp54
(dp55
g7
g10
sg12
S'WayPoint11'
p56
sg14
g1
(g15
g3
Ntp57
Rp58
(lp59
g1
(g19
g3
Ntp60
Rp61
(lp62
F6.600000000000001
aF3.450000000000003
aF0.0
abag1
(g23
g3
Ntp63
Rp64
(lp65
I0
aI0
aI0
aI1
ababsg27
F11.334
sg28
(lp66
sg30
I00
sg31
g33
sg35
F43.59
sbag1
(g2
g3
Ntp67
Rp68
(dp69
g7
g1
(g8
g3
Ntp70
Rp71
(lp72
I40
aI403000000
absg12
S'WayPoint2'
p73
sg14
g1
(g15
g3
Ntp74
Rp75
(lp76
g1
(g19
g3
Ntp77
Rp78
(lp79
F-3.1999999999999993
aF-3.349999999999998
aF0.0
abag1
(g23
g3
Ntp80
Rp81
(lp82
I0
aI0
aI0
aI1
ababsg27
F7.084
sg28
(lp83
g1
(cdestination
Observation
p84
g3
Ntp85
Rp86
(dp87
S'idleness'
p88
g1
(cdestination
Idleness
p89
g3
Ntp90
Rp91
(dp92
S'_Idleness__true_idl'
p93
F40.403
sS'_Idleness__estim_idl'
p94
F13.02
sS'_Idleness__remaining_idl'
p95
F12.003
sbsg27
F3.386
sbasg30
I00
sg31
g1
(g8
g3
Ntp96
Rp97
(lp98
I53
aI200000000
absg35
F27.25
sbag1
(g2
g3
Ntp99
Rp100
(dp101
g7
g10
sg12
S'WayPoint3'
p102
sg14
g1
(g15
g3
Ntp103
Rp104
(lp105
g1
(g19
g3
Ntp106
Rp107
(lp108
F0.0
aF-3.349999999999998
aF0.0
abag1
(g23
g3
Ntp109
Rp110
(lp111
I0
aI0
aI0
aI1
ababsg27
F9.719
sg28
(lp112
sg30
I00
sg31
g1
(g8
g3
Ntp113
Rp114
(lp115
I3
aI2000000
absg35
F37.38
sbag1
(g2
g3
Ntp116
Rp117
(dp118
g7
g10
sg12
S'WayPoint4'
p119
sg14
g1
(g15
g3
Ntp120
Rp121
(lp122
g1
(g19
g3
Ntp123
Rp124
(lp125
F2.3500000000000014
aF-3.2499999999999982
aF0.0
abag1
(g23
g3
Ntp126
Rp127
(lp128
I0
aI0
aI0
aI1
ababsg27
F11.542
sg28
(lp129
sg30
I00
sg31
g1
(g8
g3
Ntp130
Rp131
(lp132
I41
aI602000000
absg35
F44.39
sbag1
(g2
g3
Ntp133
Rp134
(dp135
g7
g10
sg12
S'WayPoint5'
p136
sg14
g1
(g15
g3
Ntp137
Rp138
(lp139
g1
(g19
g3
Ntp140
Rp141
(lp142
F5.4
aF-3.4499999999999975
aF0.0
abag1
(g23
g3
Ntp143
Rp144
(lp145
I0
aI0
aI0
aI1
ababsg27
F4.328
sg28
(lp146
sg30
I00
sg31
g33
sg35
F16.64
sbag1
(g2
g3
Ntp147
Rp148
(dp149
g7
g10
sg12
S'WayPoint6'
p150
sg14
g1
(g15
g3
Ntp151
Rp152
(lp153
g1
(g19
g3
Ntp154
Rp155
(lp156
F4.850000000000001
aF-0.7499999999999982
aF0.0
abag1
(g23
g3
Ntp157
Rp158
(lp159
I0
aI0
aI0
aI1
ababsg27
F0.0
sg28
(lp160
sg30
I00
sg31
g1
(g8
g3
Ntp161
Rp162
(lp163
I40
aI201000000
absg35
F0.0
sbag1
(g2
g3
Ntp164
Rp165
(dp166
g7
g1
(g8
g3
Ntp167
Rp168
(lp169
I39
aI200000000
absg12
S'WayPoint7'
p170
sg14
g1
(g15
g3
Ntp171
Rp172
(lp173
g1
(g19
g3
Ntp174
Rp175
(lp176
F1.0500000000000007
aF-0.6999999999999975
aF0.0
abag1
(g23
g3
Ntp177
Rp178
(lp179
I0
aI0
aI0
aI1
ababsg27
F0.0
sg28
(lp180
g1
(g84
g3
Ntp181
Rp182
(dp183
g88
g1
(g89
g3
Ntp184
Rp185
(dp186
g93
F39.2
sg94
F35.19
sg95
F36.0
sbsg27
F9.148
sbasg30
I01
sg31
g168
sg35
I0
sbag1
(g2
g3
Ntp187
Rp188
(dp189
g7
g1
(g8
g3
Ntp190
Rp191
(lp192
I27
aI400000000
absg12
S'WayPoint8'
p193
sg14
g1
(g15
g3
Ntp194
Rp195
(lp196
g1
(g19
g3
Ntp197
Rp198
(lp199
F-3.05
aF-0.5999999999999979
aF0.0
abag1
(g23
g3
Ntp200
Rp201
(lp202
I0
aI0
aI0
aI1
ababsg27
F0.0
sg28
(lp203
g1
(g84
g3
Ntp204
Rp205
(dp206
g88
g1
(g89
g3
Ntp207
Rp208
(dp209
g93
F27.4
sg94
F14.6
sg95
F24.999
sbsg27
F3.797
sbasg30
I01
sg31
g191
sg35
I0
sbag1
(g2
g3
Ntp210
Rp211
(dp212
g7
g1
(g8
g3
Ntp213
Rp214
(lp215
I52
aI200000000
absg12
S'WayPoint9'
p216
sg14
g1
(g15
g3
Ntp217
Rp218
(lp219
g1
(g19
g3
Ntp220
Rp221
(lp222
F-1.5
aF2.700000000000003
aF0.0
abag1
(g23
g3
Ntp223
Rp224
(lp225
I0
aI0
aI0
aI1
ababsg27
F0.0
sg28
(lp226
g1
(g84
g3
Ntp227
Rp228
(dp229
g88
g1
(g89
g3
Ntp230
Rp231
(dp232
g93
F52.2
sg94
F35.57
sg95
F49.0
sbsg27
F9.248
sbasg30
I01
sg31
g214
sg35
I0
sba.