(lp0
ccopy_reg
_reconstructor
p1
(cdestination
Destination
p2
c__builtin__
object
p3
Ntp4
Rp5
(dp6
S'_Destination__latest_usage'
p7
g1
(crospy.rostime
Time
p8
g3
Ntp9
Rp10
(lp11
I0
aI0
absS'name'
p12
S'WayPoint1'
p13
sS'pose'
p14
g1
(cgeometry_msgs.msg._Pose
Pose
p15
g3
Ntp16
Rp17
(lp18
g1
(cgeometry_msgs.msg._Point
Point
p19
g3
Ntp20
Rp21
(lp22
F-6.75
aF-2.6999999999999975
aF0.0
abag1
(cgeometry_msgs.msg._Quaternion
Quaternion
p23
g3
Ntp24
Rp25
(lp26
I0
aI0
aI0
aI1
ababsS'path_len'
p27
F8.558
sS'_Destination__stats'
p28
(lp29
sS'_Destination__available'
p30
I00
sS'_Destination__remaining_idl'
p31
g1
(g8
g3
Ntp32
Rp33
(lp34
I2
aI800000000
absS'estim_idl'
p35
F32.92
sbag1
(g2
g3
Ntp36
Rp37
(dp38
g7
g10
sg12
S'WayPoint10'
p39
sg14
g1
(g15
g3
Ntp40
Rp41
(lp42
g1
(g19
g3
Ntp43
Rp44
(lp45
F1.8500000000000014
aF2.8500000000000023
aF0.0
abag1
(g23
g3
Ntp46
Rp47
(lp48
I0
aI0
aI0
aI1
ababsg27
F7.639
sg28
(lp49
sg30
I00
sg31
g1
(g8
g3
Ntp50
Rp51
(lp52
I29
aI600000000
absg35
F29.38
sbag1
(g2
g3
Ntp53
Rp54
(dp55
g7
g1
(g8
g3
Ntp56
Rp57
(lp58
I25
aI1000000
absg12
S'WayPoint11'
p59
sg14
g1
(g15
g3
Ntp60
Rp61
(lp62
g1
(g19
g3
Ntp63
Rp64
(lp65
F6.600000000000001
aF3.450000000000003
aF0.0
abag1
(g23
g3
Ntp66
Rp67
(lp68
I0
aI0
aI0
aI1
ababsg27
F0.0
sg28
(lp69
g1
(cdestination
Observation
p70
g3
Ntp71
Rp72
(dp73
S'idleness'
p74
g1
(cdestination
Idleness
p75
g3
Ntp76
Rp77
(dp78
S'_Idleness__true_idl'
p79
F25.001
sS'_Idleness__estim_idl'
p80
F21.34
sS'_Idleness__remaining_idl'
p81
F21.001
sbsg27
F5.547
sbasg30
I01
sg31
g57
sg35
I0
sbag1
(g2
g3
Ntp82
Rp83
(dp84
g7
g10
sg12
S'WayPoint2'
p85
sg14
g1
(g15
g3
Ntp86
Rp87
(lp88
g1
(g19
g3
Ntp89
Rp90
(lp91
F-3.1999999999999993
aF-3.349999999999998
aF0.0
abag1
(g23
g3
Ntp92
Rp93
(lp94
I0
aI0
aI0
aI1
ababsg27
F14.066
sg28
(lp95
sg30
I00
sg31
g1
(g8
g3
Ntp96
Rp97
(lp98
I4
aI0
absg35
F54.1
sbag1
(g2
g3
Ntp99
Rp100
(dp101
g7
g1
(g8
g3
Ntp102
Rp103
(lp104
I54
aI200000000
absg12
S'WayPoint3'
p105
sg14
g1
(g15
g3
Ntp106
Rp107
(lp108
g1
(g19
g3
Ntp109
Rp110
(lp111
F0.0
aF-3.349999999999998
aF0.0
abag1
(g23
g3
Ntp112
Rp113
(lp114
I0
aI0
aI0
aI1
ababsg27
F0.0
sg28
(lp115
g1
(g70
g3
Ntp116
Rp117
(dp118
g74
g1
(g75
g3
Ntp119
Rp120
(dp121
g79
F54.2
sg80
F37.35
sg81
F50.0
sbsg27
F9.712
sbasg30
I01
sg31
g103
sg35
I0
sbag1
(g2
g3
Ntp122
Rp123
(dp124
g7
g1
(g8
g3
Ntp125
Rp126
(lp127
I29
aI0
absg12
S'WayPoint4'
p128
sg14
g1
(g15
g3
Ntp129
Rp130
(lp131
g1
(g19
g3
Ntp132
Rp133
(lp134
F2.3500000000000014
aF-3.2499999999999982
aF0.0
abag1
(g23
g3
Ntp135
Rp136
(lp137
I0
aI0
aI0
aI1
ababsg27
F3.895
sg28
(lp138
g1
(g70
g3
Ntp139
Rp140
(dp141
g74
g1
(g75
g3
Ntp142
Rp143
(dp144
g79
F29.0
sg80
F25.41
sg81
F25.0
sbsg27
F6.607
sbasg30
I00
sg31
g1
(g8
g3
Ntp145
Rp146
(lp147
I53
aI601000000
absg35
F14.98
sbag1
(g2
g3
Ntp148
Rp149
(dp150
g7
g10
sg12
S'WayPoint5'
p151
sg14
g1
(g15
g3
Ntp152
Rp153
(lp154
g1
(g19
g3
Ntp155
Rp156
(lp157
F5.4
aF-3.4499999999999975
aF0.0
abag1
(g23
g3
Ntp158
Rp159
(lp160
I0
aI0
aI0
aI1
ababsg27
F8.783
sg28
(lp161
sg30
I00
sg31
g1
(g8
g3
Ntp162
Rp163
(lp164
I2
aI600000000
absg35
F33.78
sbag1
(g2
g3
Ntp165
Rp166
(dp167
g7
g10
sg12
S'WayPoint6'
p168
sg14
g1
(g15
g3
Ntp169
Rp170
(lp171
g1
(g19
g3
Ntp172
Rp173
(lp174
F4.850000000000001
aF-0.7499999999999982
aF0.0
abag1
(g23
g3
Ntp175
Rp176
(lp177
I0
aI0
aI0
aI1
ababsg27
F5.667
sg28
(lp178
sg30
I00
sg31
g1
(g8
g3
Ntp179
Rp180
(lp181
I25
aI600000000
absg35
F21.79
sbag1
(g2
g3
Ntp182
Rp183
(dp184
g7
g1
(g8
g3
Ntp185
Rp186
(lp187
I52
aI601000000
absg12
S'WayPoint7'
p188
sg14
g1
(g15
g3
Ntp189
Rp190
(lp191
g1
(g19
g3
Ntp192
Rp193
(lp194
F1.0500000000000007
aF-0.6999999999999975
aF0.0
abag1
(g23
g3
Ntp195
Rp196
(lp197
I0
aI0
aI0
aI1
ababsg27
F6.971
sg28
(lp198
g1
(g70
g3
Ntp199
Rp200
(dp201
g74
g1
(g75
g3
Ntp202
Rp203
(dp204
g79
F52.601
sg80
F16.96
sg81
F28.001
sbsg27
F4.409
sbasg30
I00
sg31
g103
sg35
F26.81
sbag1
(g2
g3
Ntp205
Rp206
(dp207
g7
g1
(g8
g3
Ntp208
Rp209
(lp210
I23
aI0
absg12
S'WayPoint8'
p211
sg14
g1
(g15
g3
Ntp212
Rp213
(lp214
g1
(g19
g3
Ntp215
Rp216
(lp217
F-3.05
aF-0.5999999999999979
aF0.0
abag1
(g23
g3
Ntp218
Rp219
(lp220
I0
aI0
aI0
aI1
ababsg27
F6.527
sg28
(lp221
g1
(g70
g3
Ntp222
Rp223
(dp224
g74
g1
(g75
g3
Ntp225
Rp226
(dp227
g79
F23.0
sg80
F19.42
sg81
F19.0
sbsg27
F5.05
sbasg30
I00
sg31
g1
(g8
g3
Ntp228
Rp229
(lp230
I55
aI201000000
absg35
F25.11
sbag1
(g2
g3
Ntp231
Rp232
(dp233
g7
g146
sg12
S'WayPoint9'
p234
sg14
g1
(g15
g3
Ntp235
Rp236
(lp237
g1
(g19
g3
Ntp238
Rp239
(lp240
F-1.5
aF2.700000000000003
aF0.0
abag1
(g23
g3
Ntp241
Rp242
(lp243
I0
aI0
aI0
aI1
ababsg27
F0.0
sg28
(lp244
g1
(g70
g3
Ntp245
Rp246
(dp247
g74
g1
(g75
g3
Ntp248
Rp249
(dp250
g79
F53.601
sg80
F37.99
sg81
F51.001
sbsg27
F9.876
sbasg30
I01
sg31
g146
sg35
I0
sba.