(lp0
ccopy_reg
_reconstructor
p1
(cdestination
Destination
p2
c__builtin__
object
p3
Ntp4
Rp5
(dp6
S'_Destination__latest_usage'
p7
g1
(crospy.rostime
Time
p8
g3
Ntp9
Rp10
(lp11
I0
aI0
absS'name'
p12
S'WayPoint1'
p13
sS'pose'
p14
g1
(cgeometry_msgs.msg._Pose
Pose
p15
g3
Ntp16
Rp17
(lp18
g1
(cgeometry_msgs.msg._Point
Point
p19
g3
Ntp20
Rp21
(lp22
F-6.75
aF-2.6999999999999975
aF0.0
abag1
(cgeometry_msgs.msg._Quaternion
Quaternion
p23
g3
Ntp24
Rp25
(lp26
I0
aI0
aI0
aI1
ababsS'path_len'
p27
F11.473
sS'_Destination__stats'
p28
(lp29
sS'_Destination__available'
p30
I00
sS'_Destination__remaining_idl'
p31
g1
(g8
g3
Ntp32
Rp33
(lp34
I4
aI200000000
absS'estim_idl'
p35
F44.13
sbag1
(g2
g3
Ntp36
Rp37
(dp38
g7
g10
sg12
S'WayPoint10'
p39
sg14
g1
(g15
g3
Ntp40
Rp41
(lp42
g1
(g19
g3
Ntp43
Rp44
(lp45
F1.8500000000000014
aF2.8500000000000023
aF0.0
abag1
(g23
g3
Ntp46
Rp47
(lp48
I0
aI0
aI0
aI1
ababsg27
F0.0
sg28
(lp49
sg30
I01
sg31
g10
sg35
I0
sbag1
(g2
g3
Ntp50
Rp51
(dp52
g7
g10
sg12
S'WayPoint11'
p53
sg14
g1
(g15
g3
Ntp54
Rp55
(lp56
g1
(g19
g3
Ntp57
Rp58
(lp59
F6.600000000000001
aF3.450000000000003
aF0.0
abag1
(g23
g3
Ntp60
Rp61
(lp62
I0
aI0
aI0
aI1
ababsg27
F7.804
sg28
(lp63
sg30
I00
sg31
g1
(g8
g3
Ntp64
Rp65
(lp66
I48
aI201000000
absg35
F30.02
sbag1
(g2
g3
Ntp67
Rp68
(dp69
g7
g10
sg12
S'WayPoint2'
p70
sg14
g1
(g15
g3
Ntp71
Rp72
(lp73
g1
(g19
g3
Ntp74
Rp75
(lp76
F-3.1999999999999993
aF-3.349999999999998
aF0.0
abag1
(g23
g3
Ntp77
Rp78
(lp79
I0
aI0
aI0
aI1
ababsg27
F14.068
sg28
(lp80
sg30
I00
sg31
g1
(g8
g3
Ntp81
Rp82
(lp83
I3
aI600000000
absg35
F54.11
sbag1
(g2
g3
Ntp84
Rp85
(dp86
g7
g10
sg12
S'WayPoint3'
p87
sg14
g1
(g15
g3
Ntp88
Rp89
(lp90
g1
(g19
g3
Ntp91
Rp92
(lp93
F0.0
aF-3.349999999999998
aF0.0
abag1
(g23
g3
Ntp94
Rp95
(lp96
I0
aI0
aI0
aI1
ababsg27
F9.194
sg28
(lp97
sg30
I00
sg31
g1
(g8
g3
Ntp98
Rp99
(lp100
I2
aI600000000
absg35
F35.36
sbag1
(g2
g3
Ntp101
Rp102
(dp103
g7
g1
(g8
g3
Ntp104
Rp105
(lp106
I50
aI202000000
absg12
S'WayPoint4'
p107
sg14
g1
(g15
g3
Ntp108
Rp109
(lp110
g1
(g19
g3
Ntp111
Rp112
(lp113
F2.3500000000000014
aF-3.2499999999999982
aF0.0
abag1
(g23
g3
Ntp114
Rp115
(lp116
I0
aI0
aI0
aI1
ababsg27
F0.0
sg28
(lp117
g1
(cdestination
Observation
p118
g3
Ntp119
Rp120
(dp121
S'idleness'
p122
g1
(cdestination
Idleness
p123
g3
Ntp124
Rp125
(dp126
S'_Idleness__true_idl'
p127
F50.202
sS'_Idleness__estim_idl'
p128
F43.15
sS'_Idleness__remaining_idl'
p129
F46.002
sbsg27
F11.22
sbasg30
I01
sg31
g105
sg35
I0
sbag1
(g2
g3
Ntp130
Rp131
(dp132
g7
g10
sg12
S'WayPoint5'
p133
sg14
g1
(g15
g3
Ntp134
Rp135
(lp136
g1
(g19
g3
Ntp137
Rp138
(lp139
F5.4
aF-3.4499999999999975
aF0.0
abag1
(g23
g3
Ntp140
Rp141
(lp142
I0
aI0
aI0
aI1
ababsg27
F15.835
sg28
(lp143
sg30
I00
sg31
g33
sg35
F60.9
sbag1
(g2
g3
Ntp144
Rp145
(dp146
g7
g1
(g8
g3
Ntp147
Rp148
(lp149
I29
aI207000000
absg12
S'WayPoint6'
p150
sg14
g1
(g15
g3
Ntp151
Rp152
(lp153
g1
(g19
g3
Ntp154
Rp155
(lp156
F4.850000000000001
aF-0.7499999999999982
aF0.0
abag1
(g23
g3
Ntp157
Rp158
(lp159
I0
aI0
aI0
aI1
ababsg27
F0.0
sg28
(lp160
g1
(g118
g3
Ntp161
Rp162
(dp163
g122
g1
(g123
g3
Ntp164
Rp165
(dp166
g127
F29.207
sg128
F21.79
sg129
F25.007
sbsg27
F5.667
sbasg30
I00
sg31
g1
(g8
g3
Ntp167
Rp168
(lp169
I51
aI200000000
absg35
F0.0
sbag1
(g2
g3
Ntp170
Rp171
(dp172
g7
g1
(g8
g3
Ntp173
Rp174
(lp175
I47
aI200000000
absg12
S'WayPoint7'
p176
sg14
g1
(g15
g3
Ntp177
Rp178
(lp179
g1
(g19
g3
Ntp180
Rp181
(lp182
F1.0500000000000007
aF-0.6999999999999975
aF0.0
abag1
(g23
g3
Ntp183
Rp184
(lp185
I0
aI0
aI0
aI1
ababsg27
F0.0
sg28
(lp186
g1
(g118
g3
Ntp187
Rp188
(dp189
g122
g1
(g123
g3
Ntp190
Rp191
(dp192
g127
F47.2
sg128
F16.15
sg129
F17.0
sbsg27
F4.198
sbasg30
I01
sg31
g174
sg35
I0
sbag1
(g2
g3
Ntp193
Rp194
(dp195
g7
g10
sg12
S'WayPoint8'
p196
sg14
g1
(g15
g3
Ntp197
Rp198
(lp199
g1
(g19
g3
Ntp200
Rp201
(lp202
F-3.05
aF-0.5999999999999979
aF0.0
abag1
(g23
g3
Ntp203
Rp204
(lp205
I0
aI0
aI0
aI1
ababsg27
F0.0
sg28
(lp206
sg30
I01
sg31
g10
sg35
I0
sbag1
(g2
g3
Ntp207
Rp208
(dp209
g7
g10
sg12
S'WayPoint9'
p210
sg14
g1
(g15
g3
Ntp211
Rp212
(lp213
g1
(g19
g3
Ntp214
Rp215
(lp216
F-1.5
aF2.700000000000003
aF0.0
abag1
(g23
g3
Ntp217
Rp218
(lp219
I0
aI0
aI0
aI1
ababsg27
F9.876
sg28
(lp220
sg30
I00
sg31
g82
sg35
F37.99
sba.