(lp0
ccopy_reg
_reconstructor
p1
(cdestination
Destination
p2
c__builtin__
object
p3
Ntp4
Rp5
(dp6
S'_Destination__latest_usage'
p7
g1
(crospy.rostime
Time
p8
g3
Ntp9
Rp10
(lp11
I0
aI0
absS'name'
p12
S'WayPoint1'
p13
sS'pose'
p14
g1
(cgeometry_msgs.msg._Pose
Pose
p15
g3
Ntp16
Rp17
(lp18
g1
(cgeometry_msgs.msg._Point
Point
p19
g3
Ntp20
Rp21
(lp22
F-6.75
aF-2.6999999999999975
aF0.0
abag1
(cgeometry_msgs.msg._Quaternion
Quaternion
p23
g3
Ntp24
Rp25
(lp26
I0
aI0
aI0
aI1
ababsS'path_len'
p27
F0.0
sS'_Destination__stats'
p28
(lp29
sS'_Destination__available'
p30
I00
sS'_Destination__remaining_idl'
p31
g1
(g8
g3
Ntp32
Rp33
(lp34
I48
aI200000000
absS'estim_idl'
p35
F0.0
sbag1
(g2
g3
Ntp36
Rp37
(dp38
g7
g1
(g8
g3
Ntp39
Rp40
(lp41
I39
aI401000000
absg12
S'WayPoint10'
p42
sg14
g1
(g15
g3
Ntp43
Rp44
(lp45
g1
(g19
g3
Ntp46
Rp47
(lp48
F1.8500000000000014
aF2.8500000000000023
aF0.0
abag1
(g23
g3
Ntp49
Rp50
(lp51
I0
aI0
aI0
aI1
ababsg27
F0.0
sg28
(lp52
g1
(cdestination
Observation
p53
g3
Ntp54
Rp55
(dp56
S'idleness'
p57
g1
(cdestination
Idleness
p58
g3
Ntp59
Rp60
(dp61
S'_Idleness__true_idl'
p62
F39.401
sS'_Idleness__estim_idl'
p63
F15.38
sS'_Idleness__remaining_idl'
p64
F16.0
sbsg27
F4.0
sbasg30
I01
sg31
g40
sg35
I0
sbag1
(g2
g3
Ntp65
Rp66
(dp67
g7
g10
sg12
S'WayPoint11'
p68
sg14
g1
(g15
g3
Ntp69
Rp70
(lp71
g1
(g19
g3
Ntp72
Rp73
(lp74
F6.600000000000001
aF3.450000000000003
aF0.0
abag1
(g23
g3
Ntp75
Rp76
(lp77
I0
aI0
aI0
aI1
ababsg27
F8.848
sg28
(lp78
sg30
I00
sg31
g33
sg35
F34.03
sbag1
(g2
g3
Ntp79
Rp80
(dp81
g7
g10
sg12
S'WayPoint2'
p82
sg14
g1
(g15
g3
Ntp83
Rp84
(lp85
g1
(g19
g3
Ntp86
Rp87
(lp88
F-3.1999999999999993
aF-3.349999999999998
aF0.0
abag1
(g23
g3
Ntp89
Rp90
(lp91
I0
aI0
aI0
aI1
ababsg27
F14.048
sg28
(lp92
sg30
I00
sg31
g1
(g8
g3
Ntp93
Rp94
(lp95
I2
aI602000000
absg35
F54.03
sbag1
(g2
g3
Ntp96
Rp97
(dp98
g7
g10
sg12
S'WayPoint3'
p99
sg14
g1
(g15
g3
Ntp100
Rp101
(lp102
g1
(g19
g3
Ntp103
Rp104
(lp105
F0.0
aF-3.349999999999998
aF0.0
abag1
(g23
g3
Ntp106
Rp107
(lp108
I0
aI0
aI0
aI1
ababsg27
F10.497
sg28
(lp109
sg30
I00
sg31
g94
sg35
F40.37
sbag1
(g2
g3
Ntp110
Rp111
(dp112
g7
g1
(g8
g3
Ntp113
Rp114
(lp115
I47
aI200000000
absg12
S'WayPoint4'
p116
sg14
g1
(g15
g3
Ntp117
Rp118
(lp119
g1
(g19
g3
Ntp120
Rp121
(lp122
F2.3500000000000014
aF-3.2499999999999982
aF0.0
abag1
(g23
g3
Ntp123
Rp124
(lp125
I0
aI0
aI0
aI1
ababsg27
F0.0
sg28
(lp126
g1
(g53
g3
Ntp127
Rp128
(dp129
g57
g1
(g58
g3
Ntp130
Rp131
(dp132
g62
F47.2
sg63
F43.15
sg64
F43.993
sbsg27
F11.22
sbasg30
I01
sg31
g114
sg35
I0
sbag1
(g2
g3
Ntp133
Rp134
(dp135
g7
g114
sg12
S'WayPoint5'
p136
sg14
g1
(g15
g3
Ntp137
Rp138
(lp139
g1
(g19
g3
Ntp140
Rp141
(lp142
F5.4
aF-3.4499999999999975
aF0.0
abag1
(g23
g3
Ntp143
Rp144
(lp145
I0
aI0
aI0
aI1
ababsg27
F4.014
sg28
(lp146
g1
(g53
g3
Ntp147
Rp148
(dp149
g57
g1
(g58
g3
Ntp150
Rp151
(dp152
g62
F47.2
sg63
F36.93
sg64
F43.993
sbsg27
F9.603
sbasg30
I00
sg31
g1
(g8
g3
Ntp153
Rp154
(lp155
I55
aI400000000
absg35
F15.44
sbag1
(g2
g3
Ntp156
Rp157
(dp158
g7
g1
(g8
g3
Ntp159
Rp160
(lp161
I54
aI400000000
absg12
S'WayPoint6'
p162
sg14
g1
(g15
g3
Ntp163
Rp164
(lp165
g1
(g19
g3
Ntp166
Rp167
(lp168
F4.850000000000001
aF-0.7499999999999982
aF0.0
abag1
(g23
g3
Ntp169
Rp170
(lp171
I0
aI0
aI0
aI1
ababsg27
F0.0
sg28
(lp172
g1
(g53
g3
Ntp173
Rp174
(dp175
g57
g1
(g58
g3
Ntp176
Rp177
(dp178
g62
F54.4
sg63
F50.33
sg64
F51.0
sbsg27
F13.086
sbasg30
I01
sg31
g160
sg35
I0
sbag1
(g2
g3
Ntp179
Rp180
(dp181
g7
g1
(g8
g3
Ntp182
Rp183
(lp184
I23
aI3000000
absg12
S'WayPoint7'
p185
sg14
g1
(g15
g3
Ntp186
Rp187
(lp188
g1
(g19
g3
Ntp189
Rp190
(lp191
F1.0500000000000007
aF-0.6999999999999975
aF0.0
abag1
(g23
g3
Ntp192
Rp193
(lp194
I0
aI0
aI0
aI1
ababsg27
F4.192
sg28
(lp195
g1
(g53
g3
Ntp196
Rp197
(dp198
g57
g1
(g58
g3
Ntp199
Rp200
(dp201
g62
F23.003
sg63
F15.13
sg64
F20.002
sbsg27
F3.933
sbasg30
I00
sg31
g1
(g8
g3
Ntp202
Rp203
(lp204
I52
aI200000000
absg35
F16.12
sbag1
(g2
g3
Ntp205
Rp206
(dp207
g7
g1
(g8
g3
Ntp208
Rp209
(lp210
I51
aI201000000
absg12
S'WayPoint8'
p211
sg14
g1
(g15
g3
Ntp212
Rp213
(lp214
g1
(g19
g3
Ntp215
Rp216
(lp217
F-3.05
aF-0.5999999999999979
aF0.0
abag1
(g23
g3
Ntp218
Rp219
(lp220
I0
aI0
aI0
aI1
ababsg27
F0.0
sg28
(lp221
g1
(g53
g3
Ntp222
Rp223
(dp224
g57
g1
(g58
g3
Ntp225
Rp226
(dp227
g62
F51.201
sg63
F14.6
sg64
F47.994
sbsg27
F3.797
sbasg30
I01
sg31
g209
sg35
I0
sbag1
(g2
g3
Ntp228
Rp229
(dp230
g7
g10
sg12
S'WayPoint9'
p231
sg14
g1
(g15
g3
Ntp232
Rp233
(lp234
g1
(g19
g3
Ntp235
Rp236
(lp237
F-1.5
aF2.700000000000003
aF0.0
abag1
(g23
g3
Ntp238
Rp239
(lp240
I0
aI0
aI0
aI1
ababsg27
F9.891
sg28
(lp241
sg30
I00
sg31
g1
(g8
g3
Ntp242
Rp243
(lp244
I40
aI401000000
absg35
F38.04
sba.