(lp0
ccopy_reg
_reconstructor
p1
(cdestination
Destination
p2
c__builtin__
object
p3
Ntp4
Rp5
(dp6
S'_Destination__latest_usage'
p7
g1
(crospy.rostime
Time
p8
g3
Ntp9
Rp10
(lp11
I43
aI800000000
absS'name'
p12
S'WayPoint1'
p13
sS'pose'
p14
g1
(cgeometry_msgs.msg._Pose
Pose
p15
g3
Ntp16
Rp17
(lp18
g1
(cgeometry_msgs.msg._Point
Point
p19
g3
Ntp20
Rp21
(lp22
F-6.75
aF-2.6999999999999975
aF0.0
abag1
(cgeometry_msgs.msg._Quaternion
Quaternion
p23
g3
Ntp24
Rp25
(lp26
I0
aI0
aI0
aI1
ababsS'path_len'
p27
F0.0
sS'_Destination__stats'
p28
(lp29
g1
(cdestination
Observation
p30
g3
Ntp31
Rp32
(dp33
S'idleness'
p34
g1
(cdestination
Idleness
p35
g3
Ntp36
Rp37
(dp38
S'_Idleness__true_idl'
p39
F43.8
sS'_Idleness__estim_idl'
p40
F32.92
sS'_Idleness__remaining_idl'
p41
F41.0
sbsg27
F8.558
sbasS'_Destination__available'
p42
I01
sS'_Destination__remaining_idl'
p43
g10
sS'estim_idl'
p44
I0
sbag1
(g2
g3
Ntp45
Rp46
(dp47
g7
g1
(g8
g3
Ntp48
Rp49
(lp50
I0
aI0
absg12
S'WayPoint10'
p51
sg14
g1
(g15
g3
Ntp52
Rp53
(lp54
g1
(g19
g3
Ntp55
Rp56
(lp57
F1.8500000000000014
aF2.8500000000000023
aF0.0
abag1
(g23
g3
Ntp58
Rp59
(lp60
I0
aI0
aI0
aI1
ababsg27
F6.802
sg28
(lp61
sg42
I00
sg43
g1
(g8
g3
Ntp62
Rp63
(lp64
I3
aI1000000
absg44
F26.16
sbag1
(g2
g3
Ntp65
Rp66
(dp67
g7
g49
sg12
S'WayPoint11'
p68
sg14
g1
(g15
g3
Ntp69
Rp70
(lp71
g1
(g19
g3
Ntp72
Rp73
(lp74
F6.600000000000001
aF3.450000000000003
aF0.0
abag1
(g23
g3
Ntp75
Rp76
(lp77
I0
aI0
aI0
aI1
ababsg27
F15.172
sg28
(lp78
sg42
I00
sg43
g1
(g8
g3
Ntp79
Rp80
(lp81
I2
aI600000000
absg44
F58.35
sbag1
(g2
g3
Ntp82
Rp83
(dp84
g7
g1
(g8
g3
Ntp85
Rp86
(lp87
I36
aI201000000
absg12
S'WayPoint2'
p88
sg14
g1
(g15
g3
Ntp89
Rp90
(lp91
g1
(g19
g3
Ntp92
Rp93
(lp94
F-3.1999999999999993
aF-3.349999999999998
aF0.0
abag1
(g23
g3
Ntp95
Rp96
(lp97
I0
aI0
aI0
aI1
ababsg27
F11.162
sg28
(lp98
g1
(g30
g3
Ntp99
Rp100
(dp101
g34
g1
(g35
g3
Ntp102
Rp103
(dp104
g39
F36.201
sg40
F28.63
sg41
F33.001
sbsg27
F7.444
sbasg42
I00
sg43
g1
(g8
g3
Ntp105
Rp106
(lp107
I37
aI0
absg44
F42.93
sbag1
(g2
g3
Ntp108
Rp109
(dp110
g7
g49
sg12
S'WayPoint3'
p111
sg14
g1
(g15
g3
Ntp112
Rp113
(lp114
g1
(g19
g3
Ntp115
Rp116
(lp117
F0.0
aF-3.349999999999998
aF0.0
abag1
(g23
g3
Ntp118
Rp119
(lp120
I0
aI0
aI0
aI1
ababsg27
F9.608
sg28
(lp121
sg42
I00
sg43
g1
(g8
g3
Ntp122
Rp123
(lp124
I35
aI201000000
absg44
F36.95
sbag1
(g2
g3
Ntp125
Rp126
(dp127
g7
g1
(g8
g3
Ntp128
Rp129
(lp130
I36
aI600000000
absg12
S'WayPoint4'
p131
sg14
g1
(g15
g3
Ntp132
Rp133
(lp134
g1
(g19
g3
Ntp135
Rp136
(lp137
F2.3500000000000014
aF-3.2499999999999982
aF0.0
abag1
(g23
g3
Ntp138
Rp139
(lp140
I0
aI0
aI0
aI1
ababsg27
F0.0
sg28
(lp141
g1
(g30
g3
Ntp142
Rp143
(dp144
g34
g1
(g35
g3
Ntp145
Rp146
(dp147
g39
F36.6
sg40
F29.13
sg41
F34.0
sbsg27
F7.573
sbasg42
I01
sg43
g129
sg44
I0
sbag1
(g2
g3
Ntp148
Rp149
(dp150
g7
g1
(g8
g3
Ntp151
Rp152
(lp153
I34
aI200000000
absg12
S'WayPoint5'
p154
sg14
g1
(g15
g3
Ntp155
Rp156
(lp157
g1
(g19
g3
Ntp158
Rp159
(lp160
F5.4
aF-3.4499999999999975
aF0.0
abag1
(g23
g3
Ntp161
Rp162
(lp163
I0
aI0
aI0
aI1
ababsg27
F0.0
sg28
(lp164
g1
(g30
g3
Ntp165
Rp166
(dp167
g34
g1
(g35
g3
Ntp168
Rp169
(dp170
g39
F34.2
sg40
F16.72
sg41
F17.0
sbsg27
F4.346
sbasg42
I01
sg43
g152
sg44
I0
sbag1
(g2
g3
Ntp171
Rp172
(dp173
g7
g1
(g8
g3
Ntp174
Rp175
(lp176
I16
aI200000000
absg12
S'WayPoint6'
p177
sg14
g1
(g15
g3
Ntp178
Rp179
(lp180
g1
(g19
g3
Ntp181
Rp182
(lp183
F4.850000000000001
aF-0.7499999999999982
aF0.0
abag1
(g23
g3
Ntp184
Rp185
(lp186
I0
aI0
aI0
aI1
ababsg27
F11.426
sg28
(lp187
g1
(g30
g3
Ntp188
Rp189
(dp190
g34
g1
(g35
g3
Ntp191
Rp192
(dp193
g39
F16.2
sg40
F16.44
sg41
F13.0
sbsg27
F4.276
sbasg42
I00
sg43
g1
(g8
g3
Ntp194
Rp195
(lp196
I37
aI201000000
absg44
F43.95
sbag1
(g2
g3
Ntp197
Rp198
(dp199
g7
g49
sg12
S'WayPoint7'
p200
sg14
g1
(g15
g3
Ntp201
Rp202
(lp203
g1
(g19
g3
Ntp204
Rp205
(lp206
F1.0500000000000007
aF-0.6999999999999975
aF0.0
abag1
(g23
g3
Ntp207
Rp208
(lp209
I0
aI0
aI0
aI1
ababsg27
F0.0
sg28
(lp210
sg42
I01
sg43
g49
sg44
I0
sbag1
(g2
g3
Ntp211
Rp212
(dp213
g7
g49
sg12
S'WayPoint8'
p214
sg14
g1
(g15
g3
Ntp215
Rp216
(lp217
g1
(g19
g3
Ntp218
Rp219
(lp220
F-3.05
aF-0.5999999999999979
aF0.0
abag1
(g23
g3
Ntp221
Rp222
(lp223
I0
aI0
aI0
aI1
ababsg27
F5.05
sg28
(lp224
sg42
I00
sg43
g1
(g8
g3
Ntp225
Rp226
(lp227
I44
aI203000000
absg44
F19.42
sbag1
(g2
g3
Ntp228
Rp229
(dp230
g7
g49
sg12
S'WayPoint9'
p231
sg14
g1
(g15
g3
Ntp232
Rp233
(lp234
g1
(g19
g3
Ntp235
Rp236
(lp237
F-1.5
aF2.700000000000003
aF0.0
abag1
(g23
g3
Ntp238
Rp239
(lp240
I0
aI0
aI0
aI1
ababsg27
F14.475
sg28
(lp241
sg42
I00
sg43
g1
(g8
g3
Ntp242
Rp243
(lp244
I2
aI402000000
absg44
F55.67
sba.