(lp0
ccopy_reg
_reconstructor
p1
(cdestination
Destination
p2
c__builtin__
object
p3
Ntp4
Rp5
(dp6
S'_Destination__latest_usage'
p7
g1
(crospy.rostime
Time
p8
g3
Ntp9
Rp10
(lp11
I0
aI0
absS'name'
p12
S'WayPoint1'
p13
sS'pose'
p14
g1
(cgeometry_msgs.msg._Pose
Pose
p15
g3
Ntp16
Rp17
(lp18
g1
(cgeometry_msgs.msg._Point
Point
p19
g3
Ntp20
Rp21
(lp22
F-6.75
aF-2.6999999999999975
aF0.0
abag1
(cgeometry_msgs.msg._Quaternion
Quaternion
p23
g3
Ntp24
Rp25
(lp26
I0
aI0
aI0
aI1
ababsS'path_len'
p27
F15.752
sS'_Destination__stats'
p28
(lp29
sS'_Destination__available'
p30
I00
sS'_Destination__remaining_idl'
p31
g1
(g8
g3
Ntp32
Rp33
(lp34
I2
aI400000000
absS'estim_idl'
p35
F60.58
sbag1
(g2
g3
Ntp36
Rp37
(dp38
g7
g10
sg12
S'WayPoint10'
p39
sg14
g1
(g15
g3
Ntp40
Rp41
(lp42
g1
(g19
g3
Ntp43
Rp44
(lp45
F1.8500000000000014
aF2.8500000000000023
aF0.0
abag1
(g23
g3
Ntp46
Rp47
(lp48
I0
aI0
aI0
aI1
ababsg27
F9.902
sg28
(lp49
sg30
I00
sg31
g1
(g8
g3
Ntp50
Rp51
(lp52
I2
aI800000000
absg35
F38.08
sbag1
(g2
g3
Ntp53
Rp54
(dp55
g7
g10
sg12
S'WayPoint11'
p56
sg14
g1
(g15
g3
Ntp57
Rp58
(lp59
g1
(g19
g3
Ntp60
Rp61
(lp62
F6.600000000000001
aF3.450000000000003
aF0.0
abag1
(g23
g3
Ntp63
Rp64
(lp65
I0
aI0
aI0
aI1
ababsg27
F10.596
sg28
(lp66
sg30
I00
sg31
g51
sg35
F40.75
sbag1
(g2
g3
Ntp67
Rp68
(dp69
g7
g10
sg12
S'WayPoint2'
p70
sg14
g1
(g15
g3
Ntp71
Rp72
(lp73
g1
(g19
g3
Ntp74
Rp75
(lp76
F-3.1999999999999993
aF-3.349999999999998
aF0.0
abag1
(g23
g3
Ntp77
Rp78
(lp79
I0
aI0
aI0
aI1
ababsg27
F11.18
sg28
(lp80
sg30
I00
sg31
g1
(g8
g3
Ntp81
Rp82
(lp83
I50
aI0
absg35
F43.0
sbag1
(g2
g3
Ntp84
Rp85
(dp86
g7
g10
sg12
S'WayPoint3'
p87
sg14
g1
(g15
g3
Ntp88
Rp89
(lp90
g1
(g19
g3
Ntp91
Rp92
(lp93
F0.0
aF-3.349999999999998
aF0.0
abag1
(g23
g3
Ntp94
Rp95
(lp96
I0
aI0
aI0
aI1
ababsg27
F0.0
sg28
(lp97
sg30
I01
sg31
g10
sg35
I0
sbag1
(g2
g3
Ntp98
Rp99
(dp100
g7
g1
(g8
g3
Ntp101
Rp102
(lp103
I49
aI0
absg12
S'WayPoint4'
p104
sg14
g1
(g15
g3
Ntp105
Rp106
(lp107
g1
(g19
g3
Ntp108
Rp109
(lp110
F2.3500000000000014
aF-3.2499999999999982
aF0.0
abag1
(g23
g3
Ntp111
Rp112
(lp113
I0
aI0
aI0
aI1
ababsg27
F0.0
sg28
(lp114
g1
(cdestination
Observation
p115
g3
Ntp116
Rp117
(dp118
S'idleness'
p119
g1
(cdestination
Idleness
p120
g3
Ntp121
Rp122
(dp123
S'_Idleness__true_idl'
p124
F49.0
sS'_Idleness__estim_idl'
p125
F43.12
sS'_Idleness__remaining_idl'
p126
F45.987
sbsg27
F11.211
sbasg30
I01
sg31
g102
sg35
I0
sbag1
(g2
g3
Ntp127
Rp128
(dp129
g7
g1
(g8
g3
Ntp130
Rp131
(lp132
I56
aI0
absg12
S'WayPoint5'
p133
sg14
g1
(g15
g3
Ntp134
Rp135
(lp136
g1
(g19
g3
Ntp137
Rp138
(lp139
F5.4
aF-3.4499999999999975
aF0.0
abag1
(g23
g3
Ntp140
Rp141
(lp142
I0
aI0
aI0
aI1
ababsg27
F0.0
sg28
(lp143
g1
(g115
g3
Ntp144
Rp145
(dp146
g119
g1
(g120
g3
Ntp147
Rp148
(dp149
g124
F56.0
sg125
F39.92
sg126
F52.987
sbsg27
F10.38
sbasg30
I01
sg31
g131
sg35
I0
sbag1
(g2
g3
Ntp150
Rp151
(dp152
g7
g10
sg12
S'WayPoint6'
p153
sg14
g1
(g15
g3
Ntp154
Rp155
(lp156
g1
(g19
g3
Ntp157
Rp158
(lp159
F4.850000000000001
aF-0.7499999999999982
aF0.0
abag1
(g23
g3
Ntp160
Rp161
(lp162
I0
aI0
aI0
aI1
ababsg27
F13.086
sg28
(lp163
sg30
I00
sg31
g1
(g8
g3
Ntp164
Rp165
(lp166
I3
aI13000000
absg35
F50.33
sbag1
(g2
g3
Ntp167
Rp168
(dp169
g7
g10
sg12
S'WayPoint7'
p170
sg14
g1
(g15
g3
Ntp171
Rp172
(lp173
g1
(g19
g3
Ntp174
Rp175
(lp176
F1.0500000000000007
aF-0.6999999999999975
aF0.0
abag1
(g23
g3
Ntp177
Rp178
(lp179
I0
aI0
aI0
aI1
ababsg27
F7.737
sg28
(lp180
sg30
I00
sg31
g33
sg35
F29.76
sbag1
(g2
g3
Ntp181
Rp182
(dp183
g7
g10
sg12
S'WayPoint8'
p184
sg14
g1
(g15
g3
Ntp185
Rp186
(lp187
g1
(g19
g3
Ntp188
Rp189
(lp190
F-3.05
aF-0.5999999999999979
aF0.0
abag1
(g23
g3
Ntp191
Rp192
(lp193
I0
aI0
aI0
aI1
ababsg27
F10.87
sg28
(lp194
sg30
I00
sg31
g1
(g8
g3
Ntp195
Rp196
(lp197
I57
aI2000000
absg35
F41.81
sbag1
(g2
g3
Ntp198
Rp199
(dp200
g7
g10
sg12
S'WayPoint9'
p201
sg14
g1
(g15
g3
Ntp202
Rp203
(lp204
g1
(g19
g3
Ntp205
Rp206
(lp207
F-1.5
aF2.700000000000003
aF0.0
abag1
(g23
g3
Ntp208
Rp209
(lp210
I0
aI0
aI0
aI1
ababsg27
F0.0
sg28
(lp211
sg30
I01
sg31
g10
sg35
I0
sba.