(lp0
ccopy_reg
_reconstructor
p1
(cdestination
Destination
p2
c__builtin__
object
p3
Ntp4
Rp5
(dp6
S'_Destination__latest_usage'
p7
g1
(crospy.rostime
Time
p8
g3
Ntp9
Rp10
(lp11
I0
aI0
absS'name'
p12
S'WayPoint1'
p13
sS'pose'
p14
g1
(cgeometry_msgs.msg._Pose
Pose
p15
g3
Ntp16
Rp17
(lp18
g1
(cgeometry_msgs.msg._Point
Point
p19
g3
Ntp20
Rp21
(lp22
F-6.75
aF-2.6999999999999975
aF0.0
abag1
(cgeometry_msgs.msg._Quaternion
Quaternion
p23
g3
Ntp24
Rp25
(lp26
I0
aI0
aI0
aI1
ababsS'path_len'
p27
F16.709
sS'_Destination__stats'
p28
(lp29
sS'_Destination__available'
p30
I00
sS'_Destination__remaining_idl'
p31
g1
(g8
g3
Ntp32
Rp33
(lp34
I3
aI2000000
absS'estim_idl'
p35
F64.27
sbag1
(g2
g3
Ntp36
Rp37
(dp38
g7
g1
(g8
g3
Ntp39
Rp40
(lp41
I56
aI0
absg12
S'WayPoint10'
p42
sg14
g1
(g15
g3
Ntp43
Rp44
(lp45
g1
(g19
g3
Ntp46
Rp47
(lp48
F1.8500000000000014
aF2.8500000000000023
aF0.0
abag1
(g23
g3
Ntp49
Rp50
(lp51
I0
aI0
aI0
aI1
ababsg27
F0.0
sg28
(lp52
g1
(cdestination
Observation
p53
g3
Ntp54
Rp55
(dp56
S'idleness'
p57
g1
(cdestination
Idleness
p58
g3
Ntp59
Rp60
(dp61
S'_Idleness__true_idl'
p62
F56.0
sS'_Idleness__estim_idl'
p63
F39.63
sS'_Idleness__remaining_idl'
p64
F52.998
sbsg27
F10.305
sbasg30
I01
sg31
g40
sg35
I0
sbag1
(g2
g3
Ntp65
Rp66
(dp67
g7
g10
sg12
S'WayPoint11'
p68
sg14
g1
(g15
g3
Ntp69
Rp70
(lp71
g1
(g19
g3
Ntp72
Rp73
(lp74
F6.600000000000001
aF3.450000000000003
aF0.0
abag1
(g23
g3
Ntp75
Rp76
(lp77
I0
aI0
aI0
aI1
ababsg27
F16.793
sg28
(lp78
sg30
I00
sg31
g33
sg35
F64.59
sbag1
(g2
g3
Ntp79
Rp80
(dp81
g7
g10
sg12
S'WayPoint2'
p82
sg14
g1
(g15
g3
Ntp83
Rp84
(lp85
g1
(g19
g3
Ntp86
Rp87
(lp88
F-3.1999999999999993
aF-3.349999999999998
aF0.0
abag1
(g23
g3
Ntp89
Rp90
(lp91
I0
aI0
aI0
aI1
ababsg27
F9.67
sg28
(lp92
sg30
I00
sg31
g33
sg35
F37.19
sbag1
(g2
g3
Ntp93
Rp94
(dp95
g7
g10
sg12
S'WayPoint3'
p96
sg14
g1
(g15
g3
Ntp97
Rp98
(lp99
g1
(g19
g3
Ntp100
Rp101
(lp102
F0.0
aF-3.349999999999998
aF0.0
abag1
(g23
g3
Ntp103
Rp104
(lp105
I0
aI0
aI0
aI1
ababsg27
F6.564
sg28
(lp106
sg30
I00
sg31
g1
(g8
g3
Ntp107
Rp108
(lp109
I34
aI200000000
absg35
F25.25
sbag1
(g2
g3
Ntp110
Rp111
(dp112
g7
g1
(g8
g3
Ntp113
Rp114
(lp115
I33
aI800000000
absg12
S'WayPoint4'
p116
sg14
g1
(g15
g3
Ntp117
Rp118
(lp119
g1
(g19
g3
Ntp120
Rp121
(lp122
F2.3500000000000014
aF-3.2499999999999982
aF0.0
abag1
(g23
g3
Ntp123
Rp124
(lp125
I0
aI0
aI0
aI1
ababsg27
F7.693
sg28
(lp126
g1
(g53
g3
Ntp127
Rp128
(dp129
g57
g1
(g58
g3
Ntp130
Rp131
(dp132
g62
F33.8
sg63
F29.13
sg64
F31.0
sbsg27
F7.573
sbasg30
I00
sg31
g1
(g8
g3
Ntp133
Rp134
(lp135
I57
aI0
absg35
F29.59
sbag1
(g2
g3
Ntp136
Rp137
(dp138
g7
g10
sg12
S'WayPoint5'
p139
sg14
g1
(g15
g3
Ntp140
Rp141
(lp142
g1
(g19
g3
Ntp143
Rp144
(lp145
F5.4
aF-3.4499999999999975
aF0.0
abag1
(g23
g3
Ntp146
Rp147
(lp148
I0
aI0
aI0
aI1
ababsg27
F10.904
sg28
(lp149
sg30
I00
sg31
g1
(g8
g3
Ntp150
Rp151
(lp152
I16
aI400000000
absg35
F41.94
sbag1
(g2
g3
Ntp153
Rp154
(dp155
g7
g10
sg12
S'WayPoint6'
p156
sg14
g1
(g15
g3
Ntp157
Rp158
(lp159
g1
(g19
g3
Ntp160
Rp161
(lp162
F4.850000000000001
aF-0.7499999999999982
aF0.0
abag1
(g23
g3
Ntp163
Rp164
(lp165
I0
aI0
aI0
aI1
ababsg27
F10.804
sg28
(lp166
sg30
I00
sg31
g1
(g8
g3
Ntp167
Rp168
(lp169
I2
aI400000000
absg35
F41.55
sbag1
(g2
g3
Ntp170
Rp171
(dp172
g7
g10
sg12
S'WayPoint7'
p173
sg14
g1
(g15
g3
Ntp174
Rp175
(lp176
g1
(g19
g3
Ntp177
Rp178
(lp179
F1.0500000000000007
aF-0.6999999999999975
aF0.0
abag1
(g23
g3
Ntp180
Rp181
(lp182
I0
aI0
aI0
aI1
ababsg27
F0.0
sg28
(lp183
sg30
I01
sg31
g10
sg35
I0
sbag1
(g2
g3
Ntp184
Rp185
(dp186
g7
g1
(g8
g3
Ntp187
Rp188
(lp189
I15
aI801000000
absg12
S'WayPoint8'
p190
sg14
g1
(g15
g3
Ntp191
Rp192
(lp193
g1
(g19
g3
Ntp194
Rp195
(lp196
F-3.05
aF-0.5999999999999979
aF0.0
abag1
(g23
g3
Ntp197
Rp198
(lp199
I0
aI0
aI0
aI1
ababsg27
F0.0
sg28
(lp200
g1
(g53
g3
Ntp201
Rp202
(dp203
g57
g1
(g58
g3
Ntp204
Rp205
(dp206
g62
F15.801
sg63
F13.21
sg64
F13.001
sbsg27
F3.435
sbasg30
I01
sg31
g188
sg35
I0
sbag1
(g2
g3
Ntp207
Rp208
(dp209
g7
g10
sg12
S'WayPoint9'
p210
sg14
g1
(g15
g3
Ntp211
Rp212
(lp213
g1
(g19
g3
Ntp214
Rp215
(lp216
F-1.5
aF2.700000000000003
aF0.0
abag1
(g23
g3
Ntp217
Rp218
(lp219
I0
aI0
aI0
aI1
ababsg27
F0.0
sg28
(lp220
sg30
I01
sg31
g10
sg35
I0
sba.