(lp0
ccopy_reg
_reconstructor
p1
(cdestination
Destination
p2
c__builtin__
object
p3
Ntp4
Rp5
(dp6
S'_Destination__latest_usage'
p7
g1
(crospy.rostime
Time
p8
g3
Ntp9
Rp10
(lp11
I0
aI0
absS'name'
p12
S'WayPoint1'
p13
sS'pose'
p14
g1
(cgeometry_msgs.msg._Pose
Pose
p15
g3
Ntp16
Rp17
(lp18
g1
(cgeometry_msgs.msg._Point
Point
p19
g3
Ntp20
Rp21
(lp22
F-6.75
aF-2.6999999999999975
aF0.0
abag1
(cgeometry_msgs.msg._Quaternion
Quaternion
p23
g3
Ntp24
Rp25
(lp26
I0
aI0
aI0
aI1
ababsS'path_len'
p27
F11.473
sS'_Destination__stats'
p28
(lp29
sS'_Destination__available'
p30
I00
sS'_Destination__remaining_idl'
p31
g1
(g8
g3
Ntp32
Rp33
(lp34
I4
aI0
absS'estim_idl'
p35
F44.13
sbag1
(g2
g3
Ntp36
Rp37
(dp38
g7
g10
sg12
S'WayPoint10'
p39
sg14
g1
(g15
g3
Ntp40
Rp41
(lp42
g1
(g19
g3
Ntp43
Rp44
(lp45
F1.8500000000000014
aF2.8500000000000023
aF0.0
abag1
(g23
g3
Ntp46
Rp47
(lp48
I0
aI0
aI0
aI1
ababsg27
F3.91
sg28
(lp49
sg30
I00
sg31
g1
(g8
g3
Ntp50
Rp51
(lp52
I53
aI0
absg35
F15.04
sbag1
(g2
g3
Ntp53
Rp54
(dp55
g7
g10
sg12
S'WayPoint11'
p56
sg14
g1
(g15
g3
Ntp57
Rp58
(lp59
g1
(g19
g3
Ntp60
Rp61
(lp62
F6.600000000000001
aF3.450000000000003
aF0.0
abag1
(g23
g3
Ntp63
Rp64
(lp65
I0
aI0
aI0
aI1
ababsg27
F8.774
sg28
(lp66
sg30
I00
sg31
g33
sg35
F33.75
sbag1
(g2
g3
Ntp67
Rp68
(dp69
g7
g10
sg12
S'WayPoint2'
p70
sg14
g1
(g15
g3
Ntp71
Rp72
(lp73
g1
(g19
g3
Ntp74
Rp75
(lp76
F-3.1999999999999993
aF-3.349999999999998
aF0.0
abag1
(g23
g3
Ntp77
Rp78
(lp79
I0
aI0
aI0
aI1
ababsg27
F15.033
sg28
(lp80
sg30
I00
sg31
g1
(g8
g3
Ntp81
Rp82
(lp83
I3
aI401000000
absg35
F57.82
sbag1
(g2
g3
Ntp84
Rp85
(dp86
g7
g10
sg12
S'WayPoint3'
p87
sg14
g1
(g15
g3
Ntp88
Rp89
(lp90
g1
(g19
g3
Ntp91
Rp92
(lp93
F0.0
aF-3.349999999999998
aF0.0
abag1
(g23
g3
Ntp94
Rp95
(lp96
I0
aI0
aI0
aI1
ababsg27
F9.47
sg28
(lp97
sg30
I00
sg31
g1
(g8
g3
Ntp98
Rp99
(lp100
I56
aI0
absg35
F36.42
sbag1
(g2
g3
Ntp101
Rp102
(dp103
g7
g10
sg12
S'WayPoint4'
p104
sg14
g1
(g15
g3
Ntp105
Rp106
(lp107
g1
(g19
g3
Ntp108
Rp109
(lp110
F2.3500000000000014
aF-3.2499999999999982
aF0.0
abag1
(g23
g3
Ntp111
Rp112
(lp113
I0
aI0
aI0
aI1
ababsg27
F12.951
sg28
(lp114
sg30
I00
sg31
g33
sg35
F49.81
sbag1
(g2
g3
Ntp115
Rp116
(dp117
g7
g10
sg12
S'WayPoint5'
p118
sg14
g1
(g15
g3
Ntp119
Rp120
(lp121
g1
(g19
g3
Ntp122
Rp123
(lp124
F5.4
aF-3.4499999999999975
aF0.0
abag1
(g23
g3
Ntp125
Rp126
(lp127
I0
aI0
aI0
aI1
ababsg27
F0.0
sg28
(lp128
sg30
I01
sg31
g10
sg35
I0
sbag1
(g2
g3
Ntp129
Rp130
(dp131
g7
g10
sg12
S'WayPoint6'
p132
sg14
g1
(g15
g3
Ntp133
Rp134
(lp135
g1
(g19
g3
Ntp136
Rp137
(lp138
F4.850000000000001
aF-0.7499999999999982
aF0.0
abag1
(g23
g3
Ntp139
Rp140
(lp141
I0
aI0
aI0
aI1
ababsg27
F8.156
sg28
(lp142
sg30
I01
sg31
g10
sg35
F31.37
sbag1
(g2
g3
Ntp143
Rp144
(dp145
g7
g1
(g8
g3
Ntp146
Rp147
(lp148
I52
aI0
absg12
S'WayPoint7'
p149
sg14
g1
(g15
g3
Ntp150
Rp151
(lp152
g1
(g19
g3
Ntp153
Rp154
(lp155
F1.0500000000000007
aF-0.6999999999999975
aF0.0
abag1
(g23
g3
Ntp156
Rp157
(lp158
I0
aI0
aI0
aI1
ababsg27
F0.0
sg28
(lp159
g1
(cdestination
Observation
p160
g3
Ntp161
Rp162
(dp163
S'idleness'
p164
g1
(cdestination
Idleness
p165
g3
Ntp166
Rp167
(dp168
S'_Idleness__true_idl'
p169
F52.0
sS'_Idleness__estim_idl'
p170
F28.73
sS'_Idleness__remaining_idl'
p171
F48.0
sbsg27
F7.47
sbasg30
I01
sg31
g147
sg35
I0
sbag1
(g2
g3
Ntp172
Rp173
(dp174
g7
g1
(g8
g3
Ntp175
Rp176
(lp177
I59
aI600000000
absg12
S'WayPoint8'
p178
sg14
g1
(g15
g3
Ntp179
Rp180
(lp181
g1
(g19
g3
Ntp182
Rp183
(lp184
F-3.05
aF-0.5999999999999979
aF0.0
abag1
(g23
g3
Ntp185
Rp186
(lp187
I0
aI0
aI0
aI1
ababsg27
F0.0
sg28
(lp188
g1
(g160
g3
Ntp189
Rp190
(dp191
g164
g1
(g165
g3
Ntp192
Rp193
(dp194
g169
F59.6
sg170
F14.6
sg171
F57.0
sbsg27
F3.797
sbasg30
I01
sg31
g176
sg35
I0
sbag1
(g2
g3
Ntp195
Rp196
(dp197
g7
g1
(g8
g3
Ntp198
Rp199
(lp200
I55
aI0
absg12
S'WayPoint9'
p201
sg14
g1
(g15
g3
Ntp202
Rp203
(lp204
g1
(g19
g3
Ntp205
Rp206
(lp207
F-1.5
aF2.700000000000003
aF0.0
abag1
(g23
g3
Ntp208
Rp209
(lp210
I0
aI0
aI0
aI1
ababsg27
F0.0
sg28
(lp211
g1
(g160
g3
Ntp212
Rp213
(dp214
g164
g1
(g165
g3
Ntp215
Rp216
(dp217
g169
F55.0
sg170
F37.99
sg171
F51.0
sbsg27
F9.876
sbasg30
I01
sg31
g199
sg35
I0
sba.