(lp0
ccopy_reg
_reconstructor
p1
(cdestination
Destination
p2
c__builtin__
object
p3
Ntp4
Rp5
(dp6
S'_Destination__latest_usage'
p7
g1
(crospy.rostime
Time
p8
g3
Ntp9
Rp10
(lp11
I0
aI0
absS'name'
p12
S'WayPoint1'
p13
sS'pose'
p14
g1
(cgeometry_msgs.msg._Pose
Pose
p15
g3
Ntp16
Rp17
(lp18
g1
(cgeometry_msgs.msg._Point
Point
p19
g3
Ntp20
Rp21
(lp22
F-6.75
aF-2.6999999999999975
aF0.0
abag1
(cgeometry_msgs.msg._Quaternion
Quaternion
p23
g3
Ntp24
Rp25
(lp26
I0
aI0
aI0
aI1
ababsS'path_len'
p27
F12.982
sS'_Destination__stats'
p28
(lp29
sS'_Destination__available'
p30
I01
sS'_Destination__remaining_idl'
p31
g10
sS'estim_idl'
p32
F49.93
sbag1
(g2
g3
Ntp33
Rp34
(dp35
g7
g10
sg12
S'WayPoint10'
p36
sg14
g1
(g15
g3
Ntp37
Rp38
(lp39
g1
(g19
g3
Ntp40
Rp41
(lp42
F1.8500000000000014
aF2.8500000000000023
aF0.0
abag1
(g23
g3
Ntp43
Rp44
(lp45
I0
aI0
aI0
aI1
ababsg27
F6.802
sg28
(lp46
sg30
I00
sg31
g1
(g8
g3
Ntp47
Rp48
(lp49
I3
aI1000000
absg32
F26.16
sbag1
(g2
g3
Ntp50
Rp51
(dp52
g7
g10
sg12
S'WayPoint11'
p53
sg14
g1
(g15
g3
Ntp54
Rp55
(lp56
g1
(g19
g3
Ntp57
Rp58
(lp59
F6.600000000000001
aF3.450000000000003
aF0.0
abag1
(g23
g3
Ntp60
Rp61
(lp62
I0
aI0
aI0
aI1
ababsg27
F11.334
sg28
(lp63
sg30
I00
sg31
g48
sg32
F43.59
sbag1
(g2
g3
Ntp64
Rp65
(dp66
g7
g10
sg12
S'WayPoint2'
p67
sg14
g1
(g15
g3
Ntp68
Rp69
(lp70
g1
(g19
g3
Ntp71
Rp72
(lp73
F-3.1999999999999993
aF-3.349999999999998
aF0.0
abag1
(g23
g3
Ntp74
Rp75
(lp76
I0
aI0
aI0
aI1
ababsg27
F7.089
sg28
(lp77
sg30
I00
sg31
g1
(g8
g3
Ntp78
Rp79
(lp80
I2
aI800000000
absg32
F27.26
sbag1
(g2
g3
Ntp81
Rp82
(dp83
g7
g10
sg12
S'WayPoint3'
p84
sg14
g1
(g15
g3
Ntp85
Rp86
(lp87
g1
(g19
g3
Ntp88
Rp89
(lp90
F0.0
aF-3.349999999999998
aF0.0
abag1
(g23
g3
Ntp91
Rp92
(lp93
I0
aI0
aI0
aI1
ababsg27
F6.835
sg28
(lp94
sg30
I00
sg31
g1
(g8
g3
Ntp95
Rp96
(lp97
I59
aI204000000
absg32
F26.29
sbag1
(g2
g3
Ntp98
Rp99
(dp100
g7
g1
(g8
g3
Ntp101
Rp102
(lp103
I59
aI400000000
absg12
S'WayPoint4'
p104
sg14
g1
(g15
g3
Ntp105
Rp106
(lp107
g1
(g19
g3
Ntp108
Rp109
(lp110
F2.3500000000000014
aF-3.2499999999999982
aF0.0
abag1
(g23
g3
Ntp111
Rp112
(lp113
I0
aI0
aI0
aI1
ababsg27
F0.0
sg28
(lp114
g1
(cdestination
Observation
p115
g3
Ntp116
Rp117
(dp118
S'idleness'
p119
g1
(cdestination
Idleness
p120
g3
Ntp121
Rp122
(dp123
S'_Idleness__true_idl'
p124
F59.4
sS'_Idleness__estim_idl'
p125
F15.45
sS'_Idleness__remaining_idl'
p126
F24.999
sbsg27
F4.017
sbasg30
I01
sg31
g102
sg32
I0
sbag1
(g2
g3
Ntp127
Rp128
(dp129
g7
g10
sg12
S'WayPoint5'
p130
sg14
g1
(g15
g3
Ntp131
Rp132
(lp133
g1
(g19
g3
Ntp134
Rp135
(lp136
F5.4
aF-3.4499999999999975
aF0.0
abag1
(g23
g3
Ntp137
Rp138
(lp139
I0
aI0
aI0
aI1
ababsg27
F0.0
sg28
(lp140
sg30
I01
sg31
g10
sg32
I0
sbag1
(g2
g3
Ntp141
Rp142
(dp143
g7
g1
(g8
g3
Ntp144
Rp145
(lp146
I58
aI800000000
absg12
S'WayPoint6'
p147
sg14
g1
(g15
g3
Ntp148
Rp149
(lp150
g1
(g19
g3
Ntp151
Rp152
(lp153
F4.850000000000001
aF-0.7499999999999982
aF0.0
abag1
(g23
g3
Ntp154
Rp155
(lp156
I0
aI0
aI0
aI1
ababsg27
F0.0
sg28
(lp157
g1
(g115
g3
Ntp158
Rp159
(dp160
g119
g1
(g120
g3
Ntp161
Rp162
(dp163
g124
F58.8
sg125
F50.33
sg126
F56.0
sbsg27
F13.086
sbasg30
I01
sg31
g145
sg32
I0
sbag1
(g2
g3
Ntp164
Rp165
(dp166
g7
g1
(g8
g3
Ntp167
Rp168
(lp169
I34
aI2000000
absg12
S'WayPoint7'
p170
sg14
g1
(g15
g3
Ntp171
Rp172
(lp173
g1
(g19
g3
Ntp174
Rp175
(lp176
F1.0500000000000007
aF-0.6999999999999975
aF0.0
abag1
(g23
g3
Ntp177
Rp178
(lp179
I0
aI0
aI0
aI1
ababsg27
F0.0
sg28
(lp180
g1
(g115
g3
Ntp181
Rp182
(dp183
g119
g1
(g120
g3
Ntp184
Rp185
(dp186
g124
F34.002
sg125
F28.73
sg126
F31.001
sbsg27
F7.47
sbasg30
I01
sg31
g168
sg32
I0
sbag1
(g2
g3
Ntp187
Rp188
(dp189
g7
g10
sg12
S'WayPoint8'
p190
sg14
g1
(g15
g3
Ntp191
Rp192
(lp193
g1
(g19
g3
Ntp194
Rp195
(lp196
F-3.05
aF-0.5999999999999979
aF0.0
abag1
(g23
g3
Ntp197
Rp198
(lp199
I0
aI0
aI0
aI1
ababsg27
F11.816
sg28
(lp200
sg30
I00
sg31
g48
sg32
F45.45
sbag1
(g2
g3
Ntp201
Rp202
(dp203
g7
g10
sg12
S'WayPoint9'
p204
sg14
g1
(g15
g3
Ntp205
Rp206
(lp207
g1
(g19
g3
Ntp208
Rp209
(lp210
F-1.5
aF2.700000000000003
aF0.0
abag1
(g23
g3
Ntp211
Rp212
(lp213
I0
aI0
aI0
aI1
ababsg27
F13.499
sg28
(lp214
sg30
I00
sg31
g79
sg32
F51.92
sba.