(lp0
ccopy_reg
_reconstructor
p1
(cdestination
Destination
p2
c__builtin__
object
p3
Ntp4
Rp5
(dp6
S'_Destination__latest_usage'
p7
g1
(crospy.rostime
Time
p8
g3
Ntp9
Rp10
(lp11
I0
aI0
absS'name'
p12
S'WayPoint1'
p13
sS'pose'
p14
g1
(cgeometry_msgs.msg._Pose
Pose
p15
g3
Ntp16
Rp17
(lp18
g1
(cgeometry_msgs.msg._Point
Point
p19
g3
Ntp20
Rp21
(lp22
F-6.75
aF-2.6999999999999975
aF0.0
abag1
(cgeometry_msgs.msg._Quaternion
Quaternion
p23
g3
Ntp24
Rp25
(lp26
I0
aI0
aI0
aI1
ababsS'path_len'
p27
F16.709
sS'_Destination__stats'
p28
(lp29
sS'_Destination__available'
p30
I00
sS'_Destination__remaining_idl'
p31
g1
(g8
g3
Ntp32
Rp33
(lp34
I3
aI800000000
absS'estim_idl'
p35
F64.27
sbag1
(g2
g3
Ntp36
Rp37
(dp38
g7
g10
sg12
S'WayPoint10'
p39
sg14
g1
(g15
g3
Ntp40
Rp41
(lp42
g1
(g19
g3
Ntp43
Rp44
(lp45
F1.8500000000000014
aF2.8500000000000023
aF0.0
abag1
(g23
g3
Ntp46
Rp47
(lp48
I0
aI0
aI0
aI1
ababsg27
F7.136
sg28
(lp49
sg30
I00
sg31
g1
(g8
g3
Ntp50
Rp51
(lp52
I28
aI203000000
absg35
F27.45
sbag1
(g2
g3
Ntp53
Rp54
(dp55
g7
g10
sg12
S'WayPoint11'
p56
sg14
g1
(g15
g3
Ntp57
Rp58
(lp59
g1
(g19
g3
Ntp60
Rp61
(lp62
F6.600000000000001
aF3.450000000000003
aF0.0
abag1
(g23
g3
Ntp63
Rp64
(lp65
I0
aI0
aI0
aI1
ababsg27
F0.0
sg28
(lp66
sg30
I01
sg31
g10
sg35
I0
sbag1
(g2
g3
Ntp67
Rp68
(dp69
g7
g1
(g8
g3
Ntp70
Rp71
(lp72
I33
aI400000000
absg12
S'WayPoint2'
p73
sg14
g1
(g15
g3
Ntp74
Rp75
(lp76
g1
(g19
g3
Ntp77
Rp78
(lp79
F-3.1999999999999993
aF-3.349999999999998
aF0.0
abag1
(g23
g3
Ntp80
Rp81
(lp82
I0
aI0
aI0
aI1
ababsg27
F11.362
sg28
(lp83
g1
(cdestination
Observation
p84
g3
Ntp85
Rp86
(dp87
S'idleness'
p88
g1
(cdestination
Idleness
p89
g3
Ntp90
Rp91
(dp92
S'_Idleness__true_idl'
p93
F33.4
sS'_Idleness__estim_idl'
p94
F28.63
sS'_Idleness__remaining_idl'
p95
F29.0
sbsg27
F7.444
sbasg30
I00
sg31
g1
(g8
g3
Ntp96
Rp97
(lp98
I53
aI200000000
absg35
F43.7
sbag1
(g2
g3
Ntp99
Rp100
(dp101
g7
g1
(g8
g3
Ntp102
Rp103
(lp104
I27
aI205000000
absg12
S'WayPoint3'
p105
sg14
g1
(g15
g3
Ntp106
Rp107
(lp108
g1
(g19
g3
Ntp109
Rp110
(lp111
F0.0
aF-3.349999999999998
aF0.0
abag1
(g23
g3
Ntp112
Rp113
(lp114
I0
aI0
aI0
aI1
ababsg27
F0.0
sg28
(lp115
g1
(g84
g3
Ntp116
Rp117
(dp118
g88
g1
(g89
g3
Ntp119
Rp120
(dp121
g93
F27.205
sg94
F11.52
sg95
F13.004
sbsg27
F2.996
sbasg30
I01
sg31
g103
sg35
I0
sbag1
(g2
g3
Ntp122
Rp123
(dp124
g7
g10
sg12
S'WayPoint4'
p125
sg14
g1
(g15
g3
Ntp126
Rp127
(lp128
g1
(g19
g3
Ntp129
Rp130
(lp131
F2.3500000000000014
aF-3.2499999999999982
aF0.0
abag1
(g23
g3
Ntp132
Rp133
(lp134
I0
aI0
aI0
aI1
ababsg27
F11.17
sg28
(lp135
sg30
I00
sg31
g1
(g8
g3
Ntp136
Rp137
(lp138
I34
aI400000000
absg35
F42.96
sbag1
(g2
g3
Ntp139
Rp140
(dp141
g7
g10
sg12
S'WayPoint5'
p142
sg14
g1
(g15
g3
Ntp143
Rp144
(lp145
g1
(g19
g3
Ntp146
Rp147
(lp148
F5.4
aF-3.4499999999999975
aF0.0
abag1
(g23
g3
Ntp149
Rp150
(lp151
I0
aI0
aI0
aI1
ababsg27
F13.557
sg28
(lp152
sg30
I00
sg31
g33
sg35
F52.14
sbag1
(g2
g3
Ntp153
Rp154
(dp155
g7
g1
(g8
g3
Ntp156
Rp157
(lp158
I52
aI200000000
absg12
S'WayPoint6'
p159
sg14
g1
(g15
g3
Ntp160
Rp161
(lp162
g1
(g19
g3
Ntp163
Rp164
(lp165
F4.850000000000001
aF-0.7499999999999982
aF0.0
abag1
(g23
g3
Ntp166
Rp167
(lp168
I0
aI0
aI0
aI1
ababsg27
F0.0
sg28
(lp169
g1
(g84
g3
Ntp170
Rp171
(dp172
g88
g1
(g89
g3
Ntp173
Rp174
(dp175
g93
F52.2
sg94
F44.03
sg95
F48.0
sbsg27
F11.449
sbasg30
I01
sg31
g157
sg35
I0
sbag1
(g2
g3
Ntp176
Rp177
(dp178
g7
g1
(g8
g3
Ntp179
Rp180
(lp181
I13
aI600000000
absg12
S'WayPoint7'
p182
sg14
g1
(g15
g3
Ntp183
Rp184
(lp185
g1
(g19
g3
Ntp186
Rp187
(lp188
F1.0500000000000007
aF-0.6999999999999975
aF0.0
abag1
(g23
g3
Ntp189
Rp190
(lp191
I0
aI0
aI0
aI1
ababsg27
F0.0
sg28
(lp192
g1
(g84
g3
Ntp193
Rp194
(dp195
g88
g1
(g89
g3
Ntp196
Rp197
(dp198
g93
F13.6
sg94
F11.62
sg95
F10.0
sbsg27
F3.022
sbasg30
I01
sg31
g180
sg35
I0
sbag1
(g2
g3
Ntp199
Rp200
(dp201
g7
g10
sg12
S'WayPoint8'
p202
sg14
g1
(g15
g3
Ntp203
Rp204
(lp205
g1
(g19
g3
Ntp206
Rp207
(lp208
F-3.05
aF-0.5999999999999979
aF0.0
abag1
(g23
g3
Ntp209
Rp210
(lp211
I0
aI0
aI0
aI1
ababsg27
F7.214
sg28
(lp212
sg30
I00
sg31
g33
sg35
F27.75
sbag1
(g2
g3
Ntp213
Rp214
(dp215
g7
g10
sg12
S'WayPoint9'
p216
sg14
g1
(g15
g3
Ntp217
Rp218
(lp219
g1
(g19
g3
Ntp220
Rp221
(lp222
F-1.5
aF2.700000000000003
aF0.0
abag1
(g23
g3
Ntp223
Rp224
(lp225
I0
aI0
aI0
aI1
ababsg27
F13.501
sg28
(lp226
sg30
I00
sg31
g1
(g8
g3
Ntp227
Rp228
(lp229
I4
aI400000000
absg35
F51.93
sba.