(lp0
ccopy_reg
_reconstructor
p1
(cdestination
Destination
p2
c__builtin__
object
p3
Ntp4
Rp5
(dp6
S'_Destination__latest_usage'
p7
g1
(crospy.rostime
Time
p8
g3
Ntp9
Rp10
(lp11
I0
aI0
absS'name'
p12
S'WayPoint1'
p13
sS'pose'
p14
g1
(cgeometry_msgs.msg._Pose
Pose
p15
g3
Ntp16
Rp17
(lp18
g1
(cgeometry_msgs.msg._Point
Point
p19
g3
Ntp20
Rp21
(lp22
F-6.75
aF-2.6999999999999975
aF0.0
abag1
(cgeometry_msgs.msg._Quaternion
Quaternion
p23
g3
Ntp24
Rp25
(lp26
I0
aI0
aI0
aI1
ababsS'path_len'
p27
F15.753
sS'_Destination__stats'
p28
(lp29
sS'_Destination__available'
p30
I00
sS'_Destination__remaining_idl'
p31
g1
(g8
g3
Ntp32
Rp33
(lp34
I2
aI602000000
absS'estim_idl'
p35
F60.59
sbag1
(g2
g3
Ntp36
Rp37
(dp38
g7
g10
sg12
S'WayPoint10'
p39
sg14
g1
(g15
g3
Ntp40
Rp41
(lp42
g1
(g19
g3
Ntp43
Rp44
(lp45
F1.8500000000000014
aF2.8500000000000023
aF0.0
abag1
(g23
g3
Ntp46
Rp47
(lp48
I0
aI0
aI0
aI1
ababsg27
F11.292
sg28
(lp49
sg30
I00
sg31
g1
(g8
g3
Ntp50
Rp51
(lp52
I2
aI801000000
absg35
F43.43
sbag1
(g2
g3
Ntp53
Rp54
(dp55
g7
g10
sg12
S'WayPoint11'
p56
sg14
g1
(g15
g3
Ntp57
Rp58
(lp59
g1
(g19
g3
Ntp60
Rp61
(lp62
F6.600000000000001
aF3.450000000000003
aF0.0
abag1
(g23
g3
Ntp63
Rp64
(lp65
I0
aI0
aI0
aI1
ababsg27
F0.0
sg28
(lp66
sg30
I01
sg31
g10
sg35
I0
sbag1
(g2
g3
Ntp67
Rp68
(dp69
g7
g1
(g8
g3
Ntp70
Rp71
(lp72
I44
aI0
absg12
S'WayPoint2'
p73
sg14
g1
(g15
g3
Ntp74
Rp75
(lp76
g1
(g19
g3
Ntp77
Rp78
(lp79
F-3.1999999999999993
aF-3.349999999999998
aF0.0
abag1
(g23
g3
Ntp80
Rp81
(lp82
I0
aI0
aI0
aI1
ababsg27
F7.432
sg28
(lp83
g1
(cdestination
Observation
p84
g3
Ntp85
Rp86
(dp87
S'idleness'
p88
g1
(cdestination
Idleness
p89
g3
Ntp90
Rp91
(dp92
S'_Idleness__true_idl'
p93
F44.0
sS'_Idleness__estim_idl'
p94
F37.19
sS'_Idleness__remaining_idl'
p95
F40.997
sbsg27
F9.67
sbasg30
I00
sg31
g1
(g8
g3
Ntp96
Rp97
(lp98
I54
aI400000000
absg35
F28.58
sbag1
(g2
g3
Ntp99
Rp100
(dp101
g7
g10
sg12
S'WayPoint3'
p102
sg14
g1
(g15
g3
Ntp103
Rp104
(lp105
g1
(g19
g3
Ntp106
Rp107
(lp108
F0.0
aF-3.349999999999998
aF0.0
abag1
(g23
g3
Ntp109
Rp110
(lp111
I0
aI0
aI0
aI1
ababsg27
F9.194
sg28
(lp112
sg30
I00
sg31
g33
sg35
F35.36
sbag1
(g2
g3
Ntp113
Rp114
(dp115
g7
g1
(g8
g3
Ntp116
Rp117
(lp118
I56
aI0
absg12
S'WayPoint4'
p119
sg14
g1
(g15
g3
Ntp120
Rp121
(lp122
g1
(g19
g3
Ntp123
Rp124
(lp125
F2.3500000000000014
aF-3.2499999999999982
aF0.0
abag1
(g23
g3
Ntp126
Rp127
(lp128
I0
aI0
aI0
aI1
ababsg27
F8.739
sg28
(lp129
g1
(g84
g3
Ntp130
Rp131
(dp132
g88
g1
(g89
g3
Ntp133
Rp134
(dp135
g93
F56.0
sg94
F43.12
sg95
F52.997
sbsg27
F11.211
sbasg30
I00
sg31
g1
(g8
g3
Ntp136
Rp137
(lp138
I59
aI600000000
absg35
F33.61
sbag1
(g2
g3
Ntp139
Rp140
(dp141
g7
g10
sg12
S'WayPoint5'
p142
sg14
g1
(g15
g3
Ntp143
Rp144
(lp145
g1
(g19
g3
Ntp146
Rp147
(lp148
F5.4
aF-3.4499999999999975
aF0.0
abag1
(g23
g3
Ntp149
Rp150
(lp151
I0
aI0
aI0
aI1
ababsg27
F15.835
sg28
(lp152
sg30
I00
sg31
g51
sg35
F60.9
sbag1
(g2
g3
Ntp153
Rp154
(dp155
g7
g1
(g8
g3
Ntp156
Rp157
(lp158
I37
aI0
absg12
S'WayPoint6'
p159
sg14
g1
(g15
g3
Ntp160
Rp161
(lp162
g1
(g19
g3
Ntp163
Rp164
(lp165
F4.850000000000001
aF-0.7499999999999982
aF0.0
abag1
(g23
g3
Ntp166
Rp167
(lp168
I0
aI0
aI0
aI1
ababsg27
F5.543
sg28
(lp169
g1
(g84
g3
Ntp170
Rp171
(dp172
g88
g1
(g89
g3
Ntp173
Rp174
(dp175
g93
F37.0
sg94
F29.33
sg95
F33.997
sbsg27
F7.626
sbasg30
I00
sg31
g1
(g8
g3
Ntp176
Rp177
(lp178
I56
aI403000000
absg35
F21.32
sbag1
(g2
g3
Ntp179
Rp180
(dp181
g7
g1
(g8
g3
Ntp182
Rp183
(lp184
I53
aI401000000
absg12
S'WayPoint7'
p185
sg14
g1
(g15
g3
Ntp186
Rp187
(lp188
g1
(g19
g3
Ntp189
Rp190
(lp191
F1.0500000000000007
aF-0.6999999999999975
aF0.0
abag1
(g23
g3
Ntp192
Rp193
(lp194
I0
aI0
aI0
aI1
ababsg27
F0.0
sg28
(lp195
g1
(g84
g3
Ntp196
Rp197
(dp198
g88
g1
(g89
g3
Ntp199
Rp200
(dp201
g93
F53.401
sg94
F16.99
sg95
F15.995
sbsg27
F4.417
sbasg30
I01
sg31
g183
sg35
I0
sbag1
(g2
g3
Ntp202
Rp203
(dp204
g7
g1
(g8
g3
Ntp205
Rp206
(lp207
I58
aI600000000
absg12
S'WayPoint8'
p208
sg14
g1
(g15
g3
Ntp209
Rp210
(lp211
g1
(g19
g3
Ntp212
Rp213
(lp214
F-3.05
aF-0.5999999999999979
aF0.0
abag1
(g23
g3
Ntp215
Rp216
(lp217
I0
aI0
aI0
aI1
ababsg27
F0.0
sg28
(lp218
g1
(g84
g3
Ntp219
Rp220
(dp221
g88
g1
(g89
g3
Ntp222
Rp223
(dp224
g93
F58.6
sg94
F13.13
sg95
F13.598
sbsg27
F3.414
sbasg30
I01
sg31
g206
sg35
I0
sbag1
(g2
g3
Ntp225
Rp226
(dp227
g7
g10
sg12
S'WayPoint9'
p228
sg14
g1
(g15
g3
Ntp229
Rp230
(lp231
g1
(g19
g3
Ntp232
Rp233
(lp234
F-1.5
aF2.700000000000003
aF0.0
abag1
(g23
g3
Ntp235
Rp236
(lp237
I0
aI0
aI0
aI1
ababsg27
F0.0
sg28
(lp238
sg30
I01
sg31
g10
sg35
I0
sba.