(lp0
ccopy_reg
_reconstructor
p1
(cdestination
Destination
p2
c__builtin__
object
p3
Ntp4
Rp5
(dp6
S'_Destination__latest_usage'
p7
g1
(crospy.rostime
Time
p8
g3
Ntp9
Rp10
(lp11
I0
aI0
absS'name'
p12
S'WayPoint1'
p13
sS'pose'
p14
g1
(cgeometry_msgs.msg._Pose
Pose
p15
g3
Ntp16
Rp17
(lp18
g1
(cgeometry_msgs.msg._Point
Point
p19
g3
Ntp20
Rp21
(lp22
F-2.75
aF1.0500000000000025
aF0.0
abag1
(cgeometry_msgs.msg._Quaternion
Quaternion
p23
g3
Ntp24
Rp25
(lp26
I0
aI0
aI0
aI1
ababsS'path_len'
p27
F12.55
sS'_Destination__stats'
p28
(lp29
sS'_Destination__available'
p30
I00
sS'_Destination__remaining_idl'
p31
g1
(g8
g3
Ntp32
Rp33
(lp34
I2
aI800000000
absS'estim_idl'
p35
F48.27
sbag1
(g2
g3
Ntp36
Rp37
(dp38
g7
g1
(g8
g3
Ntp39
Rp40
(lp41
I21
aI800000000
absg12
S'WayPoint2'
p42
sg14
g1
(g15
g3
Ntp43
Rp44
(lp45
g1
(g19
g3
Ntp46
Rp47
(lp48
F5.15
aF0.9000000000000021
aF0.0
abag1
(g23
g3
Ntp49
Rp50
(lp51
I0
aI0
aI0
aI1
ababsg27
F7.456
sg28
(lp52
g1
(cdestination
Observation
p53
g3
Ntp54
Rp55
(dp56
S'idleness'
p57
g1
(cdestination
Idleness
p58
g3
Ntp59
Rp60
(dp61
S'_Idleness__true_idl'
p62
F21.8
sS'_Idleness__estim_idl'
p63
F23.4
sS'_Idleness__remaining_idl'
p64
F19.0
sbsg27
F6.083
sbasg30
I00
sg31
g1
(g8
g3
Ntp65
Rp66
(lp67
I28
aI200000000
absg35
F28.68
sbag1
(g2
g3
Ntp68
Rp69
(dp70
g7
g10
sg12
S'WayPoint3'
p71
sg14
g1
(g15
g3
Ntp72
Rp73
(lp74
g1
(g19
g3
Ntp75
Rp76
(lp77
F4.850000000000001
aF3.900000000000002
aF0.0
abag1
(g23
g3
Ntp78
Rp79
(lp80
I0
aI0
aI0
aI1
ababsg27
F10.211
sg28
(lp81
sg30
I00
sg31
g1
(g8
g3
Ntp82
Rp83
(lp84
I2
aI202000000
absg35
F39.27
sbag1
(g2
g3
Ntp85
Rp86
(dp87
g7
g1
(g8
g3
Ntp88
Rp89
(lp90
I27
aI800000000
absg12
S'WayPoint4'
p91
sg14
g1
(g15
g3
Ntp92
Rp93
(lp94
g1
(g19
g3
Ntp95
Rp96
(lp97
F1.200000000000001
aF3.1000000000000023
aF0.0
abag1
(g23
g3
Ntp98
Rp99
(lp100
I0
aI0
aI0
aI1
ababsg27
F16.698
sg28
(lp101
g1
(g53
g3
Ntp102
Rp103
(dp104
g57
g1
(g58
g3
Ntp105
Rp106
(dp107
g62
F27.8
sg63
F29.48
sg64
F25.0
sbsg27
F7.664
sbasg30
I00
sg31
g1
(g8
g3
Ntp108
Rp109
(lp110
I48
aI201000000
absg35
F64.22
sbag1
(g2
g3
Ntp111
Rp112
(dp113
g7
g10
sg12
S'WayPoint5'
p114
sg14
g1
(g15
g3
Ntp115
Rp116
(lp117
g1
(g19
g3
Ntp118
Rp119
(lp120
F5.800000000000001
aF-4.349999999999998
aF0.0
abag1
(g23
g3
Ntp121
Rp122
(lp123
I0
aI0
aI0
aI1
ababsg27
F18.142
sg28
(lp124
sg30
I00
sg31
g1
(g8
g3
Ntp125
Rp126
(lp127
I3
aI200000000
absg35
F69.78
sbag1
(g2
g3
Ntp128
Rp129
(dp130
g7
g1
(g8
g3
Ntp131
Rp132
(lp133
I47
aI800000000
absg12
S'WayPoint6'
p134
sg14
g1
(g15
g3
Ntp135
Rp136
(lp137
g1
(g19
g3
Ntp138
Rp139
(lp140
F-6.15
aF3.150000000000002
aF0.0
abag1
(g23
g3
Ntp141
Rp142
(lp143
I0
aI0
aI0
aI1
ababsg27
F0.0
sg28
(lp144
g1
(g53
g3
Ntp145
Rp146
(dp147
g57
g1
(g58
g3
Ntp148
Rp149
(dp150
g62
F47.8
sg63
F19.95
sg64
F45.0
sbsg27
F5.187
sbasg30
I01
sg31
g132
sg35
I0
sbag1
(g2
g3
Ntp151
Rp152
(dp153
g7
g10
sg12
S'WayPoint7'
p154
sg14
g1
(g15
g3
Ntp155
Rp156
(lp157
g1
(g19
g3
Ntp158
Rp159
(lp160
F-6.3
aF-1.8999999999999986
aF0.0
abag1
(g23
g3
Ntp161
Rp162
(lp163
I0
aI0
aI0
aI1
ababsg27
F16.5
sg28
(lp164
sg30
I00
sg31
g1
(g8
g3
Ntp165
Rp166
(lp167
I22
aI200000000
absg35
F63.46
sba.