(lp0
ccopy_reg
_reconstructor
p1
(cdestination
Destination
p2
c__builtin__
object
p3
Ntp4
Rp5
(dp6
S'_Destination__latest_usage'
p7
g1
(crospy.rostime
Time
p8
g3
Ntp9
Rp10
(lp11
I0
aI0
absS'name'
p12
S'WayPoint1'
p13
sS'pose'
p14
g1
(cgeometry_msgs.msg._Pose
Pose
p15
g3
Ntp16
Rp17
(lp18
g1
(cgeometry_msgs.msg._Point
Point
p19
g3
Ntp20
Rp21
(lp22
F-2.75
aF1.0500000000000025
aF0.0
abag1
(cgeometry_msgs.msg._Quaternion
Quaternion
p23
g3
Ntp24
Rp25
(lp26
I0
aI0
aI0
aI1
ababsS'path_len'
p27
F13.998
sS'_Destination__stats'
p28
(lp29
sS'_Destination__available'
p30
I00
sS'_Destination__remaining_idl'
p31
g1
(g8
g3
Ntp32
Rp33
(lp34
I2
aI800000000
absS'estim_idl'
p35
F53.84
sbag1
(g2
g3
Ntp36
Rp37
(dp38
g7
g1
(g8
g3
Ntp39
Rp40
(lp41
I33
aI201000000
absg12
S'WayPoint2'
p42
sg14
g1
(g15
g3
Ntp43
Rp44
(lp45
g1
(g19
g3
Ntp46
Rp47
(lp48
F5.15
aF0.9000000000000021
aF0.0
abag1
(g23
g3
Ntp49
Rp50
(lp51
I0
aI0
aI0
aI1
ababsg27
F12.415
sg28
(lp52
g1
(cdestination
Observation
p53
g3
Ntp54
Rp55
(dp56
S'idleness'
p57
g1
(cdestination
Idleness
p58
g3
Ntp59
Rp60
(dp61
S'_Idleness__true_idl'
p62
F33.201
sS'_Idleness__estim_idl'
p63
F29.47
sS'_Idleness__remaining_idl'
p64
F30.001
sbsg27
F7.662
sbasg30
I00
sg31
g1
(g8
g3
Ntp65
Rp66
(lp67
I46
aI1000000
absg35
F47.75
sbag1
(g2
g3
Ntp68
Rp69
(dp70
g7
g1
(g8
g3
Ntp71
Rp72
(lp73
I47
aI200000000
absg12
S'WayPoint3'
p74
sg14
g1
(g15
g3
Ntp75
Rp76
(lp77
g1
(g19
g3
Ntp78
Rp79
(lp80
F4.850000000000001
aF3.900000000000002
aF0.0
abag1
(g23
g3
Ntp81
Rp82
(lp83
I0
aI0
aI0
aI1
ababsg27
F0.0
sg28
(lp84
g1
(g53
g3
Ntp85
Rp86
(dp87
g57
g1
(g58
g3
Ntp88
Rp89
(dp90
g62
F47.2
sg63
F11.99
sg64
F13.0
sbsg27
F3.117
sbasg30
I01
sg31
g72
sg35
I0
sbag1
(g2
g3
Ntp91
Rp92
(dp93
g7
g10
sg12
S'WayPoint4'
p94
sg14
g1
(g15
g3
Ntp95
Rp96
(lp97
g1
(g19
g3
Ntp98
Rp99
(lp100
F1.200000000000001
aF3.1000000000000023
aF0.0
abag1
(g23
g3
Ntp101
Rp102
(lp103
I0
aI0
aI0
aI1
ababsg27
F16.698
sg28
(lp104
sg30
I00
sg31
g33
sg35
F64.22
sbag1
(g2
g3
Ntp105
Rp106
(dp107
g7
g10
sg12
S'WayPoint5'
p108
sg14
g1
(g15
g3
Ntp109
Rp110
(lp111
g1
(g19
g3
Ntp112
Rp113
(lp114
F5.800000000000001
aF-4.349999999999998
aF0.0
abag1
(g23
g3
Ntp115
Rp116
(lp117
I0
aI0
aI0
aI1
ababsg27
F22.357
sg28
(lp118
sg30
I00
sg31
g33
sg35
F85.99
sbag1
(g2
g3
Ntp119
Rp120
(dp121
g7
g1
(g8
g3
Ntp122
Rp123
(lp124
I45
aI600000000
absg12
S'WayPoint6'
p125
sg14
g1
(g15
g3
Ntp126
Rp127
(lp128
g1
(g19
g3
Ntp129
Rp130
(lp131
F-6.15
aF3.150000000000002
aF0.0
abag1
(g23
g3
Ntp132
Rp133
(lp134
I0
aI0
aI0
aI1
ababsg27
F14.387
sg28
(lp135
g1
(g53
g3
Ntp136
Rp137
(dp138
g57
g1
(g58
g3
Ntp139
Rp140
(dp141
g62
F45.6
sg63
F47.53
sg64
F43.0
sbsg27
F12.357
sbasg30
I00
sg31
g1
(g8
g3
Ntp142
Rp143
(lp144
I48
aI201000000
absg35
F55.33
sbag1
(g2
g3
Ntp145
Rp146
(dp147
g7
g10
sg12
S'WayPoint7'
p148
sg14
g1
(g15
g3
Ntp149
Rp150
(lp151
g1
(g19
g3
Ntp152
Rp153
(lp154
F-6.3
aF-1.8999999999999986
aF0.0
abag1
(g23
g3
Ntp155
Rp156
(lp157
I0
aI0
aI0
aI1
ababsg27
F8.431
sg28
(lp158
sg30
I00
sg31
g1
(g8
g3
Ntp159
Rp160
(lp161
I2
aI600000000
absg35
F32.43
sba.