(lp0
ccopy_reg
_reconstructor
p1
(cdestination
Destination
p2
c__builtin__
object
p3
Ntp4
Rp5
(dp6
S'_Destination__latest_usage'
p7
g1
(crospy.rostime
Time
p8
g3
Ntp9
Rp10
(lp11
I0
aI0
absS'name'
p12
S'WayPoint1'
p13
sS'pose'
p14
g1
(cgeometry_msgs.msg._Pose
Pose
p15
g3
Ntp16
Rp17
(lp18
g1
(cgeometry_msgs.msg._Point
Point
p19
g3
Ntp20
Rp21
(lp22
F-2.75
aF1.0500000000000025
aF0.0
abag1
(cgeometry_msgs.msg._Quaternion
Quaternion
p23
g3
Ntp24
Rp25
(lp26
I0
aI0
aI0
aI1
ababsS'path_len'
p27
F12.55
sS'_Destination__stats'
p28
(lp29
sS'_Destination__available'
p30
I00
sS'_Destination__remaining_idl'
p31
g1
(g8
g3
Ntp32
Rp33
(lp34
I2
aI600000000
absS'estim_idl'
p35
F48.27
sbag1
(g2
g3
Ntp36
Rp37
(dp38
g7
g1
(g8
g3
Ntp39
Rp40
(lp41
I48
aI0
absg12
S'WayPoint2'
p42
sg14
g1
(g15
g3
Ntp43
Rp44
(lp45
g1
(g19
g3
Ntp46
Rp47
(lp48
F5.15
aF0.9000000000000021
aF0.0
abag1
(g23
g3
Ntp49
Rp50
(lp51
I0
aI0
aI0
aI1
ababsg27
F12.364
sg28
(lp52
g1
(cdestination
Observation
p53
g3
Ntp54
Rp55
(dp56
S'idleness'
p57
g1
(cdestination
Idleness
p58
g3
Ntp59
Rp60
(dp61
S'_Idleness__true_idl'
p62
F22.6
sS'_Idleness__estim_idl'
p63
F23.29
sS'_Idleness__remaining_idl'
p64
F20.0
sbsg27
F6.056
sbag1
(g53
g3
Ntp65
Rp66
(dp67
g57
g1
(g58
g3
Ntp68
Rp69
(dp70
g62
F25.4
sg63
F11.96
sg64
F12.0
sbsg27
F3.108
sbasg30
I00
sg31
g1
(g8
g3
Ntp71
Rp72
(lp73
I49
aI205000000
absg35
F47.55
sbag1
(g2
g3
Ntp74
Rp75
(dp76
g7
g1
(g8
g3
Ntp77
Rp78
(lp79
I35
aI200000000
absg12
S'WayPoint3'
p80
sg14
g1
(g15
g3
Ntp81
Rp82
(lp83
g1
(g19
g3
Ntp84
Rp85
(lp86
F4.850000000000001
aF3.900000000000002
aF0.0
abag1
(g23
g3
Ntp87
Rp88
(lp89
I0
aI0
aI0
aI1
ababsg27
F3.132
sg28
(lp90
g1
(g53
g3
Ntp91
Rp92
(dp93
g57
g1
(g58
g3
Ntp94
Rp95
(dp96
g62
F16.6
sg63
F11.98
sg64
F14.0
sbsg27
F3.116
sbag1
(g53
g3
Ntp97
Rp98
(dp99
g57
g1
(g58
g3
Ntp100
Rp101
(dp102
g62
F18.6
sg63
F11.98
sg64
F12.0
sbsg27
F3.116
sbasg30
I00
sg31
g72
sg35
F12.04
sbag1
(g2
g3
Ntp103
Rp104
(dp105
g7
g10
sg12
S'WayPoint4'
p106
sg14
g1
(g15
g3
Ntp107
Rp108
(lp109
g1
(g19
g3
Ntp110
Rp111
(lp112
F1.200000000000001
aF3.1000000000000023
aF0.0
abag1
(g23
g3
Ntp113
Rp114
(lp115
I0
aI0
aI0
aI1
ababsg27
F12.546
sg28
(lp116
sg30
I00
sg31
g33
sg35
F48.25
sbag1
(g2
g3
Ntp117
Rp118
(dp119
g7
g10
sg12
S'WayPoint5'
p120
sg14
g1
(g15
g3
Ntp121
Rp122
(lp123
g1
(g19
g3
Ntp124
Rp125
(lp126
F5.800000000000001
aF-4.349999999999998
aF0.0
abag1
(g23
g3
Ntp127
Rp128
(lp129
I0
aI0
aI0
aI1
ababsg27
F18.142
sg28
(lp130
sg30
I00
sg31
g1
(g8
g3
Ntp131
Rp132
(lp133
I2
aI808000000
absg35
F69.78
sbag1
(g2
g3
Ntp134
Rp135
(dp136
g7
g1
(g8
g3
Ntp137
Rp138
(lp139
I48
aI201000000
absg12
S'WayPoint6'
p140
sg14
g1
(g15
g3
Ntp141
Rp142
(lp143
g1
(g19
g3
Ntp144
Rp145
(lp146
F-6.15
aF3.150000000000002
aF0.0
abag1
(g23
g3
Ntp147
Rp148
(lp149
I0
aI0
aI0
aI1
ababsg27
F0.0
sg28
(lp150
g1
(g53
g3
Ntp151
Rp152
(dp153
g57
g1
(g58
g3
Ntp154
Rp155
(dp156
g62
F48.201
sg63
F19.9
sg64
F45.001
sbsg27
F5.173
sbasg30
I01
sg31
g138
sg35
I0
sbag1
(g2
g3
Ntp157
Rp158
(dp159
g7
g10
sg12
S'WayPoint7'
p160
sg14
g1
(g15
g3
Ntp161
Rp162
(lp163
g1
(g19
g3
Ntp164
Rp165
(lp166
F-6.3
aF-1.8999999999999986
aF0.0
abag1
(g23
g3
Ntp167
Rp168
(lp169
I0
aI0
aI0
aI1
ababsg27
F18.542
sg28
(lp170
sg30
I00
sg31
g1
(g8
g3
Ntp171
Rp172
(lp173
I17
aI201000000
absg35
F71.32
sba.