(lp0
ccopy_reg
_reconstructor
p1
(cdestination
Destination
p2
c__builtin__
object
p3
Ntp4
Rp5
(dp6
S'_Destination__latest_usage'
p7
g1
(crospy.rostime
Time
p8
g3
Ntp9
Rp10
(lp11
I0
aI0
absS'name'
p12
S'WayPoint1'
p13
sS'pose'
p14
g1
(cgeometry_msgs.msg._Pose
Pose
p15
g3
Ntp16
Rp17
(lp18
g1
(cgeometry_msgs.msg._Point
Point
p19
g3
Ntp20
Rp21
(lp22
F-2.75
aF1.0500000000000025
aF0.0
abag1
(cgeometry_msgs.msg._Quaternion
Quaternion
p23
g3
Ntp24
Rp25
(lp26
I0
aI0
aI0
aI1
ababsS'path_len'
p27
F10.202
sS'_Destination__stats'
p28
(lp29
sS'_Destination__available'
p30
I00
sS'_Destination__remaining_idl'
p31
g1
(g8
g3
Ntp32
Rp33
(lp34
I17
aI201000000
absS'estim_idl'
p35
F39.24
sbag1
(g2
g3
Ntp36
Rp37
(dp38
g7
g10
sg12
S'WayPoint2'
p39
sg14
g1
(g15
g3
Ntp40
Rp41
(lp42
g1
(g19
g3
Ntp43
Rp44
(lp45
F5.15
aF0.9000000000000021
aF0.0
abag1
(g23
g3
Ntp46
Rp47
(lp48
I0
aI0
aI0
aI1
ababsg27
F12.364
sg28
(lp49
sg30
I00
sg31
g1
(g8
g3
Ntp50
Rp51
(lp52
I2
aI600000000
absg35
F47.55
sbag1
(g2
g3
Ntp53
Rp54
(dp55
g7
g1
(g8
g3
Ntp56
Rp57
(lp58
I16
aI600000000
absg12
S'WayPoint3'
p59
sg14
g1
(g15
g3
Ntp60
Rp61
(lp62
g1
(g19
g3
Ntp63
Rp64
(lp65
F4.850000000000001
aF3.900000000000002
aF0.0
abag1
(g23
g3
Ntp66
Rp67
(lp68
I0
aI0
aI0
aI1
ababsg27
F15.507
sg28
(lp69
g1
(cdestination
Observation
p70
g3
Ntp71
Rp72
(dp73
S'idleness'
p74
g1
(cdestination
Idleness
p75
g3
Ntp76
Rp77
(dp78
S'_Idleness__true_idl'
p79
F16.6
sS'_Idleness__estim_idl'
p80
F11.98
sS'_Idleness__remaining_idl'
p81
F14.0
sbsg27
F3.116
sbasg30
I00
sg31
g1
(g8
g3
Ntp82
Rp83
(lp84
I23
aI201000000
absg35
F59.64
sbag1
(g2
g3
Ntp85
Rp86
(dp87
g7
g10
sg12
S'WayPoint4'
p88
sg14
g1
(g15
g3
Ntp89
Rp90
(lp91
g1
(g19
g3
Ntp92
Rp93
(lp94
F1.200000000000001
aF3.1000000000000023
aF0.0
abag1
(g23
g3
Ntp95
Rp96
(lp97
I0
aI0
aI0
aI1
ababsg27
F20.913
sg28
(lp98
sg30
I00
sg31
g1
(g8
g3
Ntp99
Rp100
(lp101
I3
aI200000000
absg35
F80.43
sbag1
(g2
g3
Ntp102
Rp103
(dp104
g7
g1
(g8
g3
Ntp105
Rp106
(lp107
I55
aI602000000
absg12
S'WayPoint5'
p108
sg14
g1
(g15
g3
Ntp109
Rp110
(lp111
g1
(g19
g3
Ntp112
Rp113
(lp114
F5.800000000000001
aF-4.349999999999998
aF0.0
abag1
(g23
g3
Ntp115
Rp116
(lp117
I0
aI0
aI0
aI1
ababsg27
F0.0
sg28
(lp118
g1
(g70
g3
Ntp119
Rp120
(dp121
g74
g1
(g75
g3
Ntp122
Rp123
(dp124
g79
F55.602
sg80
F51.76
sg81
F53.002
sbsg27
F13.457
sbasg30
I01
sg31
g106
sg35
I0
sbag1
(g2
g3
Ntp125
Rp126
(dp127
g7
g1
(g8
g3
Ntp128
Rp129
(lp130
I22
aI610000000
absg12
S'WayPoint6'
p131
sg14
g1
(g15
g3
Ntp132
Rp133
(lp134
g1
(g19
g3
Ntp135
Rp136
(lp137
F-6.15
aF3.150000000000002
aF0.0
abag1
(g23
g3
Ntp138
Rp139
(lp140
I0
aI0
aI0
aI1
ababsg27
F18.175
sg28
(lp141
g1
(g70
g3
Ntp142
Rp143
(dp144
g74
g1
(g75
g3
Ntp145
Rp146
(dp147
g79
F22.61
sg80
F16.38
sg81
F19.809
sbsg27
F4.258
sbasg30
I00
sg31
g1
(g8
g3
Ntp148
Rp149
(lp150
I56
aI200000000
absg35
F69.9
sbag1
(g2
g3
Ntp151
Rp152
(dp153
g7
g10
sg12
S'WayPoint7'
p154
sg14
g1
(g15
g3
Ntp155
Rp156
(lp157
g1
(g19
g3
Ntp158
Rp159
(lp160
F-6.3
aF-1.8999999999999986
aF0.0
abag1
(g23
g3
Ntp161
Rp162
(lp163
I0
aI0
aI0
aI1
ababsg27
F22.323
sg28
(lp164
sg30
I00
sg31
g51
sg35
F85.86
sba.