(lp0
ccopy_reg
_reconstructor
p1
(cdestination
Destination
p2
c__builtin__
object
p3
Ntp4
Rp5
(dp6
S'_Destination__latest_usage'
p7
g1
(crospy.rostime
Time
p8
g3
Ntp9
Rp10
(lp11
I57
aI1000000
absS'name'
p12
S'WayPoint1'
p13
sS'pose'
p14
g1
(cgeometry_msgs.msg._Pose
Pose
p15
g3
Ntp16
Rp17
(lp18
g1
(cgeometry_msgs.msg._Point
Point
p19
g3
Ntp20
Rp21
(lp22
F-2.75
aF1.0500000000000025
aF0.0
abag1
(cgeometry_msgs.msg._Quaternion
Quaternion
p23
g3
Ntp24
Rp25
(lp26
I0
aI0
aI0
aI1
ababsS'path_len'
p27
F14.505
sS'_Destination__stats'
p28
(lp29
g1
(cdestination
Observation
p30
g3
Ntp31
Rp32
(dp33
S'idleness'
p34
g1
(cdestination
Idleness
p35
g3
Ntp36
Rp37
(dp38
S'_Idleness__true_idl'
p39
F57.001
sS'_Idleness__estim_idl'
p40
F32.6
sS'_Idleness__remaining_idl'
p41
F53.999
sbsg27
F8.477
sbasS'_Destination__available'
p42
I00
sS'_Destination__remaining_idl'
p43
g1
(g8
g3
Ntp44
Rp45
(lp46
I58
aI200000000
absS'estim_idl'
p47
F55.79
sbag1
(g2
g3
Ntp48
Rp49
(dp50
g7
g1
(g8
g3
Ntp51
Rp52
(lp53
I34
aI600000000
absg12
S'WayPoint2'
p54
sg14
g1
(g15
g3
Ntp55
Rp56
(lp57
g1
(g19
g3
Ntp58
Rp59
(lp60
F5.15
aF0.9000000000000021
aF0.0
abag1
(g23
g3
Ntp61
Rp62
(lp63
I0
aI0
aI0
aI1
ababsg27
F7.472
sg28
(lp64
g1
(g30
g3
Ntp65
Rp66
(dp67
g34
g1
(g35
g3
Ntp68
Rp69
(dp70
g39
F34.6
sg40
F31.53
sg41
F32.0
sbsg27
F8.198
sbasg42
I00
sg43
g1
(g8
g3
Ntp71
Rp72
(lp73
I36
aI200000000
absg47
F28.74
sbag1
(g2
g3
Ntp74
Rp75
(dp76
g7
g1
(g8
g3
Ntp77
Rp78
(lp79
I55
aI200000000
absg12
S'WayPoint3'
p80
sg14
g1
(g15
g3
Ntp81
Rp82
(lp83
g1
(g19
g3
Ntp84
Rp85
(lp86
F4.850000000000001
aF3.900000000000002
aF0.0
abag1
(g23
g3
Ntp87
Rp88
(lp89
I0
aI0
aI0
aI1
ababsg27
F10.649
sg28
(lp90
g1
(g30
g3
Ntp91
Rp92
(dp93
g34
g1
(g35
g3
Ntp94
Rp95
(dp96
g39
F15.600999999999999
sg40
F11.98
sg41
F13.001
sbsg27
F3.116
sbag1
(g30
g3
Ntp97
Rp98
(dp99
g34
g1
(g35
g3
Ntp100
Rp101
(dp102
g39
F39.599
sg40
F15.03
sg41
F20.2
sbsg27
F3.907
sbasg42
I00
sg43
g45
sg47
F40.96
sbag1
(g2
g3
Ntp103
Rp104
(dp105
g7
g1
(g8
g3
Ntp106
Rp107
(lp108
I35
aI0
absg12
S'WayPoint4'
p109
sg14
g1
(g15
g3
Ntp110
Rp111
(lp112
g1
(g19
g3
Ntp113
Rp114
(lp115
F1.200000000000001
aF3.1000000000000023
aF0.0
abag1
(g23
g3
Ntp116
Rp117
(lp118
I0
aI0
aI0
aI1
ababsg27
F4.862
sg28
(lp119
g1
(g30
g3
Ntp120
Rp121
(dp122
g34
g1
(g35
g3
Ntp123
Rp124
(dp125
g39
F35.0
sg40
F18.68
sg41
F18.999
sbsg27
F4.857
sbasg42
I00
sg43
g1
(g8
g3
Ntp126
Rp127
(lp128
I56
aI200000000
absg47
F18.7
sbag1
(g2
g3
Ntp129
Rp130
(dp131
g7
g1
(g8
g3
Ntp132
Rp133
(lp134
I57
aI200000000
absg12
S'WayPoint5'
p135
sg14
g1
(g15
g3
Ntp136
Rp137
(lp138
g1
(g19
g3
Ntp139
Rp140
(lp141
F5.800000000000001
aF-4.349999999999998
aF0.0
abag1
(g23
g3
Ntp142
Rp143
(lp144
I0
aI0
aI0
aI1
ababsg27
F0.0
sg28
(lp145
g1
(g30
g3
Ntp146
Rp147
(dp148
g34
g1
(g35
g3
Ntp149
Rp150
(dp151
g39
F57.2
sg40
F51.76
sg41
F54.0
sbsg27
F13.457
sbasg42
I01
sg43
g133
sg47
I0
sbag1
(g2
g3
Ntp152
Rp153
(dp154
g7
g1
(g8
g3
Ntp155
Rp156
(lp157
I0
aI0
absg12
S'WayPoint6'
p158
sg14
g1
(g15
g3
Ntp159
Rp160
(lp161
g1
(g19
g3
Ntp162
Rp163
(lp164
F-6.15
aF3.150000000000002
aF0.0
abag1
(g23
g3
Ntp165
Rp166
(lp167
I0
aI0
aI0
aI1
ababsg27
F18.161
sg28
(lp168
sg42
I00
sg43
g1
(g8
g3
Ntp169
Rp170
(lp171
I2
aI600000000
absg47
F69.85
sbag1
(g2
g3
Ntp172
Rp173
(dp174
g7
g156
sg12
S'WayPoint7'
p175
sg14
g1
(g15
g3
Ntp176
Rp177
(lp178
g1
(g19
g3
Ntp179
Rp180
(lp181
F-6.3
aF-1.8999999999999986
aF0.0
abag1
(g23
g3
Ntp182
Rp183
(lp184
I0
aI0
aI0
aI1
ababsg27
F5.146
sg28
(lp185
sg42
I00
sg43
g170
sg47
F19.79
sba.