(lp0
ccopy_reg
_reconstructor
p1
(cdestination
Destination
p2
c__builtin__
object
p3
Ntp4
Rp5
(dp6
S'_Destination__latest_usage'
p7
g1
(crospy.rostime
Time
p8
g3
Ntp9
Rp10
(lp11
I0
aI0
absS'name'
p12
S'WayPoint1'
p13
sS'pose'
p14
g1
(cgeometry_msgs.msg._Pose
Pose
p15
g3
Ntp16
Rp17
(lp18
g1
(cgeometry_msgs.msg._Point
Point
p19
g3
Ntp20
Rp21
(lp22
F-2.75
aF1.0500000000000025
aF0.0
abag1
(cgeometry_msgs.msg._Quaternion
Quaternion
p23
g3
Ntp24
Rp25
(lp26
I0
aI0
aI0
aI1
ababsS'path_len'
p27
F12.55
sS'_Destination__stats'
p28
(lp29
sS'_Destination__available'
p30
I00
sS'_Destination__remaining_idl'
p31
g1
(g8
g3
Ntp32
Rp33
(lp34
I3
aI200000000
absS'estim_idl'
p35
F48.27
sbag1
(g2
g3
Ntp36
Rp37
(dp38
g7
g1
(g8
g3
Ntp39
Rp40
(lp41
I37
aI200000000
absg12
S'WayPoint2'
p42
sg14
g1
(g15
g3
Ntp43
Rp44
(lp45
g1
(g19
g3
Ntp46
Rp47
(lp48
F5.15
aF0.9000000000000021
aF0.0
abag1
(g23
g3
Ntp49
Rp50
(lp51
I0
aI0
aI0
aI1
ababsg27
F12.364
sg28
(lp52
g1
(cdestination
Observation
p53
g3
Ntp54
Rp55
(dp56
S'idleness'
p57
g1
(cdestination
Idleness
p58
g3
Ntp59
Rp60
(dp61
S'_Idleness__true_idl'
p62
F37.2
sS'_Idleness__estim_idl'
p63
F11.98
sS'_Idleness__remaining_idl'
p64
F21.199
sbsg27
F3.116
sbasg30
I00
sg31
g1
(g8
g3
Ntp65
Rp66
(lp67
I48
aI200000000
absg35
F47.55
sbag1
(g2
g3
Ntp68
Rp69
(dp70
g7
g1
(g8
g3
Ntp71
Rp72
(lp73
I15
aI600000000
absg12
S'WayPoint3'
p74
sg14
g1
(g15
g3
Ntp75
Rp76
(lp77
g1
(g19
g3
Ntp78
Rp79
(lp80
F4.850000000000001
aF3.900000000000002
aF0.0
abag1
(g23
g3
Ntp81
Rp82
(lp83
I0
aI0
aI0
aI1
ababsg27
F18.777
sg28
(lp84
g1
(g53
g3
Ntp85
Rp86
(dp87
g57
g1
(g58
g3
Ntp88
Rp89
(dp90
g62
F15.6
sg63
F11.98
sg64
F12.993
sbsg27
F3.116
sbasg30
I00
sg31
g1
(g8
g3
Ntp91
Rp92
(lp93
I34
aI0
absg35
F72.22
sbag1
(g2
g3
Ntp94
Rp95
(dp96
g7
g1
(g8
g3
Ntp97
Rp98
(lp99
I48
aI600000000
absg12
S'WayPoint4'
p100
sg14
g1
(g15
g3
Ntp101
Rp102
(lp103
g1
(g19
g3
Ntp104
Rp105
(lp106
F1.200000000000001
aF3.1000000000000023
aF0.0
abag1
(g23
g3
Ntp107
Rp108
(lp109
I0
aI0
aI0
aI1
ababsg27
F0.0
sg28
(lp110
g1
(g53
g3
Ntp111
Rp112
(dp113
g57
g1
(g58
g3
Ntp114
Rp115
(dp116
g62
F48.6
sg63
F51.89
sg64
F45.993
sbsg27
F13.492
sbasg30
I01
sg31
g98
sg35
I0
sbag1
(g2
g3
Ntp117
Rp118
(dp119
g7
g10
sg12
S'WayPoint5'
p120
sg14
g1
(g15
g3
Ntp121
Rp122
(lp123
g1
(g19
g3
Ntp124
Rp125
(lp126
F5.800000000000001
aF-4.349999999999998
aF0.0
abag1
(g23
g3
Ntp127
Rp128
(lp129
I0
aI0
aI0
aI1
ababsg27
F13.986
sg28
(lp130
sg30
I00
sg31
g1
(g8
g3
Ntp131
Rp132
(lp133
I2
aI607000000
absg35
F53.79
sbag1
(g2
g3
Ntp134
Rp135
(dp136
g7
g1
(g8
g3
Ntp137
Rp138
(lp139
I47
aI601000000
absg12
S'WayPoint6'
p140
sg14
g1
(g15
g3
Ntp141
Rp142
(lp143
g1
(g19
g3
Ntp144
Rp145
(lp146
F-6.15
aF3.150000000000002
aF0.0
abag1
(g23
g3
Ntp147
Rp148
(lp149
I0
aI0
aI0
aI1
ababsg27
F16.696
sg28
(lp150
g1
(g53
g3
Ntp151
Rp152
(dp153
g57
g1
(g58
g3
Ntp154
Rp155
(dp156
g62
F47.601
sg63
F19.9
sg64
F44.994
sbsg27
F5.173
sbasg30
I00
sg31
g1
(g8
g3
Ntp157
Rp158
(lp159
I49
aI200000000
absg35
F64.22
sbag1
(g2
g3
Ntp160
Rp161
(dp162
g7
g1
(g8
g3
Ntp163
Rp164
(lp165
I33
aI200000000
absg12
S'WayPoint7'
p166
sg14
g1
(g15
g3
Ntp167
Rp168
(lp169
g1
(g19
g3
Ntp170
Rp171
(lp172
F-6.3
aF-1.8999999999999986
aF0.0
abag1
(g23
g3
Ntp173
Rp174
(lp175
I0
aI0
aI0
aI1
ababsg27
F16.5
sg28
(lp176
g1
(g53
g3
Ntp177
Rp178
(dp179
g57
g1
(g58
g3
Ntp180
Rp181
(dp182
g62
F33.2
sg63
F19.79
sg64
F30.0
sbsg27
F5.146
sbasg30
I00
sg31
g1
(g8
g3
Ntp183
Rp184
(lp185
I38
aI201000000
absg35
F63.46
sba.