(lp0
ccopy_reg
_reconstructor
p1
(cdestination
Destination
p2
c__builtin__
object
p3
Ntp4
Rp5
(dp6
S'_Destination__latest_usage'
p7
g1
(crospy.rostime
Time
p8
g3
Ntp9
Rp10
(lp11
I17
aI600000000
absS'name'
p12
S'WayPoint1'
p13
sS'pose'
p14
g1
(cgeometry_msgs.msg._Pose
Pose
p15
g3
Ntp16
Rp17
(lp18
g1
(cgeometry_msgs.msg._Point
Point
p19
g3
Ntp20
Rp21
(lp22
F-2.75
aF1.0500000000000025
aF0.0
abag1
(cgeometry_msgs.msg._Quaternion
Quaternion
p23
g3
Ntp24
Rp25
(lp26
I0
aI0
aI0
aI1
ababsS'path_len'
p27
F8.184
sS'_Destination__stats'
p28
(lp29
g1
(cdestination
Observation
p30
g3
Ntp31
Rp32
(dp33
S'idleness'
p34
g1
(cdestination
Idleness
p35
g3
Ntp36
Rp37
(dp38
S'_Idleness__true_idl'
p39
F17.6
sS'_Idleness__estim_idl'
p40
F16.4
sS'_Idleness__remaining_idl'
p41
F14.999
sbsg27
F4.264
sbasS'_Destination__available'
p42
I00
sS'_Destination__remaining_idl'
p43
g1
(g8
g3
Ntp44
Rp45
(lp46
I21
aI201000000
absS'estim_idl'
p47
F31.48
sbag1
(g2
g3
Ntp48
Rp49
(dp50
g7
g1
(g8
g3
Ntp51
Rp52
(lp53
I20
aI600000000
absg12
S'WayPoint2'
p54
sg14
g1
(g15
g3
Ntp55
Rp56
(lp57
g1
(g19
g3
Ntp58
Rp59
(lp60
F5.15
aF0.9000000000000021
aF0.0
abag1
(g23
g3
Ntp61
Rp62
(lp63
I0
aI0
aI0
aI1
ababsg27
F12.364
sg28
(lp64
g1
(g30
g3
Ntp65
Rp66
(dp67
g34
g1
(g35
g3
Ntp68
Rp69
(dp70
g39
F20.6
sg40
F23.7
sg41
F17.999
sbsg27
F6.161
sbasg42
I00
sg43
g1
(g8
g3
Ntp71
Rp72
(lp73
I48
aI200000000
absg47
F47.55
sbag1
(g2
g3
Ntp74
Rp75
(dp76
g7
g1
(g8
g3
Ntp77
Rp78
(lp79
I15
aI800000000
absg12
S'WayPoint3'
p80
sg14
g1
(g15
g3
Ntp81
Rp82
(lp83
g1
(g19
g3
Ntp84
Rp85
(lp86
F4.850000000000001
aF3.900000000000002
aF0.0
abag1
(g23
g3
Ntp87
Rp88
(lp89
I0
aI0
aI0
aI1
ababsg27
F10.211
sg28
(lp90
g1
(g30
g3
Ntp91
Rp92
(dp93
g34
g1
(g35
g3
Ntp94
Rp95
(dp96
g39
F15.8
sg40
F11.98
sg41
F12.996
sbsg27
F3.116
sbasg42
I00
sg43
g1
(g8
g3
Ntp97
Rp98
(lp99
I18
aI200000000
absg47
F39.27
sbag1
(g2
g3
Ntp100
Rp101
(dp102
g7
g1
(g8
g3
Ntp103
Rp104
(lp105
I0
aI0
absg12
S'WayPoint4'
p106
sg14
g1
(g15
g3
Ntp107
Rp108
(lp109
g1
(g19
g3
Ntp110
Rp111
(lp112
F1.200000000000001
aF3.1000000000000023
aF0.0
abag1
(g23
g3
Ntp113
Rp114
(lp115
I0
aI0
aI0
aI1
ababsg27
F12.546
sg28
(lp116
sg42
I00
sg43
g1
(g8
g3
Ntp117
Rp118
(lp119
I2
aI601000000
absg47
F48.25
sbag1
(g2
g3
Ntp120
Rp121
(dp122
g7
g1
(g8
g3
Ntp123
Rp124
(lp125
I57
aI200000000
absg12
S'WayPoint5'
p126
sg14
g1
(g15
g3
Ntp127
Rp128
(lp129
g1
(g19
g3
Ntp130
Rp131
(lp132
F5.800000000000001
aF-4.349999999999998
aF0.0
abag1
(g23
g3
Ntp133
Rp134
(lp135
I0
aI0
aI0
aI1
ababsg27
F0.0
sg28
(lp136
g1
(g30
g3
Ntp137
Rp138
(dp139
g34
g1
(g35
g3
Ntp140
Rp141
(dp142
g39
F57.2
sg40
F51.76
sg41
F54.396
sbsg27
F13.457
sbasg42
I01
sg43
g124
sg47
I0
sbag1
(g2
g3
Ntp143
Rp144
(dp145
g7
g1
(g8
g3
Ntp146
Rp147
(lp148
I47
aI600000000
absg12
S'WayPoint6'
p149
sg14
g1
(g15
g3
Ntp150
Rp151
(lp152
g1
(g19
g3
Ntp153
Rp154
(lp155
F-6.15
aF3.150000000000002
aF0.0
abag1
(g23
g3
Ntp156
Rp157
(lp158
I0
aI0
aI0
aI1
ababsg27
F18.566
sg28
(lp159
g1
(g30
g3
Ntp160
Rp161
(dp162
g34
g1
(g35
g3
Ntp163
Rp164
(dp165
g39
F47.6
sg40
F19.95
sg41
F44.999
sbsg27
F5.187
sbasg42
I00
sg43
g1
(g8
g3
Ntp166
Rp167
(lp168
I58
aI202000000
absg47
F71.41
sbag1
(g2
g3
Ntp169
Rp170
(dp171
g7
g104
sg12
S'WayPoint7'
p172
sg14
g1
(g15
g3
Ntp173
Rp174
(lp175
g1
(g19
g3
Ntp176
Rp177
(lp178
F-6.3
aF-1.8999999999999986
aF0.0
abag1
(g23
g3
Ntp179
Rp180
(lp181
I0
aI0
aI0
aI1
ababsg27
F18.542
sg28
(lp182
sg42
I00
sg43
g1
(g8
g3
Ntp183
Rp184
(lp185
I16
aI800000000
absg47
F71.32
sba.