(lp0
ccopy_reg
_reconstructor
p1
(cdestination
Destination
p2
c__builtin__
object
p3
Ntp4
Rp5
(dp6
S'_Destination__latest_usage'
p7
g1
(crospy.rostime
Time
p8
g3
Ntp9
Rp10
(lp11
I55
aI800000000
absS'name'
p12
S'WayPoint1'
p13
sS'pose'
p14
g1
(cgeometry_msgs.msg._Pose
Pose
p15
g3
Ntp16
Rp17
(lp18
g1
(cgeometry_msgs.msg._Point
Point
p19
g3
Ntp20
Rp21
(lp22
F-2.75
aF1.0500000000000025
aF0.0
abag1
(cgeometry_msgs.msg._Quaternion
Quaternion
p23
g3
Ntp24
Rp25
(lp26
I0
aI0
aI0
aI1
ababsS'path_len'
p27
F0.0
sS'_Destination__stats'
p28
(lp29
g1
(cdestination
Observation
p30
g3
Ntp31
Rp32
(dp33
S'idleness'
p34
g1
(cdestination
Idleness
p35
g3
Ntp36
Rp37
(dp38
S'_Idleness__true_idl'
p39
F18.6
sS'_Idleness__estim_idl'
p40
F16.4
sS'_Idleness__remaining_idl'
p41
F16.0
sbsg27
F4.264
sbag1
(g30
g3
Ntp42
Rp43
(dp44
g34
g1
(g35
g3
Ntp45
Rp46
(dp47
g39
F37.2
sg40
F16.43
sg41
F35.0
sbsg27
F4.271
sbasS'_Destination__available'
p48
I01
sS'_Destination__remaining_idl'
p49
g10
sS'estim_idl'
p50
I0
sbag1
(g2
g3
Ntp51
Rp52
(dp53
g7
g1
(g8
g3
Ntp54
Rp55
(lp56
I0
aI0
absg12
S'WayPoint2'
p57
sg14
g1
(g15
g3
Ntp58
Rp59
(lp60
g1
(g19
g3
Ntp61
Rp62
(lp63
F5.15
aF0.9000000000000021
aF0.0
abag1
(g23
g3
Ntp64
Rp65
(lp66
I0
aI0
aI0
aI1
ababsg27
F7.662
sg28
(lp67
sg48
I00
sg49
g1
(g8
g3
Ntp68
Rp69
(lp70
I2
aI600000000
absg50
F29.47
sbag1
(g2
g3
Ntp71
Rp72
(dp73
g7
g55
sg12
S'WayPoint3'
p74
sg14
g1
(g15
g3
Ntp75
Rp76
(lp77
g1
(g19
g3
Ntp78
Rp79
(lp80
F4.850000000000001
aF3.900000000000002
aF0.0
abag1
(g23
g3
Ntp81
Rp82
(lp83
I0
aI0
aI0
aI1
ababsg27
F8.942
sg28
(lp84
sg48
I00
sg49
g1
(g8
g3
Ntp85
Rp86
(lp87
I3
aI200000000
absg50
F34.39
sbag1
(g2
g3
Ntp88
Rp89
(dp90
g7
g55
sg12
S'WayPoint4'
p91
sg14
g1
(g15
g3
Ntp92
Rp93
(lp94
g1
(g19
g3
Ntp95
Rp96
(lp97
F1.200000000000001
aF3.1000000000000023
aF0.0
abag1
(g23
g3
Ntp98
Rp99
(lp100
I0
aI0
aI0
aI1
ababsg27
F20.913
sg28
(lp101
sg48
I00
sg49
g1
(g8
g3
Ntp102
Rp103
(lp104
I2
aI800000000
absg50
F80.43
sbag1
(g2
g3
Ntp105
Rp106
(dp107
g7
g1
(g8
g3
Ntp108
Rp109
(lp110
I39
aI600000000
absg12
S'WayPoint5'
p111
sg14
g1
(g15
g3
Ntp112
Rp113
(lp114
g1
(g19
g3
Ntp115
Rp116
(lp117
F5.800000000000001
aF-4.349999999999998
aF0.0
abag1
(g23
g3
Ntp118
Rp119
(lp120
I0
aI0
aI0
aI1
ababsg27
F18.997
sg28
(lp121
g1
(g30
g3
Ntp122
Rp123
(dp124
g34
g1
(g35
g3
Ntp125
Rp126
(dp127
g39
F39.6
sg40
F23.26
sg41
F37.0
sbsg27
F6.047
sbasg48
I00
sg49
g1
(g8
g3
Ntp128
Rp129
(lp130
I46
aI0
absg50
F73.06
sbag1
(g2
g3
Ntp131
Rp132
(dp133
g7
g1
(g8
g3
Ntp134
Rp135
(lp136
I45
aI600000000
absg12
S'WayPoint6'
p137
sg14
g1
(g15
g3
Ntp138
Rp139
(lp140
g1
(g19
g3
Ntp141
Rp142
(lp143
F-6.15
aF3.150000000000002
aF0.0
abag1
(g23
g3
Ntp144
Rp145
(lp146
I0
aI0
aI0
aI1
ababsg27
F19.207
sg28
(lp147
g1
(g30
g3
Ntp148
Rp149
(dp150
g34
g1
(g35
g3
Ntp151
Rp152
(dp153
g39
F20.2
sg40
F16.38
sg41
F17.0
sbsg27
F4.258
sbag1
(g30
g3
Ntp154
Rp155
(dp156
g34
g1
(g35
g3
Ntp157
Rp158
(dp159
g39
F25.4
sg40
F16.16
sg41
F24.999
sbsg27
F4.201
sbasg48
I00
sg49
g129
sg50
F73.87
sbag1
(g2
g3
Ntp160
Rp161
(dp162
g7
g55
sg12
S'WayPoint7'
p163
sg14
g1
(g15
g3
Ntp164
Rp165
(lp166
g1
(g19
g3
Ntp167
Rp168
(lp169
F-6.3
aF-1.8999999999999986
aF0.0
abag1
(g23
g3
Ntp170
Rp171
(lp172
I0
aI0
aI0
aI1
ababsg27
F8.431
sg28
(lp173
sg48
I00
sg49
g69
sg50
F32.43
sba.