(lp0
ccopy_reg
_reconstructor
p1
(cdestination
Destination
p2
c__builtin__
object
p3
Ntp4
Rp5
(dp6
S'_Destination__latest_usage'
p7
g1
(crospy.rostime
Time
p8
g3
Ntp9
Rp10
(lp11
I57
aI400000000
absS'name'
p12
S'WayPoint1'
p13
sS'pose'
p14
g1
(cgeometry_msgs.msg._Pose
Pose
p15
g3
Ntp16
Rp17
(lp18
g1
(cgeometry_msgs.msg._Point
Point
p19
g3
Ntp20
Rp21
(lp22
F-2.75
aF1.0500000000000025
aF0.0
abag1
(cgeometry_msgs.msg._Quaternion
Quaternion
p23
g3
Ntp24
Rp25
(lp26
I0
aI0
aI0
aI1
ababsS'path_len'
p27
F4.264
sS'_Destination__stats'
p28
(lp29
g1
(cdestination
Observation
p30
g3
Ntp31
Rp32
(dp33
S'idleness'
p34
g1
(cdestination
Idleness
p35
g3
Ntp36
Rp37
(dp38
S'_Idleness__true_idl'
p39
F57.4
sS'_Idleness__estim_idl'
p40
F53.84
sS'_Idleness__remaining_idl'
p41
F53.996
sbsg27
F13.998
sbasS'_Destination__available'
p42
I00
sS'_Destination__remaining_idl'
p43
g1
(g8
g3
Ntp44
Rp45
(lp46
I57
aI800000000
absS'estim_idl'
p47
F16.4
sbag1
(g2
g3
Ntp48
Rp49
(dp50
g7
g1
(g8
g3
Ntp51
Rp52
(lp53
I37
aI600000000
absg12
S'WayPoint2'
p54
sg14
g1
(g15
g3
Ntp55
Rp56
(lp57
g1
(g19
g3
Ntp58
Rp59
(lp60
F5.15
aF0.9000000000000021
aF0.0
abag1
(g23
g3
Ntp61
Rp62
(lp63
I0
aI0
aI0
aI1
ababsg27
F7.453
sg28
(lp64
g1
(g30
g3
Ntp65
Rp66
(dp67
g34
g1
(g35
g3
Ntp68
Rp69
(dp70
g39
F37.6
sg40
F31.53
sg41
F35.0
sbsg27
F8.198
sbasg42
I00
sg43
g1
(g8
g3
Ntp71
Rp72
(lp73
I38
aI200000000
absg47
F28.66
sbag1
(g2
g3
Ntp74
Rp75
(dp76
g7
g1
(g8
g3
Ntp77
Rp78
(lp79
I0
aI0
absg12
S'WayPoint3'
p80
sg14
g1
(g15
g3
Ntp81
Rp82
(lp83
g1
(g19
g3
Ntp84
Rp85
(lp86
F4.850000000000001
aF3.900000000000002
aF0.0
abag1
(g23
g3
Ntp87
Rp88
(lp89
I0
aI0
aI0
aI1
ababsg27
F14.369
sg28
(lp90
sg42
I00
sg43
g1
(g8
g3
Ntp91
Rp92
(lp93
I2
aI600000000
absg47
F55.27
sbag1
(g2
g3
Ntp94
Rp95
(dp96
g7
g1
(g8
g3
Ntp97
Rp98
(lp99
I26
aI600000000
absg12
S'WayPoint4'
p100
sg14
g1
(g15
g3
Ntp101
Rp102
(lp103
g1
(g19
g3
Ntp104
Rp105
(lp106
F1.200000000000001
aF3.1000000000000023
aF0.0
abag1
(g23
g3
Ntp107
Rp108
(lp109
I0
aI0
aI0
aI1
ababsg27
F8.026
sg28
(lp110
g1
(g30
g3
Ntp111
Rp112
(dp113
g34
g1
(g35
g3
Ntp114
Rp115
(dp116
g39
F26.6
sg40
F29.48
sg41
F24.0
sbsg27
F7.664
sbasg42
I00
sg43
g72
sg47
F30.87
sbag1
(g2
g3
Ntp117
Rp118
(dp119
g7
g78
sg12
S'WayPoint5'
p120
sg14
g1
(g15
g3
Ntp121
Rp122
(lp123
g1
(g19
g3
Ntp124
Rp125
(lp126
F5.800000000000001
aF-4.349999999999998
aF0.0
abag1
(g23
g3
Ntp127
Rp128
(lp129
I0
aI0
aI0
aI1
ababsg27
F13.986
sg28
(lp130
sg42
I00
sg43
g1
(g8
g3
Ntp131
Rp132
(lp133
I2
aI800000000
absg47
F53.79
sbag1
(g2
g3
Ntp134
Rp135
(dp136
g7
g1
(g8
g3
Ntp137
Rp138
(lp139
I46
aI802000000
absg12
S'WayPoint6'
p140
sg14
g1
(g15
g3
Ntp141
Rp142
(lp143
g1
(g19
g3
Ntp144
Rp145
(lp146
F-6.15
aF3.150000000000002
aF0.0
abag1
(g23
g3
Ntp147
Rp148
(lp149
I0
aI0
aI0
aI1
ababsg27
F4.272
sg28
(lp150
g1
(g30
g3
Ntp151
Rp152
(dp153
g34
g1
(g35
g3
Ntp154
Rp155
(dp156
g39
F46.802
sg40
F19.95
sg41
F44.002
sbsg27
F5.187
sbasg42
I00
sg43
g45
sg47
F16.43
sbag1
(g2
g3
Ntp157
Rp158
(dp159
g7
g78
sg12
S'WayPoint7'
p160
sg14
g1
(g15
g3
Ntp161
Rp162
(lp163
g1
(g19
g3
Ntp164
Rp165
(lp166
F-6.3
aF-1.8999999999999986
aF0.0
abag1
(g23
g3
Ntp167
Rp168
(lp169
I0
aI0
aI0
aI1
ababsg27
F20.88
sg28
(lp170
sg42
I00
sg43
g92
sg47
F80.31
sba.