(lp0
ccopy_reg
_reconstructor
p1
(cdestination
Destination
p2
c__builtin__
object
p3
Ntp4
Rp5
(dp6
S'_Destination__latest_usage'
p7
g1
(crospy.rostime
Time
p8
g3
Ntp9
Rp10
(lp11
I25
aI600000000
absS'name'
p12
S'WayPoint1'
p13
sS'pose'
p14
g1
(cgeometry_msgs.msg._Pose
Pose
p15
g3
Ntp16
Rp17
(lp18
g1
(cgeometry_msgs.msg._Point
Point
p19
g3
Ntp20
Rp21
(lp22
F-2.75
aF1.0500000000000025
aF0.0
abag1
(cgeometry_msgs.msg._Quaternion
Quaternion
p23
g3
Ntp24
Rp25
(lp26
I0
aI0
aI0
aI1
ababsS'path_len'
p27
F10.876
sS'_Destination__stats'
p28
(lp29
g1
(cdestination
Observation
p30
g3
Ntp31
Rp32
(dp33
S'idleness'
p34
g1
(cdestination
Idleness
p35
g3
Ntp36
Rp37
(dp38
S'_Idleness__true_idl'
p39
F25.6
sS'_Idleness__estim_idl'
p40
F16.4
sS'_Idleness__remaining_idl'
p41
F23.0
sbsg27
F4.264
sbasS'_Destination__available'
p42
I00
sS'_Destination__remaining_idl'
p43
g1
(g8
g3
Ntp44
Rp45
(lp46
I35
aI600000000
absS'estim_idl'
p47
F41.83
sbag1
(g2
g3
Ntp48
Rp49
(dp50
g7
g1
(g8
g3
Ntp51
Rp52
(lp53
I40
aI601000000
absg12
S'WayPoint2'
p54
sg14
g1
(g15
g3
Ntp55
Rp56
(lp57
g1
(g19
g3
Ntp58
Rp59
(lp60
F5.15
aF0.9000000000000021
aF0.0
abag1
(g23
g3
Ntp61
Rp62
(lp63
I0
aI0
aI0
aI1
ababsg27
F12.786
sg28
(lp64
g1
(g30
g3
Ntp65
Rp66
(dp67
g34
g1
(g35
g3
Ntp68
Rp69
(dp70
g39
F40.601
sg40
F29.47
sg41
F38.001
sbsg27
F7.662
sbasg42
I00
sg43
g1
(g8
g3
Ntp71
Rp72
(lp73
I50
aI206000000
absg47
F49.18
sbag1
(g2
g3
Ntp74
Rp75
(dp76
g7
g1
(g8
g3
Ntp77
Rp78
(lp79
I35
aI202000000
absg12
S'WayPoint3'
p80
sg14
g1
(g15
g3
Ntp81
Rp82
(lp83
g1
(g19
g3
Ntp84
Rp85
(lp86
F4.850000000000001
aF3.900000000000002
aF0.0
abag1
(g23
g3
Ntp87
Rp88
(lp89
I0
aI0
aI0
aI1
ababsg27
F11.184
sg28
(lp90
g1
(g30
g3
Ntp91
Rp92
(dp93
g34
g1
(g35
g3
Ntp94
Rp95
(dp96
g39
F35.202
sg40
F34.39
sg41
F32.002
sbsg27
F8.942
sbasg42
I00
sg43
g45
sg47
F43.01
sbag1
(g2
g3
Ntp97
Rp98
(dp99
g7
g1
(g8
g3
Ntp100
Rp101
(lp102
I0
aI0
absg12
S'WayPoint4'
p103
sg14
g1
(g15
g3
Ntp104
Rp105
(lp106
g1
(g19
g3
Ntp107
Rp108
(lp109
F1.200000000000001
aF3.1000000000000023
aF0.0
abag1
(g23
g3
Ntp110
Rp111
(lp112
I0
aI0
aI0
aI1
ababsg27
F12.546
sg28
(lp113
sg42
I00
sg43
g1
(g8
g3
Ntp114
Rp115
(lp116
I3
aI200000000
absg47
F48.25
sbag1
(g2
g3
Ntp117
Rp118
(dp119
g7
g101
sg12
S'WayPoint5'
p120
sg14
g1
(g15
g3
Ntp121
Rp122
(lp123
g1
(g19
g3
Ntp124
Rp125
(lp126
F5.800000000000001
aF-4.349999999999998
aF0.0
abag1
(g23
g3
Ntp127
Rp128
(lp129
I0
aI0
aI0
aI1
ababsg27
F22.365
sg28
(lp130
sg42
I00
sg43
g115
sg47
F86.02
sbag1
(g2
g3
Ntp131
Rp132
(dp133
g7
g1
(g8
g3
Ntp134
Rp135
(lp136
I49
aI601000000
absg12
S'WayPoint6'
p137
sg14
g1
(g15
g3
Ntp138
Rp139
(lp140
g1
(g19
g3
Ntp141
Rp142
(lp143
F-6.15
aF3.150000000000002
aF0.0
abag1
(g23
g3
Ntp144
Rp145
(lp146
I0
aI0
aI0
aI1
ababsg27
F12.338
sg28
(lp147
g1
(g30
g3
Ntp148
Rp149
(dp150
g34
g1
(g35
g3
Ntp151
Rp152
(dp153
g39
F49.601
sg40
F47.56
sg41
F47.001
sbsg27
F12.365
sbasg42
I00
sg43
g72
sg47
F47.45
sbag1
(g2
g3
Ntp154
Rp155
(dp156
g7
g101
sg12
S'WayPoint7'
p157
sg14
g1
(g15
g3
Ntp158
Rp159
(lp160
g1
(g19
g3
Ntp161
Rp162
(lp163
F-6.3
aF-1.8999999999999986
aF0.0
abag1
(g23
g3
Ntp164
Rp165
(lp166
I0
aI0
aI0
aI1
ababsg27
F8.431
sg28
(lp167
sg42
I00
sg43
g1
(g8
g3
Ntp168
Rp169
(lp170
I2
aI600000000
absg47
F32.43
sba.