(lp0
ccopy_reg
_reconstructor
p1
(cdestination
Destination
p2
c__builtin__
object
p3
Ntp4
Rp5
(dp6
S'_Destination__latest_usage'
p7
g1
(crospy.rostime
Time
p8
g3
Ntp9
Rp10
(lp11
I29
aI800000000
absS'name'
p12
S'WayPoint1'
p13
sS'pose'
p14
g1
(cgeometry_msgs.msg._Pose
Pose
p15
g3
Ntp16
Rp17
(lp18
g1
(cgeometry_msgs.msg._Point
Point
p19
g3
Ntp20
Rp21
(lp22
F-2.75
aF1.0500000000000025
aF0.0
abag1
(cgeometry_msgs.msg._Quaternion
Quaternion
p23
g3
Ntp24
Rp25
(lp26
I0
aI0
aI0
aI1
ababsS'path_len'
p27
F10.434
sS'_Destination__stats'
p28
(lp29
g1
(cdestination
Observation
p30
g3
Ntp31
Rp32
(dp33
S'idleness'
p34
g1
(cdestination
Idleness
p35
g3
Ntp36
Rp37
(dp38
S'_Idleness__true_idl'
p39
F29.8
sS'_Idleness__estim_idl'
p40
F31.48
sS'_Idleness__remaining_idl'
p41
F27.0
sbsg27
F8.184
sbasS'_Destination__available'
p42
I00
sS'_Destination__remaining_idl'
p43
g1
(g8
g3
Ntp44
Rp45
(lp46
I59
aI200000000
absS'estim_idl'
p47
F40.13
sbag1
(g2
g3
Ntp48
Rp49
(dp50
g7
g1
(g8
g3
Ntp51
Rp52
(lp53
I0
aI0
absg12
S'WayPoint2'
p54
sg14
g1
(g15
g3
Ntp55
Rp56
(lp57
g1
(g19
g3
Ntp58
Rp59
(lp60
F5.15
aF0.9000000000000021
aF0.0
abag1
(g23
g3
Ntp61
Rp62
(lp63
I0
aI0
aI0
aI1
ababsg27
F8.198
sg28
(lp64
sg42
I00
sg43
g1
(g8
g3
Ntp65
Rp66
(lp67
I3
aI401000000
absg47
F31.53
sbag1
(g2
g3
Ntp68
Rp69
(dp70
g7
g1
(g8
g3
Ntp71
Rp72
(lp73
I58
aI800000000
absg12
S'WayPoint3'
p74
sg14
g1
(g15
g3
Ntp75
Rp76
(lp77
g1
(g19
g3
Ntp78
Rp79
(lp80
F4.850000000000001
aF3.900000000000002
aF0.0
abag1
(g23
g3
Ntp81
Rp82
(lp83
I0
aI0
aI0
aI1
ababsg27
F0.0
sg28
(lp84
g1
(g30
g3
Ntp85
Rp86
(dp87
g34
g1
(g35
g3
Ntp88
Rp89
(dp90
g39
F58.8
sg40
F34.39
sg41
F56.0
sbsg27
F8.942
sbasg42
I01
sg43
g72
sg47
I0
sbag1
(g2
g3
Ntp91
Rp92
(dp93
g7
g52
sg12
S'WayPoint4'
p94
sg14
g1
(g15
g3
Ntp95
Rp96
(lp97
g1
(g19
g3
Ntp98
Rp99
(lp100
F1.200000000000001
aF3.1000000000000023
aF0.0
abag1
(g23
g3
Ntp101
Rp102
(lp103
I0
aI0
aI0
aI1
ababsg27
F16.698
sg28
(lp104
sg42
I00
sg43
g1
(g8
g3
Ntp105
Rp106
(lp107
I2
aI603000000
absg47
F64.22
sbag1
(g2
g3
Ntp108
Rp109
(dp110
g7
g52
sg12
S'WayPoint5'
p111
sg14
g1
(g15
g3
Ntp112
Rp113
(lp114
g1
(g19
g3
Ntp115
Rp116
(lp117
F5.800000000000001
aF-4.349999999999998
aF0.0
abag1
(g23
g3
Ntp118
Rp119
(lp120
I0
aI0
aI0
aI1
ababsg27
F22.405
sg28
(lp121
sg42
I00
sg43
g106
sg47
F86.17
sbag1
(g2
g3
Ntp122
Rp123
(dp124
g7
g52
sg12
S'WayPoint6'
p125
sg14
g1
(g15
g3
Ntp126
Rp127
(lp128
g1
(g19
g3
Ntp129
Rp130
(lp131
F-6.15
aF3.150000000000002
aF0.0
abag1
(g23
g3
Ntp132
Rp133
(lp134
I0
aI0
aI0
aI1
ababsg27
F16.701
sg28
(lp135
sg42
I00
sg43
g1
(g8
g3
Ntp136
Rp137
(lp138
I2
aI800000000
absg47
F64.24
sbag1
(g2
g3
Ntp139
Rp140
(dp141
g7
g72
sg12
S'WayPoint7'
p142
sg14
g1
(g15
g3
Ntp143
Rp144
(lp145
g1
(g19
g3
Ntp146
Rp147
(lp148
F-6.3
aF-1.8999999999999986
aF0.0
abag1
(g23
g3
Ntp149
Rp150
(lp151
I0
aI0
aI0
aI1
ababsg27
F8.449
sg28
(lp152
g1
(g30
g3
Ntp153
Rp154
(dp155
g34
g1
(g35
g3
Ntp156
Rp157
(dp158
g39
F58.8
sg40
F30.05
sg41
F56.0
sbsg27
F7.813
sbasg42
I00
sg43
g45
sg47
F32.5
sba.