(lp0
ccopy_reg
_reconstructor
p1
(cdestination
Destination
p2
c__builtin__
object
p3
Ntp4
Rp5
(dp6
S'_Destination__latest_usage'
p7
g1
(crospy.rostime
Time
p8
g3
Ntp9
Rp10
(lp11
I52
aI603000000
absS'name'
p12
S'WayPoint1'
p13
sS'pose'
p14
g1
(cgeometry_msgs.msg._Pose
Pose
p15
g3
Ntp16
Rp17
(lp18
g1
(cgeometry_msgs.msg._Point
Point
p19
g3
Ntp20
Rp21
(lp22
F-2.75
aF1.0500000000000025
aF0.0
abag1
(cgeometry_msgs.msg._Quaternion
Quaternion
p23
g3
Ntp24
Rp25
(lp26
I0
aI0
aI0
aI1
ababsS'path_len'
p27
F8.473
sS'_Destination__stats'
p28
(lp29
g1
(cdestination
Observation
p30
g3
Ntp31
Rp32
(dp33
S'idleness'
p34
g1
(cdestination
Idleness
p35
g3
Ntp36
Rp37
(dp38
S'_Idleness__true_idl'
p39
F52.603
sS'_Idleness__estim_idl'
p40
F32.6
sS'_Idleness__remaining_idl'
p41
F50.003
sbsg27
F8.475
sbasS'_Destination__available'
p42
I00
sS'_Destination__remaining_idl'
p43
g1
(g8
g3
Ntp44
Rp45
(lp46
I53
aI0
absS'estim_idl'
p47
F32.59
sbag1
(g2
g3
Ntp48
Rp49
(dp50
g7
g1
(g8
g3
Ntp51
Rp52
(lp53
I32
aI800000000
absg12
S'WayPoint2'
p54
sg14
g1
(g15
g3
Ntp55
Rp56
(lp57
g1
(g19
g3
Ntp58
Rp59
(lp60
F5.15
aF0.9000000000000021
aF0.0
abag1
(g23
g3
Ntp61
Rp62
(lp63
I0
aI0
aI0
aI1
ababsg27
F3.108
sg28
(lp64
g1
(g30
g3
Ntp65
Rp66
(dp67
g34
g1
(g35
g3
Ntp68
Rp69
(dp70
g39
F32.8
sg40
F29.47
sg41
F30.0
sbsg27
F7.662
sbasg42
I00
sg43
g1
(g8
g3
Ntp71
Rp72
(lp73
I33
aI400000000
absg47
F11.96
sbag1
(g2
g3
Ntp74
Rp75
(dp76
g7
g1
(g8
g3
Ntp77
Rp78
(lp79
I54
aI200000000
absg12
S'WayPoint3'
p80
sg14
g1
(g15
g3
Ntp81
Rp82
(lp83
g1
(g19
g3
Ntp84
Rp85
(lp86
F4.850000000000001
aF3.900000000000002
aF0.0
abag1
(g23
g3
Ntp87
Rp88
(lp89
I0
aI0
aI0
aI1
ababsg27
F0.0
sg28
(lp90
g1
(g30
g3
Ntp91
Rp92
(dp93
g34
g1
(g35
g3
Ntp94
Rp95
(dp96
g39
F16.4
sg40
F11.98
sg41
F13.0
sbsg27
F3.116
sbag1
(g30
g3
Ntp97
Rp98
(dp99
g34
g1
(g35
g3
Ntp100
Rp101
(dp102
g39
F37.8
sg40
F12.01
sg41
F20.998
sbsg27
F3.122
sbasg42
I01
sg43
g78
sg47
I0
sbag1
(g2
g3
Ntp103
Rp104
(dp105
g7
g1
(g8
g3
Ntp106
Rp107
(lp108
I0
aI0
absg12
S'WayPoint4'
p109
sg14
g1
(g15
g3
Ntp110
Rp111
(lp112
g1
(g19
g3
Ntp113
Rp114
(lp115
F1.200000000000001
aF3.1000000000000023
aF0.0
abag1
(g23
g3
Ntp116
Rp117
(lp118
I0
aI0
aI0
aI1
ababsg27
F12.546
sg28
(lp119
sg42
I00
sg43
g1
(g8
g3
Ntp120
Rp121
(lp122
I2
aI600000000
absg47
F48.25
sbag1
(g2
g3
Ntp123
Rp124
(dp125
g7
g107
sg12
S'WayPoint5'
p126
sg14
g1
(g15
g3
Ntp127
Rp128
(lp129
g1
(g19
g3
Ntp130
Rp131
(lp132
F5.800000000000001
aF-4.349999999999998
aF0.0
abag1
(g23
g3
Ntp133
Rp134
(lp135
I0
aI0
aI0
aI1
ababsg27
F13.986
sg28
(lp136
sg42
I00
sg43
g121
sg47
F53.79
sbag1
(g2
g3
Ntp137
Rp138
(dp139
g7
g107
sg12
S'WayPoint6'
p140
sg14
g1
(g15
g3
Ntp141
Rp142
(lp143
g1
(g19
g3
Ntp144
Rp145
(lp146
F-6.15
aF3.150000000000002
aF0.0
abag1
(g23
g3
Ntp147
Rp148
(lp149
I0
aI0
aI0
aI1
ababsg27
F18.167
sg28
(lp150
sg42
I00
sg43
g1
(g8
g3
Ntp151
Rp152
(lp153
I2
aI800000000
absg47
F69.87
sbag1
(g2
g3
Ntp154
Rp155
(dp156
g7
g1
(g8
g3
Ntp157
Rp158
(lp159
I39
aI600000000
absg12
S'WayPoint7'
p160
sg14
g1
(g15
g3
Ntp161
Rp162
(lp163
g1
(g19
g3
Ntp164
Rp165
(lp166
F-6.3
aF-1.8999999999999986
aF0.0
abag1
(g23
g3
Ntp167
Rp168
(lp169
I0
aI0
aI0
aI1
ababsg27
F8.454
sg28
(lp170
g1
(g30
g3
Ntp171
Rp172
(dp173
g34
g1
(g35
g3
Ntp174
Rp175
(dp176
g39
F39.6
sg40
F19.79
sg41
F37.0
sbsg27
F5.146
sbasg42
I00
sg43
g1
(g8
g3
Ntp177
Rp178
(lp179
I53
aI200000000
absg47
F32.52
sba.