(lp0
ccopy_reg
_reconstructor
p1
(cdestination
Destination
p2
c__builtin__
object
p3
Ntp4
Rp5
(dp6
S'_Destination__latest_usage'
p7
g1
(crospy.rostime
Time
p8
g3
Ntp9
Rp10
(lp11
I17
aI600000000
absS'name'
p12
S'WayPoint1'
p13
sS'pose'
p14
g1
(cgeometry_msgs.msg._Pose
Pose
p15
g3
Ntp16
Rp17
(lp18
g1
(cgeometry_msgs.msg._Point
Point
p19
g3
Ntp20
Rp21
(lp22
F-2.75
aF1.0500000000000025
aF0.0
abag1
(cgeometry_msgs.msg._Quaternion
Quaternion
p23
g3
Ntp24
Rp25
(lp26
I0
aI0
aI0
aI1
ababsS'path_len'
p27
F4.264
sS'_Destination__stats'
p28
(lp29
g1
(cdestination
Observation
p30
g3
Ntp31
Rp32
(dp33
S'idleness'
p34
g1
(cdestination
Idleness
p35
g3
Ntp36
Rp37
(dp38
S'_Idleness__true_idl'
p39
F17.6
sS'_Idleness__estim_idl'
p40
F16.4
sS'_Idleness__remaining_idl'
p41
F15.0
sbsg27
F4.264
sbasS'_Destination__available'
p42
I00
sS'_Destination__remaining_idl'
p43
g1
(g8
g3
Ntp44
Rp45
(lp46
I23
aI201000000
absS'estim_idl'
p47
F16.4
sbag1
(g2
g3
Ntp48
Rp49
(dp50
g7
g1
(g8
g3
Ntp51
Rp52
(lp53
I0
aI0
absg12
S'WayPoint2'
p54
sg14
g1
(g15
g3
Ntp55
Rp56
(lp57
g1
(g19
g3
Ntp58
Rp59
(lp60
F5.15
aF0.9000000000000021
aF0.0
abag1
(g23
g3
Ntp61
Rp62
(lp63
I0
aI0
aI0
aI1
ababsg27
F6.062
sg28
(lp64
sg42
I00
sg43
g1
(g8
g3
Ntp65
Rp66
(lp67
I3
aI202000000
absg47
F23.31
sbag1
(g2
g3
Ntp68
Rp69
(dp70
g7
g1
(g8
g3
Ntp71
Rp72
(lp73
I57
aI201000000
absg12
S'WayPoint3'
p74
sg14
g1
(g15
g3
Ntp75
Rp76
(lp77
g1
(g19
g3
Ntp78
Rp79
(lp80
F4.850000000000001
aF3.900000000000002
aF0.0
abag1
(g23
g3
Ntp81
Rp82
(lp83
I0
aI0
aI0
aI1
ababsg27
F14.286
sg28
(lp84
g1
(g30
g3
Ntp85
Rp86
(dp87
g34
g1
(g35
g3
Ntp88
Rp89
(dp90
g39
F57.201
sg40
F39.27
sg41
F53.999
sbsg27
F10.211
sbasg42
I00
sg43
g1
(g8
g3
Ntp91
Rp92
(lp93
I57
aI601000000
absg47
F54.95
sbag1
(g2
g3
Ntp94
Rp95
(dp96
g7
g52
sg12
S'WayPoint4'
p97
sg14
g1
(g15
g3
Ntp98
Rp99
(lp100
g1
(g19
g3
Ntp101
Rp102
(lp103
F1.200000000000001
aF3.1000000000000023
aF0.0
abag1
(g23
g3
Ntp104
Rp105
(lp106
I0
aI0
aI0
aI1
ababsg27
F20.905
sg28
(lp107
sg42
I00
sg43
g1
(g8
g3
Ntp108
Rp109
(lp110
I2
aI600000000
absg47
F80.41
sbag1
(g2
g3
Ntp111
Rp112
(dp113
g7
g52
sg12
S'WayPoint5'
p114
sg14
g1
(g15
g3
Ntp115
Rp116
(lp117
g1
(g19
g3
Ntp118
Rp119
(lp120
F5.800000000000001
aF-4.349999999999998
aF0.0
abag1
(g23
g3
Ntp121
Rp122
(lp123
I0
aI0
aI0
aI1
ababsg27
F6.047
sg28
(lp124
sg42
I00
sg43
g109
sg47
F23.26
sbag1
(g2
g3
Ntp125
Rp126
(dp127
g7
g1
(g8
g3
Ntp128
Rp129
(lp130
I39
aI200000000
absg12
S'WayPoint6'
p131
sg14
g1
(g15
g3
Ntp132
Rp133
(lp134
g1
(g19
g3
Ntp135
Rp136
(lp137
F-6.15
aF3.150000000000002
aF0.0
abag1
(g23
g3
Ntp138
Rp139
(lp140
I0
aI0
aI0
aI1
ababsg27
F14.377
sg28
(lp141
g1
(g30
g3
Ntp142
Rp143
(dp144
g34
g1
(g35
g3
Ntp145
Rp146
(dp147
g39
F22.6
sg40
F16.38
sg41
F20.0
sbsg27
F4.258
sbag1
(g30
g3
Ntp148
Rp149
(dp150
g34
g1
(g35
g3
Ntp151
Rp152
(dp153
g39
F16.6
sg40
F16.56
sg41
F15.999
sbsg27
F4.307
sbasg42
I00
sg43
g92
sg47
F55.3
sbag1
(g2
g3
Ntp154
Rp155
(dp156
g7
g52
sg12
S'WayPoint7'
p157
sg14
g1
(g15
g3
Ntp158
Rp159
(lp160
g1
(g19
g3
Ntp161
Rp162
(lp163
F-6.3
aF-1.8999999999999986
aF0.0
abag1
(g23
g3
Ntp164
Rp165
(lp166
I0
aI0
aI0
aI1
ababsg27
F20.88
sg28
(lp167
sg42
I00
sg43
g66
sg47
F80.31
sba.