(lp0
ccopy_reg
_reconstructor
p1
(cdestination
Destination
p2
c__builtin__
object
p3
Ntp4
Rp5
(dp6
S'_Destination__latest_usage'
p7
g1
(crospy.rostime
Time
p8
g3
Ntp9
Rp10
(lp11
I0
aI0
absS'name'
p12
S'WayPoint1'
p13
sS'pose'
p14
g1
(cgeometry_msgs.msg._Pose
Pose
p15
g3
Ntp16
Rp17
(lp18
g1
(cgeometry_msgs.msg._Point
Point
p19
g3
Ntp20
Rp21
(lp22
F-2.75
aF1.0500000000000025
aF0.0
abag1
(cgeometry_msgs.msg._Quaternion
Quaternion
p23
g3
Ntp24
Rp25
(lp26
I0
aI0
aI0
aI1
ababsS'path_len'
p27
F13.998
sS'_Destination__stats'
p28
(lp29
sS'_Destination__available'
p30
I00
sS'_Destination__remaining_idl'
p31
g1
(g8
g3
Ntp32
Rp33
(lp34
I2
aI800000000
absS'estim_idl'
p35
F53.84
sbag1
(g2
g3
Ntp36
Rp37
(dp38
g7
g10
sg12
S'WayPoint2'
p39
sg14
g1
(g15
g3
Ntp40
Rp41
(lp42
g1
(g19
g3
Ntp43
Rp44
(lp45
F5.15
aF0.9000000000000021
aF0.0
abag1
(g23
g3
Ntp46
Rp47
(lp48
I0
aI0
aI0
aI1
ababsg27
F16.566
sg28
(lp49
sg30
I00
sg31
g1
(g8
g3
Ntp50
Rp51
(lp52
I2
aI605000000
absg35
F63.72
sbag1
(g2
g3
Ntp53
Rp54
(dp55
g7
g1
(g8
g3
Ntp56
Rp57
(lp58
I22
aI800000000
absg12
S'WayPoint3'
p59
sg14
g1
(g15
g3
Ntp60
Rp61
(lp62
g1
(g19
g3
Ntp63
Rp64
(lp65
F4.850000000000001
aF3.900000000000002
aF0.0
abag1
(g23
g3
Ntp66
Rp67
(lp68
I0
aI0
aI0
aI1
ababsg27
F18.561
sg28
(lp69
g1
(cdestination
Observation
p70
g3
Ntp71
Rp72
(dp73
S'idleness'
p74
g1
(cdestination
Idleness
p75
g3
Ntp76
Rp77
(dp78
S'_Idleness__true_idl'
p79
F22.8
sS'_Idleness__estim_idl'
p80
F18.7
sS'_Idleness__remaining_idl'
p81
F20.0
sbsg27
F4.862
sbasg30
I00
sg31
g1
(g8
g3
Ntp82
Rp83
(lp84
I24
aI200000000
absg35
F71.39
sbag1
(g2
g3
Ntp85
Rp86
(dp87
g7
g10
sg12
S'WayPoint4'
p88
sg14
g1
(g15
g3
Ntp89
Rp90
(lp91
g1
(g19
g3
Ntp92
Rp93
(lp94
F1.200000000000001
aF3.1000000000000023
aF0.0
abag1
(g23
g3
Ntp95
Rp96
(lp97
I0
aI0
aI0
aI1
ababsg27
F12.546
sg28
(lp98
sg30
I00
sg31
g1
(g8
g3
Ntp99
Rp100
(lp101
I3
aI404000000
absg35
F48.25
sbag1
(g2
g3
Ntp102
Rp103
(dp104
g7
g10
sg12
S'WayPoint5'
p105
sg14
g1
(g15
g3
Ntp106
Rp107
(lp108
g1
(g19
g3
Ntp109
Rp110
(lp111
F5.800000000000001
aF-4.349999999999998
aF0.0
abag1
(g23
g3
Ntp112
Rp113
(lp114
I0
aI0
aI0
aI1
ababsg27
F13.986
sg28
(lp115
sg30
I00
sg31
g51
sg35
F53.79
sbag1
(g2
g3
Ntp116
Rp117
(dp118
g7
g1
(g8
g3
Ntp119
Rp120
(lp121
I53
aI200000000
absg12
S'WayPoint6'
p122
sg14
g1
(g15
g3
Ntp123
Rp124
(lp125
g1
(g19
g3
Ntp126
Rp127
(lp128
F-6.15
aF3.150000000000002
aF0.0
abag1
(g23
g3
Ntp129
Rp130
(lp131
I0
aI0
aI0
aI1
ababsg27
F0.0
sg28
(lp132
g1
(g70
g3
Ntp133
Rp134
(dp135
g74
g1
(g75
g3
Ntp136
Rp137
(dp138
g79
F53.2
sg80
F47.6
sg81
F50.0
sbsg27
F12.375
sbasg30
I01
sg31
g120
sg35
I0
sbag1
(g2
g3
Ntp139
Rp140
(dp141
g7
g1
(g8
g3
Ntp142
Rp143
(lp144
I23
aI600000000
absg12
S'WayPoint7'
p145
sg14
g1
(g15
g3
Ntp146
Rp147
(lp148
g1
(g19
g3
Ntp149
Rp150
(lp151
F-6.3
aF-1.8999999999999986
aF0.0
abag1
(g23
g3
Ntp152
Rp153
(lp154
I0
aI0
aI0
aI1
ababsg27
F18.542
sg28
(lp155
g1
(g70
g3
Ntp156
Rp157
(dp158
g74
g1
(g75
g3
Ntp159
Rp160
(dp161
g79
F23.6
sg80
F19.79
sg81
F20.995
sbsg27
F5.146
sbasg30
I00
sg31
g83
sg35
F71.32
sba.