(lp0
ccopy_reg
_reconstructor
p1
(cdestination
Destination
p2
c__builtin__
object
p3
Ntp4
Rp5
(dp6
S'_Destination__latest_usage'
p7
g1
(crospy.rostime
Time
p8
g3
Ntp9
Rp10
(lp11
I0
aI0
absS'name'
p12
S'WayPoint1'
p13
sS'pose'
p14
g1
(cgeometry_msgs.msg._Pose
Pose
p15
g3
Ntp16
Rp17
(lp18
g1
(cgeometry_msgs.msg._Point
Point
p19
g3
Ntp20
Rp21
(lp22
F-2.75
aF1.0500000000000025
aF0.0
abag1
(cgeometry_msgs.msg._Quaternion
Quaternion
p23
g3
Ntp24
Rp25
(lp26
I0
aI0
aI0
aI1
ababsS'path_len'
p27
F14.071
sS'_Destination__stats'
p28
(lp29
sS'_Destination__available'
p30
I00
sS'_Destination__remaining_idl'
p31
g1
(g8
g3
Ntp32
Rp33
(lp34
I3
aI200000000
absS'estim_idl'
p35
F54.12
sbag1
(g2
g3
Ntp36
Rp37
(dp38
g7
g10
sg12
S'WayPoint2'
p39
sg14
g1
(g15
g3
Ntp40
Rp41
(lp42
g1
(g19
g3
Ntp43
Rp44
(lp45
F5.15
aF0.9000000000000021
aF0.0
abag1
(g23
g3
Ntp46
Rp47
(lp48
I0
aI0
aI0
aI1
ababsg27
F8.198
sg28
(lp49
sg30
I00
sg31
g33
sg35
F31.53
sbag1
(g2
g3
Ntp50
Rp51
(dp52
g7
g10
sg12
S'WayPoint3'
p53
sg14
g1
(g15
g3
Ntp54
Rp55
(lp56
g1
(g19
g3
Ntp57
Rp58
(lp59
F4.850000000000001
aF3.900000000000002
aF0.0
abag1
(g23
g3
Ntp60
Rp61
(lp62
I0
aI0
aI0
aI1
ababsg27
F18.575
sg28
(lp63
sg30
I00
sg31
g1
(g8
g3
Ntp64
Rp65
(lp66
I2
aI600000000
absg35
F71.44
sbag1
(g2
g3
Ntp67
Rp68
(dp69
g7
g10
sg12
S'WayPoint4'
p70
sg14
g1
(g15
g3
Ntp71
Rp72
(lp73
g1
(g19
g3
Ntp74
Rp75
(lp76
F1.200000000000001
aF3.1000000000000023
aF0.0
abag1
(g23
g3
Ntp77
Rp78
(lp79
I0
aI0
aI0
aI1
ababsg27
F16.698
sg28
(lp80
sg30
I00
sg31
g1
(g8
g3
Ntp81
Rp82
(lp83
I18
aI200000000
absg35
F64.22
sbag1
(g2
g3
Ntp84
Rp85
(dp86
g7
g1
(g8
g3
Ntp87
Rp88
(lp89
I52
aI601000000
absg12
S'WayPoint5'
p90
sg14
g1
(g15
g3
Ntp91
Rp92
(lp93
g1
(g19
g3
Ntp94
Rp95
(lp96
F5.800000000000001
aF-4.349999999999998
aF0.0
abag1
(g23
g3
Ntp97
Rp98
(lp99
I0
aI0
aI0
aI1
ababsg27
F22.32
sg28
(lp100
g1
(cdestination
Observation
p101
g3
Ntp102
Rp103
(dp104
S'idleness'
p105
g1
(cdestination
Idleness
p106
g3
Ntp107
Rp108
(dp109
S'_Idleness__true_idl'
p110
F52.601
sS'_Idleness__estim_idl'
p111
F23.26
sS'_Idleness__remaining_idl'
p112
F50.001
sbsg27
F6.047
sbasg30
I00
sg31
g1
(g8
g3
Ntp113
Rp114
(lp115
I53
aI0
absg35
F85.85
sbag1
(g2
g3
Ntp116
Rp117
(dp118
g7
g1
(g8
g3
Ntp119
Rp120
(lp121
I17
aI600000000
absg12
S'WayPoint6'
p122
sg14
g1
(g15
g3
Ntp123
Rp124
(lp125
g1
(g19
g3
Ntp126
Rp127
(lp128
F-6.15
aF3.150000000000002
aF0.0
abag1
(g23
g3
Ntp129
Rp130
(lp131
I0
aI0
aI0
aI1
ababsg27
F16.701
sg28
(lp132
g1
(g101
g3
Ntp133
Rp134
(dp135
g105
g1
(g106
g3
Ntp136
Rp137
(dp138
g110
F17.6
sg111
F16.38
sg112
F15.0
sbsg27
F4.258
sbasg30
I00
sg31
g82
sg35
F64.24
sbag1
(g2
g3
Ntp139
Rp140
(dp141
g7
g1
(g8
g3
Ntp142
Rp143
(lp144
I23
aI600000000
absg12
S'WayPoint7'
p145
sg14
g1
(g15
g3
Ntp146
Rp147
(lp148
g1
(g19
g3
Ntp149
Rp150
(lp151
F-6.3
aF-1.8999999999999986
aF0.0
abag1
(g23
g3
Ntp152
Rp153
(lp154
I0
aI0
aI0
aI1
ababsg27
F22.551
sg28
(lp155
g1
(g101
g3
Ntp156
Rp157
(dp158
g105
g1
(g106
g3
Ntp159
Rp160
(dp161
g110
F23.6
sg111
F19.79
sg112
F21.0
sbsg27
F5.146
sbasg30
I00
sg31
g114
sg35
F86.74
sba.