(lp0
ccopy_reg
_reconstructor
p1
(cdestination
Destination
p2
c__builtin__
object
p3
Ntp4
Rp5
(dp6
S'_Destination__latest_usage'
p7
g1
(crospy.rostime
Time
p8
g3
Ntp9
Rp10
(lp11
I0
aI0
absS'name'
p12
S'WayPoint1'
p13
sS'pose'
p14
g1
(cgeometry_msgs.msg._Pose
Pose
p15
g3
Ntp16
Rp17
(lp18
g1
(cgeometry_msgs.msg._Point
Point
p19
g3
Ntp20
Rp21
(lp22
F-6.75
aF-2.6999999999999975
aF0.0
abag1
(cgeometry_msgs.msg._Quaternion
Quaternion
p23
g3
Ntp24
Rp25
(lp26
I0
aI0
aI0
aI1
ababsS'path_len'
p27
F0.0
sS'_Destination__stats'
p28
(lp29
sS'_Destination__available'
p30
I01
sS'_Destination__remaining_idl'
p31
g10
sS'estim_idl'
p32
I0
sbag1
(g2
g3
Ntp33
Rp34
(dp35
g7
g10
sg12
S'WayPoint10'
p36
sg14
g1
(g15
g3
Ntp37
Rp38
(lp39
g1
(g19
g3
Ntp40
Rp41
(lp42
F1.8500000000000014
aF2.8500000000000023
aF0.0
abag1
(g23
g3
Ntp43
Rp44
(lp45
I0
aI0
aI0
aI1
ababsg27
F9.902
sg28
(lp46
sg30
I00
sg31
g1
(g8
g3
Ntp47
Rp48
(lp49
I2
aI600000000
absg32
F38.08
sbag1
(g2
g3
Ntp50
Rp51
(dp52
g7
g10
sg12
S'WayPoint11'
p53
sg14
g1
(g15
g3
Ntp54
Rp55
(lp56
g1
(g19
g3
Ntp57
Rp58
(lp59
F6.600000000000001
aF3.450000000000003
aF0.0
abag1
(g23
g3
Ntp60
Rp61
(lp62
I0
aI0
aI0
aI1
ababsg27
F0.0
sg28
(lp63
sg30
I01
sg31
g10
sg32
I0
sbag1
(g2
g3
Ntp64
Rp65
(dp66
g7
g10
sg12
S'WayPoint2'
p67
sg14
g1
(g15
g3
Ntp68
Rp69
(lp70
g1
(g19
g3
Ntp71
Rp72
(lp73
F-3.1999999999999993
aF-3.349999999999998
aF0.0
abag1
(g23
g3
Ntp74
Rp75
(lp76
I0
aI0
aI0
aI1
ababsg27
F0.0
sg28
(lp77
sg30
I01
sg31
g10
sg32
I0
sbag1
(g2
g3
Ntp78
Rp79
(dp80
g7
g10
sg12
S'WayPoint3'
p81
sg14
g1
(g15
g3
Ntp82
Rp83
(lp84
g1
(g19
g3
Ntp85
Rp86
(lp87
F0.0
aF-3.349999999999998
aF0.0
abag1
(g23
g3
Ntp88
Rp89
(lp90
I0
aI0
aI0
aI1
ababsg27
F10.497
sg28
(lp91
sg30
I00
sg31
g1
(g8
g3
Ntp92
Rp93
(lp94
I3
aI200000000
absg32
F40.37
sbag1
(g2
g3
Ntp95
Rp96
(dp97
g7
g10
sg12
S'WayPoint4'
p98
sg14
g1
(g15
g3
Ntp99
Rp100
(lp101
g1
(g19
g3
Ntp102
Rp103
(lp104
F2.3500000000000014
aF-3.2499999999999982
aF0.0
abag1
(g23
g3
Ntp105
Rp106
(lp107
I0
aI0
aI0
aI1
ababsg27
F0.0
sg28
(lp108
sg30
I01
sg31
g10
sg32
I0
sbag1
(g2
g3
Ntp109
Rp110
(dp111
g7
g10
sg12
S'WayPoint5'
p112
sg14
g1
(g15
g3
Ntp113
Rp114
(lp115
g1
(g19
g3
Ntp116
Rp117
(lp118
F5.4
aF-3.4499999999999975
aF0.0
abag1
(g23
g3
Ntp119
Rp120
(lp121
I0
aI0
aI0
aI1
ababsg27
F0.0
sg28
(lp122
sg30
I01
sg31
g10
sg32
I0
sbag1
(g2
g3
Ntp123
Rp124
(dp125
g7
g10
sg12
S'WayPoint6'
p126
sg14
g1
(g15
g3
Ntp127
Rp128
(lp129
g1
(g19
g3
Ntp130
Rp131
(lp132
F4.850000000000001
aF-0.7499999999999982
aF0.0
abag1
(g23
g3
Ntp133
Rp134
(lp135
I0
aI0
aI0
aI1
ababsg27
F0.0
sg28
(lp136
sg30
I01
sg31
g10
sg32
I0
sbag1
(g2
g3
Ntp137
Rp138
(dp139
g7
g10
sg12
S'WayPoint7'
p140
sg14
g1
(g15
g3
Ntp141
Rp142
(lp143
g1
(g19
g3
Ntp144
Rp145
(lp146
F1.0500000000000007
aF-0.6999999999999975
aF0.0
abag1
(g23
g3
Ntp147
Rp148
(lp149
I0
aI0
aI0
aI1
ababsg27
F0.0
sg28
(lp150
sg30
I01
sg31
g10
sg32
I0
sbag1
(g2
g3
Ntp151
Rp152
(dp153
g7
g10
sg12
S'WayPoint8'
p154
sg14
g1
(g15
g3
Ntp155
Rp156
(lp157
g1
(g19
g3
Ntp158
Rp159
(lp160
F-3.05
aF-0.5999999999999979
aF0.0
abag1
(g23
g3
Ntp161
Rp162
(lp163
I0
aI0
aI0
aI1
ababsg27
F0.0
sg28
(lp164
sg30
I01
sg31
g10
sg32
I0
sbag1
(g2
g3
Ntp165
Rp166
(dp167
g7
g10
sg12
S'WayPoint9'
p168
sg14
g1
(g15
g3
Ntp169
Rp170
(lp171
g1
(g19
g3
Ntp172
Rp173
(lp174
F-1.5
aF2.700000000000003
aF0.0
abag1
(g23
g3
Ntp175
Rp176
(lp177
I0
aI0
aI0
aI1
ababsg27
F9.876
sg28
(lp178
sg30
I00
sg31
g1
(g8
g3
Ntp179
Rp180
(lp181
I2
aI401000000
absg32
F37.99
sba.