(lp0
ccopy_reg
_reconstructor
p1
(cdestination
Destination
p2
c__builtin__
object
p3
Ntp4
Rp5
(dp6
S'_Destination__latest_usage'
p7
g1
(crospy.rostime
Time
p8
g3
Ntp9
Rp10
(lp11
I0
aI0
absS'name'
p12
S'WayPoint1'
p13
sS'pose'
p14
g1
(cgeometry_msgs.msg._Pose
Pose
p15
g3
Ntp16
Rp17
(lp18
g1
(cgeometry_msgs.msg._Point
Point
p19
g3
Ntp20
Rp21
(lp22
F-6.75
aF-2.6999999999999975
aF0.0
abag1
(cgeometry_msgs.msg._Quaternion
Quaternion
p23
g3
Ntp24
Rp25
(lp26
I0
aI0
aI0
aI1
ababsS'path_len'
p27
F0.0
sS'_Destination__stats'
p28
(lp29
sS'_Destination__available'
p30
I01
sS'_Destination__remaining_idl'
p31
g10
sS'estim_idl'
p32
I0
sbag1
(g2
g3
Ntp33
Rp34
(dp35
g7
g10
sg12
S'WayPoint10'
p36
sg14
g1
(g15
g3
Ntp37
Rp38
(lp39
g1
(g19
g3
Ntp40
Rp41
(lp42
F1.8500000000000014
aF2.8500000000000023
aF0.0
abag1
(g23
g3
Ntp43
Rp44
(lp45
I0
aI0
aI0
aI1
ababsg27
F6.977
sg28
(lp46
sg30
I00
sg31
g1
(g8
g3
Ntp47
Rp48
(lp49
I37
aI0
absg32
F26.84
sbag1
(g2
g3
Ntp50
Rp51
(dp52
g7
g10
sg12
S'WayPoint11'
p53
sg14
g1
(g15
g3
Ntp54
Rp55
(lp56
g1
(g19
g3
Ntp57
Rp58
(lp59
F6.600000000000001
aF3.450000000000003
aF0.0
abag1
(g23
g3
Ntp60
Rp61
(lp62
I0
aI0
aI0
aI1
ababsg27
F0.0
sg28
(lp63
sg30
I01
sg31
g10
sg32
I0
sbag1
(g2
g3
Ntp64
Rp65
(dp66
g7
g1
(g8
g3
Ntp67
Rp68
(lp69
I33
aI601000000
absg12
S'WayPoint2'
p70
sg14
g1
(g15
g3
Ntp71
Rp72
(lp73
g1
(g19
g3
Ntp74
Rp75
(lp76
F-3.1999999999999993
aF-3.349999999999998
aF0.0
abag1
(g23
g3
Ntp77
Rp78
(lp79
I0
aI0
aI0
aI1
ababsg27
F0.0
sg28
(lp80
g1
(cdestination
Observation
p81
g3
Ntp82
Rp83
(dp84
S'idleness'
p85
g1
(cdestination
Idleness
p86
g3
Ntp87
Rp88
(dp89
S'_Idleness__true_idl'
p90
F33.601
sS'_Idleness__estim_idl'
p91
F27.26
sS'_Idleness__remaining_idl'
p92
F31.001
sbsg27
F7.089
sbasg30
I01
sg31
g68
sg32
I0
sbag1
(g2
g3
Ntp93
Rp94
(dp95
g7
g10
sg12
S'WayPoint3'
p96
sg14
g1
(g15
g3
Ntp97
Rp98
(lp99
g1
(g19
g3
Ntp100
Rp101
(lp102
F0.0
aF-3.349999999999998
aF0.0
abag1
(g23
g3
Ntp103
Rp104
(lp105
I0
aI0
aI0
aI1
ababsg27
F10.497
sg28
(lp106
sg30
I00
sg31
g1
(g8
g3
Ntp107
Rp108
(lp109
I2
aI600000000
absg32
F40.37
sbag1
(g2
g3
Ntp110
Rp111
(dp112
g7
g10
sg12
S'WayPoint4'
p113
sg14
g1
(g15
g3
Ntp114
Rp115
(lp116
g1
(g19
g3
Ntp117
Rp118
(lp119
F2.3500000000000014
aF-3.2499999999999982
aF0.0
abag1
(g23
g3
Ntp120
Rp121
(lp122
I0
aI0
aI0
aI1
ababsg27
F0.0
sg28
(lp123
sg30
I01
sg31
g10
sg32
I0
sbag1
(g2
g3
Ntp124
Rp125
(dp126
g7
g10
sg12
S'WayPoint5'
p127
sg14
g1
(g15
g3
Ntp128
Rp129
(lp130
g1
(g19
g3
Ntp131
Rp132
(lp133
F5.4
aF-3.4499999999999975
aF0.0
abag1
(g23
g3
Ntp134
Rp135
(lp136
I0
aI0
aI0
aI1
ababsg27
F14.193
sg28
(lp137
sg30
I00
sg31
g1
(g8
g3
Ntp138
Rp139
(lp140
I34
aI0
absg32
F54.59
sbag1
(g2
g3
Ntp141
Rp142
(dp143
g7
g10
sg12
S'WayPoint6'
p144
sg14
g1
(g15
g3
Ntp145
Rp146
(lp147
g1
(g19
g3
Ntp148
Rp149
(lp150
F4.850000000000001
aF-0.7499999999999982
aF0.0
abag1
(g23
g3
Ntp151
Rp152
(lp153
I0
aI0
aI0
aI1
ababsg27
F0.0
sg28
(lp154
sg30
I01
sg31
g10
sg32
I0
sbag1
(g2
g3
Ntp155
Rp156
(dp157
g7
g10
sg12
S'WayPoint7'
p158
sg14
g1
(g15
g3
Ntp159
Rp160
(lp161
g1
(g19
g3
Ntp162
Rp163
(lp164
F1.0500000000000007
aF-0.6999999999999975
aF0.0
abag1
(g23
g3
Ntp165
Rp166
(lp167
I0
aI0
aI0
aI1
ababsg27
F0.0
sg28
(lp168
sg30
I01
sg31
g10
sg32
I0
sbag1
(g2
g3
Ntp169
Rp170
(dp171
g7
g1
(g8
g3
Ntp172
Rp173
(lp174
I36
aI600000000
absg12
S'WayPoint8'
p175
sg14
g1
(g15
g3
Ntp176
Rp177
(lp178
g1
(g19
g3
Ntp179
Rp180
(lp181
F-3.05
aF-0.5999999999999979
aF0.0
abag1
(g23
g3
Ntp182
Rp183
(lp184
I0
aI0
aI0
aI1
ababsg27
F0.0
sg28
(lp185
g1
(g81
g3
Ntp186
Rp187
(dp188
g85
g1
(g86
g3
Ntp189
Rp190
(dp191
g90
F36.6
sg91
F27.75
sg92
F34.0
sbsg27
F7.214
sbasg30
I01
sg31
g173
sg32
I0
sbag1
(g2
g3
Ntp192
Rp193
(dp194
g7
g10
sg12
S'WayPoint9'
p195
sg14
g1
(g15
g3
Ntp196
Rp197
(lp198
g1
(g19
g3
Ntp199
Rp200
(lp201
F-1.5
aF2.700000000000003
aF0.0
abag1
(g23
g3
Ntp202
Rp203
(lp204
I0
aI0
aI0
aI1
ababsg27
F0.0
sg28
(lp205
sg30
I01
sg31
g10
sg32
I0
sba.