(lp0
ccopy_reg
_reconstructor
p1
(cdestination
Destination
p2
c__builtin__
object
p3
Ntp4
Rp5
(dp6
S'_Destination__latest_usage'
p7
g1
(crospy.rostime
Time
p8
g3
Ntp9
Rp10
(lp11
I0
aI0
absS'name'
p12
S'WayPoint1'
p13
sS'pose'
p14
g1
(cgeometry_msgs.msg._Pose
Pose
p15
g3
Ntp16
Rp17
(lp18
g1
(cgeometry_msgs.msg._Point
Point
p19
g3
Ntp20
Rp21
(lp22
F-6.75
aF-2.6999999999999975
aF0.0
abag1
(cgeometry_msgs.msg._Quaternion
Quaternion
p23
g3
Ntp24
Rp25
(lp26
I0
aI0
aI0
aI1
ababsS'path_len'
p27
F0.0
sS'_Destination__stats'
p28
(lp29
sS'_Destination__available'
p30
I01
sS'_Destination__remaining_idl'
p31
g10
sS'estim_idl'
p32
I0
sbag1
(g2
g3
Ntp33
Rp34
(dp35
g7
g10
sg12
S'WayPoint10'
p36
sg14
g1
(g15
g3
Ntp37
Rp38
(lp39
g1
(g19
g3
Ntp40
Rp41
(lp42
F1.8500000000000014
aF2.8500000000000023
aF0.0
abag1
(g23
g3
Ntp43
Rp44
(lp45
I0
aI0
aI0
aI1
ababsg27
F11.292
sg28
(lp46
sg30
I00
sg31
g1
(g8
g3
Ntp47
Rp48
(lp49
I2
aI400000000
absg32
F43.43
sbag1
(g2
g3
Ntp50
Rp51
(dp52
g7
g10
sg12
S'WayPoint11'
p53
sg14
g1
(g15
g3
Ntp54
Rp55
(lp56
g1
(g19
g3
Ntp57
Rp58
(lp59
F6.600000000000001
aF3.450000000000003
aF0.0
abag1
(g23
g3
Ntp60
Rp61
(lp62
I0
aI0
aI0
aI1
ababsg27
F9.253
sg28
(lp63
sg30
I00
sg31
g1
(g8
g3
Ntp64
Rp65
(lp66
I35
aI800000000
absg32
F35.59
sbag1
(g2
g3
Ntp67
Rp68
(dp69
g7
g10
sg12
S'WayPoint2'
p70
sg14
g1
(g15
g3
Ntp71
Rp72
(lp73
g1
(g19
g3
Ntp74
Rp75
(lp76
F-3.1999999999999993
aF-3.349999999999998
aF0.0
abag1
(g23
g3
Ntp77
Rp78
(lp79
I0
aI0
aI0
aI1
ababsg27
F0.0
sg28
(lp80
sg30
I01
sg31
g10
sg32
I0
sbag1
(g2
g3
Ntp81
Rp82
(dp83
g7
g1
(g8
g3
Ntp84
Rp85
(lp86
I59
aI0
absg12
S'WayPoint3'
p87
sg14
g1
(g15
g3
Ntp88
Rp89
(lp90
g1
(g19
g3
Ntp91
Rp92
(lp93
F0.0
aF-3.349999999999998
aF0.0
abag1
(g23
g3
Ntp94
Rp95
(lp96
I0
aI0
aI0
aI1
ababsg27
F0.0
sg28
(lp97
g1
(cdestination
Observation
p98
g3
Ntp99
Rp100
(dp101
S'idleness'
p102
g1
(cdestination
Idleness
p103
g3
Ntp104
Rp105
(dp106
S'_Idleness__true_idl'
p107
F59.0
sS'_Idleness__estim_idl'
p108
F11.61
sS'_Idleness__remaining_idl'
p109
F14.0
sbsg27
F3.019
sbasg30
I01
sg31
g85
sg32
I0
sbag1
(g2
g3
Ntp110
Rp111
(dp112
g7
g1
(g8
g3
Ntp113
Rp114
(lp115
I35
aI401000000
absg12
S'WayPoint4'
p116
sg14
g1
(g15
g3
Ntp117
Rp118
(lp119
g1
(g19
g3
Ntp120
Rp121
(lp122
F2.3500000000000014
aF-3.2499999999999982
aF0.0
abag1
(g23
g3
Ntp123
Rp124
(lp125
I0
aI0
aI0
aI1
ababsg27
F0.0
sg28
(lp126
g1
(g98
g3
Ntp127
Rp128
(dp129
g102
g1
(g103
g3
Ntp130
Rp131
(dp132
g107
F35.401
sg108
F29.13
sg109
F33.001
sbsg27
F7.573
sbasg30
I01
sg31
g114
sg32
I0
sbag1
(g2
g3
Ntp133
Rp134
(dp135
g7
g10
sg12
S'WayPoint5'
p136
sg14
g1
(g15
g3
Ntp137
Rp138
(lp139
g1
(g19
g3
Ntp140
Rp141
(lp142
F5.4
aF-3.4499999999999975
aF0.0
abag1
(g23
g3
Ntp143
Rp144
(lp145
I0
aI0
aI0
aI1
ababsg27
F0.0
sg28
(lp146
sg30
I01
sg31
g10
sg32
I0
sbag1
(g2
g3
Ntp147
Rp148
(dp149
g7
g10
sg12
S'WayPoint6'
p150
sg14
g1
(g15
g3
Ntp151
Rp152
(lp153
g1
(g19
g3
Ntp154
Rp155
(lp156
F4.850000000000001
aF-0.7499999999999982
aF0.0
abag1
(g23
g3
Ntp157
Rp158
(lp159
I0
aI0
aI0
aI1
ababsg27
F7.05
sg28
(lp160
sg30
I00
sg31
g1
(g8
g3
Ntp161
Rp162
(lp163
I60
aI0
absg32
F27.12
sbag1
(g2
g3
Ntp164
Rp165
(dp166
g7
g1
(g8
g3
Ntp167
Rp168
(lp169
I44
aI0
absg12
S'WayPoint7'
p170
sg14
g1
(g15
g3
Ntp171
Rp172
(lp173
g1
(g19
g3
Ntp174
Rp175
(lp176
F1.0500000000000007
aF-0.6999999999999975
aF0.0
abag1
(g23
g3
Ntp177
Rp178
(lp179
I0
aI0
aI0
aI1
ababsg27
F0.0
sg28
(lp180
g1
(g98
g3
Ntp181
Rp182
(dp183
g102
g1
(g103
g3
Ntp184
Rp185
(dp186
g107
F44.0
sg108
F16.12
sg109
F17.0
sbsg27
F4.192
sbasg30
I01
sg31
g168
sg32
I0
sbag1
(g2
g3
Ntp187
Rp188
(dp189
g7
g1
(g8
g3
Ntp190
Rp191
(lp192
I26
aI0
absg12
S'WayPoint8'
p193
sg14
g1
(g15
g3
Ntp194
Rp195
(lp196
g1
(g19
g3
Ntp197
Rp198
(lp199
F-3.05
aF-0.5999999999999979
aF0.0
abag1
(g23
g3
Ntp200
Rp201
(lp202
I0
aI0
aI0
aI1
ababsg27
F0.0
sg28
(lp203
g1
(g98
g3
Ntp204
Rp205
(dp206
g102
g1
(g103
g3
Ntp207
Rp208
(dp209
g107
F26.0
sg108
F14.6
sg109
F23.0
sbsg27
F3.797
sbasg30
I01
sg31
g191
sg32
I0
sbag1
(g2
g3
Ntp210
Rp211
(dp212
g7
g10
sg12
S'WayPoint9'
p213
sg14
g1
(g15
g3
Ntp214
Rp215
(lp216
g1
(g19
g3
Ntp217
Rp218
(lp219
F-1.5
aF2.700000000000003
aF0.0
abag1
(g23
g3
Ntp220
Rp221
(lp222
I0
aI0
aI0
aI1
ababsg27
F0.0
sg28
(lp223
sg30
I01
sg31
g10
sg32
I0
sba.