(lp0
ccopy_reg
_reconstructor
p1
(cdestination
Destination
p2
c__builtin__
object
p3
Ntp4
Rp5
(dp6
S'_Destination__latest_usage'
p7
g1
(crospy.rostime
Time
p8
g3
Ntp9
Rp10
(lp11
I0
aI0
absS'name'
p12
S'WayPoint1'
p13
sS'pose'
p14
g1
(cgeometry_msgs.msg._Pose
Pose
p15
g3
Ntp16
Rp17
(lp18
g1
(cgeometry_msgs.msg._Point
Point
p19
g3
Ntp20
Rp21
(lp22
F-1.549999999999999
aF-0.8999999999999986
aF0.0
abag1
(cgeometry_msgs.msg._Quaternion
Quaternion
p23
g3
Ntp24
Rp25
(lp26
I0
aI0
aI0
aI1
ababsS'path_len'
p27
F6.639
sS'_Destination__stats'
p28
(lp29
sS'_Destination__available'
p30
I00
sS'_Destination__remaining_idl'
p31
g1
(g8
g3
Ntp32
Rp33
(lp34
I49
aI801000000
absS'estim_idl'
p35
F25.54
sbag1
(g2
g3
Ntp36
Rp37
(dp38
g7
g1
(g8
g3
Ntp39
Rp40
(lp41
I30
aI2000000
absg12
S'WayPoint10'
p42
sg14
g1
(g15
g3
Ntp43
Rp44
(lp45
g1
(g19
g3
Ntp46
Rp47
(lp48
F-2.75
aF4.0500000000000025
aF0.0
abag1
(g23
g3
Ntp49
Rp50
(lp51
I0
aI0
aI0
aI1
ababsg27
F0.0
sg28
(lp52
g1
(cdestination
Observation
p53
g3
Ntp54
Rp55
(dp56
S'idleness'
p57
g1
(cdestination
Idleness
p58
g3
Ntp59
Rp60
(dp61
S'_Idleness__true_idl'
p62
F30.002
sS'_Idleness__estim_idl'
p63
F30.49
sS'_Idleness__remaining_idl'
p64
F26.002
sbsg27
F7.929
sbasg30
I01
sg31
g40
sg35
I0
sbag1
(g2
g3
Ntp65
Rp66
(dp67
g7
g10
sg12
S'WayPoint2'
p68
sg14
g1
(g15
g3
Ntp69
Rp70
(lp71
g1
(g19
g3
Ntp72
Rp73
(lp74
F-5.25
aF-0.04999999999999716
aF0.0
abag1
(g23
g3
Ntp75
Rp76
(lp77
I0
aI0
aI0
aI1
ababsg27
F11.911
sg28
(lp78
sg30
I00
sg31
g1
(g8
g3
Ntp79
Rp80
(lp81
I2
aI602000000
absg35
F45.81
sbag1
(g2
g3
Ntp82
Rp83
(dp84
g7
g10
sg12
S'WayPoint3'
p85
sg14
g1
(g15
g3
Ntp86
Rp87
(lp88
g1
(g19
g3
Ntp89
Rp90
(lp91
F-2.6499999999999995
aF-3.8999999999999986
aF0.0
abag1
(g23
g3
Ntp92
Rp93
(lp94
I0
aI0
aI0
aI1
ababsg27
F12.112
sg28
(lp95
sg30
I00
sg31
g80
sg35
F46.58
sbag1
(g2
g3
Ntp96
Rp97
(dp98
g7
g10
sg12
S'WayPoint4'
p99
sg14
g1
(g15
g3
Ntp100
Rp101
(lp102
g1
(g19
g3
Ntp103
Rp104
(lp105
F3.700000000000001
aF-1.3499999999999979
aF0.0
abag1
(g23
g3
Ntp106
Rp107
(lp108
I0
aI0
aI0
aI1
ababsg27
F0.0
sg28
(lp109
sg30
I01
sg31
g10
sg35
I0
sbag1
(g2
g3
Ntp110
Rp111
(dp112
g7
g1
(g8
g3
Ntp113
Rp114
(lp115
I23
aI1000000
absg12
S'WayPoint5'
p116
sg14
g1
(g15
g3
Ntp117
Rp118
(lp119
g1
(g19
g3
Ntp120
Rp121
(lp122
F7.650000000000002
aF-1.4999999999999982
aF0.0
abag1
(g23
g3
Ntp123
Rp124
(lp125
I0
aI0
aI0
aI1
ababsg27
F0.0
sg28
(lp126
g1
(g53
g3
Ntp127
Rp128
(dp129
g57
g1
(g58
g3
Ntp130
Rp131
(dp132
g62
F23.001
sg63
F15.56
sg64
F19.001
sbsg27
F4.047
sbasg30
I01
sg31
g114
sg35
I0
sbag1
(g2
g3
Ntp133
Rp134
(dp135
g7
g10
sg12
S'WayPoint6'
p136
sg14
g1
(g15
g3
Ntp137
Rp138
(lp139
g1
(g19
g3
Ntp140
Rp141
(lp142
F4.350000000000001
aF1.6000000000000023
aF0.0
abag1
(g23
g3
Ntp143
Rp144
(lp145
I0
aI0
aI0
aI1
ababsg27
F12.535
sg28
(lp146
sg30
I00
sg31
g1
(g8
g3
Ntp147
Rp148
(lp149
I24
aI12000000
absg35
F48.21
sbag1
(g2
g3
Ntp150
Rp151
(dp152
g7
g1
(g8
g3
Ntp153
Rp154
(lp155
I20
aI800000000
absg12
S'WayPoint7'
p156
sg14
g1
(g15
g3
Ntp157
Rp158
(lp159
g1
(g19
g3
Ntp160
Rp161
(lp162
F1.700000000000001
aF1.6500000000000021
aF0.0
abag1
(g23
g3
Ntp163
Rp164
(lp165
I0
aI0
aI0
aI1
ababsg27
F0.0
sg28
(lp166
g1
(g53
g3
Ntp167
Rp168
(dp169
g57
g1
(g58
g3
Ntp170
Rp171
(dp172
g62
F20.8
sg63
F16.19
sg64
F17.999
sbsg27
F4.209
sbasg30
I01
sg31
g154
sg35
I0
sbag1
(g2
g3
Ntp173
Rp174
(dp175
g7
g1
(g8
g3
Ntp176
Rp177
(lp178
I48
aI800000000
absg12
S'WayPoint8'
p179
sg14
g1
(g15
g3
Ntp180
Rp181
(lp182
g1
(g19
g3
Ntp183
Rp184
(lp185
F0.9000000000000004
aF4.350000000000002
aF0.0
abag1
(g23
g3
Ntp186
Rp187
(lp188
I0
aI0
aI0
aI1
ababsg27
F0.0
sg28
(lp189
g1
(g53
g3
Ntp190
Rp191
(dp192
g57
g1
(g58
g3
Ntp193
Rp194
(dp195
g62
F48.8
sg63
F11.41
sg64
F27.0
sbsg27
F2.967
sbasg30
I01
sg31
g177
sg35
I0
sbag1
(g2
g3
Ntp196
Rp197
(dp198
g7
g10
sg12
S'WayPoint9'
p199
sg14
g1
(g15
g3
Ntp200
Rp201
(lp202
g1
(g19
g3
Ntp203
Rp204
(lp205
F5.0
aF4.600000000000002
aF0.0
abag1
(g23
g3
Ntp206
Rp207
(lp208
I0
aI0
aI0
aI1
ababsg27
F10.055
sg28
(lp209
sg30
I00
sg31
g1
(g8
g3
Ntp210
Rp211
(lp212
I31
aI0
absg35
F38.67
sba.