(lp0
ccopy_reg
_reconstructor
p1
(cdestination
Destination
p2
c__builtin__
object
p3
Ntp4
Rp5
(dp6
S'_Destination__latest_usage'
p7
g1
(crospy.rostime
Time
p8
g3
Ntp9
Rp10
(lp11
I54
aI800000000
absS'name'
p12
S'WayPoint1'
p13
sS'pose'
p14
g1
(cgeometry_msgs.msg._Pose
Pose
p15
g3
Ntp16
Rp17
(lp18
g1
(cgeometry_msgs.msg._Point
Point
p19
g3
Ntp20
Rp21
(lp22
F-1.549999999999999
aF-0.8999999999999986
aF0.0
abag1
(cgeometry_msgs.msg._Quaternion
Quaternion
p23
g3
Ntp24
Rp25
(lp26
I0
aI0
aI0
aI1
ababsS'path_len'
p27
F0.0
sS'_Destination__stats'
p28
(lp29
g1
(cdestination
Observation
p30
g3
Ntp31
Rp32
(dp33
S'idleness'
p34
g1
(cdestination
Idleness
p35
g3
Ntp36
Rp37
(dp38
S'_Idleness__true_idl'
p39
F37.6
sS'_Idleness__estim_idl'
p40
F33.53
sS'_Idleness__remaining_idl'
p41
F35.0
sbsg27
F8.719
sbag1
(g30
g3
Ntp42
Rp43
(dp44
g34
g1
(g35
g3
Ntp45
Rp46
(dp47
g39
F17.2
sg40
F16.0
sg41
F15.0
sbsg27
F4.161
sbasS'_Destination__available'
p48
I01
sS'_Destination__remaining_idl'
p49
g10
sS'estim_idl'
p50
I0
sbag1
(g2
g3
Ntp51
Rp52
(dp53
g7
g1
(g8
g3
Ntp54
Rp55
(lp56
I0
aI0
absg12
S'WayPoint10'
p57
sg14
g1
(g15
g3
Ntp58
Rp59
(lp60
g1
(g19
g3
Ntp61
Rp62
(lp63
F-2.75
aF4.0500000000000025
aF0.0
abag1
(g23
g3
Ntp64
Rp65
(lp66
I0
aI0
aI0
aI1
ababsg27
F8.747
sg28
(lp67
sg48
I00
sg49
g1
(g8
g3
Ntp68
Rp69
(lp70
I38
aI204000000
absg50
F33.64
sbag1
(g2
g3
Ntp71
Rp72
(dp73
g7
g1
(g8
g3
Ntp74
Rp75
(lp76
I38
aI800000000
absg12
S'WayPoint2'
p77
sg14
g1
(g15
g3
Ntp78
Rp79
(lp80
g1
(g19
g3
Ntp81
Rp82
(lp83
F-5.25
aF-0.04999999999999716
aF0.0
abag1
(g23
g3
Ntp84
Rp85
(lp86
I0
aI0
aI0
aI1
ababsg27
F0.0
sg28
(lp87
g1
(g30
g3
Ntp88
Rp89
(dp90
g34
g1
(g35
g3
Ntp91
Rp92
(dp93
g39
F38.8
sg40
F36.28
sg41
F35.0
sbsg27
F9.432
sbasg48
I01
sg49
g75
sg50
I0
sbag1
(g2
g3
Ntp94
Rp95
(dp96
g7
g55
sg12
S'WayPoint3'
p97
sg14
g1
(g15
g3
Ntp98
Rp99
(lp100
g1
(g19
g3
Ntp101
Rp102
(lp103
F-2.6499999999999995
aF-3.8999999999999986
aF0.0
abag1
(g23
g3
Ntp104
Rp105
(lp106
I0
aI0
aI0
aI1
ababsg27
F3.283
sg28
(lp107
sg48
I00
sg49
g1
(g8
g3
Ntp108
Rp109
(lp110
I4
aI2000000
absg50
F12.63
sbag1
(g2
g3
Ntp111
Rp112
(dp113
g7
g55
sg12
S'WayPoint4'
p114
sg14
g1
(g15
g3
Ntp115
Rp116
(lp117
g1
(g19
g3
Ntp118
Rp119
(lp120
F3.700000000000001
aF-1.3499999999999979
aF0.0
abag1
(g23
g3
Ntp121
Rp122
(lp123
I0
aI0
aI0
aI1
ababsg27
F5.374
sg28
(lp124
sg48
I00
sg49
g1
(g8
g3
Ntp125
Rp126
(lp127
I55
aI802000000
absg50
F20.67
sbag1
(g2
g3
Ntp128
Rp129
(dp130
g7
g55
sg12
S'WayPoint5'
p131
sg14
g1
(g15
g3
Ntp132
Rp133
(lp134
g1
(g19
g3
Ntp135
Rp136
(lp137
F7.650000000000002
aF-1.4999999999999982
aF0.0
abag1
(g23
g3
Ntp138
Rp139
(lp140
I0
aI0
aI0
aI1
ababsg27
F14.896
sg28
(lp141
sg48
I00
sg49
g1
(g8
g3
Ntp142
Rp143
(lp144
I2
aI600000000
absg50
F57.29
sbag1
(g2
g3
Ntp145
Rp146
(dp147
g7
g55
sg12
S'WayPoint6'
p148
sg14
g1
(g15
g3
Ntp149
Rp150
(lp151
g1
(g19
g3
Ntp152
Rp153
(lp154
F4.350000000000001
aF1.6000000000000023
aF0.0
abag1
(g23
g3
Ntp155
Rp156
(lp157
I0
aI0
aI0
aI1
ababsg27
F4.68
sg28
(lp158
sg48
I00
sg49
g1
(g8
g3
Ntp159
Rp160
(lp161
I41
aI800000000
absg50
F18.0
sbag1
(g2
g3
Ntp162
Rp163
(dp164
g7
g1
(g8
g3
Ntp165
Rp166
(lp167
I9
aI800000000
absg12
S'WayPoint7'
p168
sg14
g1
(g15
g3
Ntp169
Rp170
(lp171
g1
(g19
g3
Ntp172
Rp173
(lp174
F1.700000000000001
aF1.6500000000000021
aF0.0
abag1
(g23
g3
Ntp175
Rp176
(lp177
I0
aI0
aI0
aI1
ababsg27
F0.0
sg28
(lp178
g1
(g30
g3
Ntp179
Rp180
(dp181
g34
g1
(g35
g3
Ntp182
Rp183
(dp184
g39
F9.8
sg40
F10.54
sg41
F6.0
sbsg27
F2.741
sbasg48
I01
sg49
g166
sg50
I0
sbag1
(g2
g3
Ntp185
Rp186
(dp187
g7
g55
sg12
S'WayPoint8'
p188
sg14
g1
(g15
g3
Ntp189
Rp190
(lp191
g1
(g19
g3
Ntp192
Rp193
(lp194
F0.9000000000000004
aF4.350000000000002
aF0.0
abag1
(g23
g3
Ntp195
Rp196
(lp197
I0
aI0
aI0
aI1
ababsg27
F0.0
sg28
(lp198
sg48
I01
sg49
g55
sg50
I0
sbag1
(g2
g3
Ntp199
Rp200
(dp201
g7
g1
(g8
g3
Ntp202
Rp203
(lp204
I40
aI800000000
absg12
S'WayPoint9'
p205
sg14
g1
(g15
g3
Ntp206
Rp207
(lp208
g1
(g19
g3
Ntp209
Rp210
(lp211
F5.0
aF4.600000000000002
aF0.0
abag1
(g23
g3
Ntp212
Rp213
(lp214
I0
aI0
aI0
aI1
ababsg27
F0.0
sg28
(lp215
g1
(g30
g3
Ntp216
Rp217
(dp218
g34
g1
(g35
g3
Ntp219
Rp220
(dp221
g39
F40.8
sg40
F19.38
sg41
F30.0
sbsg27
F5.038
sbasg48
I01
sg49
g203
sg50
I0
sba.