(lp0
ccopy_reg
_reconstructor
p1
(cdestination
Destination
p2
c__builtin__
object
p3
Ntp4
Rp5
(dp6
S'_Destination__latest_usage'
p7
g1
(crospy.rostime
Time
p8
g3
Ntp9
Rp10
(lp11
I43
aI600000000
absS'name'
p12
S'WayPoint1'
p13
sS'pose'
p14
g1
(cgeometry_msgs.msg._Pose
Pose
p15
g3
Ntp16
Rp17
(lp18
g1
(cgeometry_msgs.msg._Point
Point
p19
g3
Ntp20
Rp21
(lp22
F-1.549999999999999
aF-0.8999999999999986
aF0.0
abag1
(cgeometry_msgs.msg._Quaternion
Quaternion
p23
g3
Ntp24
Rp25
(lp26
I0
aI0
aI0
aI1
ababsS'path_len'
p27
F0.0
sS'_Destination__stats'
p28
(lp29
g1
(cdestination
Observation
p30
g3
Ntp31
Rp32
(dp33
S'idleness'
p34
g1
(cdestination
Idleness
p35
g3
Ntp36
Rp37
(dp38
S'_Idleness__true_idl'
p39
F43.6
sS'_Idleness__estim_idl'
p40
F33.53
sS'_Idleness__remaining_idl'
p41
F40.999
sbsg27
F8.719
sbasS'_Destination__available'
p42
I01
sS'_Destination__remaining_idl'
p43
g10
sS'estim_idl'
p44
I0
sbag1
(g2
g3
Ntp45
Rp46
(dp47
g7
g1
(g8
g3
Ntp48
Rp49
(lp50
I60
aI0
absg12
S'WayPoint10'
p51
sg14
g1
(g15
g3
Ntp52
Rp53
(lp54
g1
(g19
g3
Ntp55
Rp56
(lp57
F-2.75
aF4.0500000000000025
aF0.0
abag1
(g23
g3
Ntp58
Rp59
(lp60
I0
aI0
aI0
aI1
ababsg27
F0.0
sg28
(lp61
g1
(g30
g3
Ntp62
Rp63
(dp64
g34
g1
(g35
g3
Ntp65
Rp66
(dp67
g39
F60.0
sg40
F20.62
sg41
F50.0
sbsg27
F5.362
sbasg42
I01
sg43
g49
sg44
I0
sbag1
(g2
g3
Ntp68
Rp69
(dp70
g7
g1
(g8
g3
Ntp71
Rp72
(lp73
I39
aI0
absg12
S'WayPoint2'
p74
sg14
g1
(g15
g3
Ntp75
Rp76
(lp77
g1
(g19
g3
Ntp78
Rp79
(lp80
F-5.25
aF-0.04999999999999716
aF0.0
abag1
(g23
g3
Ntp81
Rp82
(lp83
I0
aI0
aI0
aI1
ababsg27
F4.16
sg28
(lp84
g1
(g30
g3
Ntp85
Rp86
(dp87
g34
g1
(g35
g3
Ntp88
Rp89
(dp90
g39
F39.0
sg40
F36.28
sg41
F34.999
sbsg27
F9.432
sbasg42
I00
sg43
g1
(g8
g3
Ntp91
Rp92
(lp93
I44
aI1000000
absg44
F16.0
sbag1
(g2
g3
Ntp94
Rp95
(dp96
g7
g1
(g8
g3
Ntp97
Rp98
(lp99
I0
aI0
absg12
S'WayPoint3'
p100
sg14
g1
(g15
g3
Ntp101
Rp102
(lp103
g1
(g19
g3
Ntp104
Rp105
(lp106
F-2.6499999999999995
aF-3.8999999999999986
aF0.0
abag1
(g23
g3
Ntp107
Rp108
(lp109
I0
aI0
aI0
aI1
ababsg27
F0.0
sg28
(lp110
sg42
I01
sg43
g98
sg44
I0
sbag1
(g2
g3
Ntp111
Rp112
(dp113
g7
g98
sg12
S'WayPoint4'
p114
sg14
g1
(g15
g3
Ntp115
Rp116
(lp117
g1
(g19
g3
Ntp118
Rp119
(lp120
F3.700000000000001
aF-1.3499999999999979
aF0.0
abag1
(g23
g3
Ntp121
Rp122
(lp123
I0
aI0
aI0
aI1
ababsg27
F0.0
sg28
(lp124
sg42
I01
sg43
g98
sg44
I0
sbag1
(g2
g3
Ntp125
Rp126
(dp127
g7
g98
sg12
S'WayPoint5'
p128
sg14
g1
(g15
g3
Ntp129
Rp130
(lp131
g1
(g19
g3
Ntp132
Rp133
(lp134
F7.650000000000002
aF-1.4999999999999982
aF0.0
abag1
(g23
g3
Ntp135
Rp136
(lp137
I0
aI0
aI0
aI1
ababsg27
F13.36
sg28
(lp138
sg42
I00
sg43
g1
(g8
g3
Ntp139
Rp140
(lp141
I40
aI0
absg44
F51.38
sbag1
(g2
g3
Ntp142
Rp143
(dp144
g7
g98
sg12
S'WayPoint6'
p145
sg14
g1
(g15
g3
Ntp146
Rp147
(lp148
g1
(g19
g3
Ntp149
Rp150
(lp151
F4.350000000000001
aF1.6000000000000023
aF0.0
abag1
(g23
g3
Ntp152
Rp153
(lp154
I0
aI0
aI0
aI1
ababsg27
F4.679
sg28
(lp155
sg42
I00
sg43
g1
(g8
g3
Ntp156
Rp157
(lp158
I50
aI800000000
absg44
F17.99
sbag1
(g2
g3
Ntp159
Rp160
(dp161
g7
g1
(g8
g3
Ntp162
Rp163
(lp164
I9
aI0
absg12
S'WayPoint7'
p165
sg14
g1
(g15
g3
Ntp166
Rp167
(lp168
g1
(g19
g3
Ntp169
Rp170
(lp171
F1.700000000000001
aF1.6500000000000021
aF0.0
abag1
(g23
g3
Ntp172
Rp173
(lp174
I0
aI0
aI0
aI1
ababsg27
F0.0
sg28
(lp175
g1
(g30
g3
Ntp176
Rp177
(dp178
g34
g1
(g35
g3
Ntp179
Rp180
(dp181
g39
F9.0
sg40
F10.54
sg41
F5.996
sbsg27
F2.741
sbasg42
I01
sg43
g163
sg44
I0
sbag1
(g2
g3
Ntp182
Rp183
(dp184
g7
g98
sg12
S'WayPoint8'
p185
sg14
g1
(g15
g3
Ntp186
Rp187
(lp188
g1
(g19
g3
Ntp189
Rp190
(lp191
F0.9000000000000004
aF4.350000000000002
aF0.0
abag1
(g23
g3
Ntp192
Rp193
(lp194
I0
aI0
aI0
aI1
ababsg27
F7.489
sg28
(lp195
sg42
I00
sg43
g1
(g8
g3
Ntp196
Rp197
(lp198
I2
aI400000000
absg44
F28.8
sbag1
(g2
g3
Ntp199
Rp200
(dp201
g7
g1
(g8
g3
Ntp202
Rp203
(lp204
I49
aI800000000
absg12
S'WayPoint9'
p205
sg14
g1
(g15
g3
Ntp206
Rp207
(lp208
g1
(g19
g3
Ntp209
Rp210
(lp211
F5.0
aF4.600000000000002
aF0.0
abag1
(g23
g3
Ntp212
Rp213
(lp214
I0
aI0
aI0
aI1
ababsg27
F0.0
sg28
(lp215
g1
(g30
g3
Ntp216
Rp217
(dp218
g34
g1
(g35
g3
Ntp219
Rp220
(dp221
g39
F49.8
sg40
F35.02
sg41
F47.0
sbsg27
F9.104
sbasg42
I01
sg43
g203
sg44
I0
sba.