(lp0
ccopy_reg
_reconstructor
p1
(cdestination
Destination
p2
c__builtin__
object
p3
Ntp4
Rp5
(dp6
S'_Destination__latest_usage'
p7
g1
(crospy.rostime
Time
p8
g3
Ntp9
Rp10
(lp11
I21
aI0
absS'name'
p12
S'WayPoint1'
p13
sS'pose'
p14
g1
(cgeometry_msgs.msg._Pose
Pose
p15
g3
Ntp16
Rp17
(lp18
g1
(cgeometry_msgs.msg._Point
Point
p19
g3
Ntp20
Rp21
(lp22
F-1.549999999999999
aF-0.8999999999999986
aF0.0
abag1
(cgeometry_msgs.msg._Quaternion
Quaternion
p23
g3
Ntp24
Rp25
(lp26
I0
aI0
aI0
aI1
ababsS'path_len'
p27
F4.164
sS'_Destination__stats'
p28
(lp29
g1
(cdestination
Observation
p30
g3
Ntp31
Rp32
(dp33
S'idleness'
p34
g1
(cdestination
Idleness
p35
g3
Ntp36
Rp37
(dp38
S'_Idleness__true_idl'
p39
F21.0
sS'_Idleness__estim_idl'
p40
F20.84
sS'_Idleness__remaining_idl'
p41
F18.0
sbsg27
F5.418
sbasS'_Destination__available'
p42
I00
sS'_Destination__remaining_idl'
p43
g1
(g8
g3
Ntp44
Rp45
(lp46
I39
aI1000000
absS'estim_idl'
p47
F16.02
sbag1
(g2
g3
Ntp48
Rp49
(dp50
g7
g1
(g8
g3
Ntp51
Rp52
(lp53
I0
aI0
absg12
S'WayPoint10'
p54
sg14
g1
(g15
g3
Ntp55
Rp56
(lp57
g1
(g19
g3
Ntp58
Rp59
(lp60
F-2.75
aF4.0500000000000025
aF0.0
abag1
(g23
g3
Ntp61
Rp62
(lp63
I0
aI0
aI0
aI1
ababsg27
F10.059
sg28
(lp64
sg42
I00
sg43
g1
(g8
g3
Ntp65
Rp66
(lp67
I2
aI600000000
absg47
F38.69
sbag1
(g2
g3
Ntp68
Rp69
(dp70
g7
g1
(g8
g3
Ntp71
Rp72
(lp73
I38
aI0
absg12
S'WayPoint2'
p74
sg14
g1
(g15
g3
Ntp75
Rp76
(lp77
g1
(g19
g3
Ntp78
Rp79
(lp80
F-5.25
aF-0.04999999999999716
aF0.0
abag1
(g23
g3
Ntp81
Rp82
(lp83
I0
aI0
aI0
aI1
ababsg27
F0.0
sg28
(lp84
g1
(g30
g3
Ntp85
Rp86
(dp87
g34
g1
(g35
g3
Ntp88
Rp89
(dp90
g39
F38.0
sg40
F16.0
sg41
F16.0
sbsg27
F4.16
sbasg42
I01
sg43
g72
sg47
I0
sbag1
(g2
g3
Ntp91
Rp92
(dp93
g7
g52
sg12
S'WayPoint3'
p94
sg14
g1
(g15
g3
Ntp95
Rp96
(lp97
g1
(g19
g3
Ntp98
Rp99
(lp100
F-2.6499999999999995
aF-3.8999999999999986
aF0.0
abag1
(g23
g3
Ntp101
Rp102
(lp103
I0
aI0
aI0
aI1
ababsg27
F0.0
sg28
(lp104
sg42
I01
sg43
g52
sg47
I0
sbag1
(g2
g3
Ntp105
Rp106
(dp107
g7
g52
sg12
S'WayPoint4'
p108
sg14
g1
(g15
g3
Ntp109
Rp110
(lp111
g1
(g19
g3
Ntp112
Rp113
(lp114
F3.700000000000001
aF-1.3499999999999979
aF0.0
abag1
(g23
g3
Ntp115
Rp116
(lp117
I0
aI0
aI0
aI1
ababsg27
F5.789
sg28
(lp118
sg42
I00
sg43
g1
(g8
g3
Ntp119
Rp120
(lp121
I21
aI801000000
absg47
F22.27
sbag1
(g2
g3
Ntp122
Rp123
(dp124
g7
g52
sg12
S'WayPoint5'
p125
sg14
g1
(g15
g3
Ntp126
Rp127
(lp128
g1
(g19
g3
Ntp129
Rp130
(lp131
F7.650000000000002
aF-1.4999999999999982
aF0.0
abag1
(g23
g3
Ntp132
Rp133
(lp134
I0
aI0
aI0
aI1
ababsg27
F14.496
sg28
(lp135
sg42
I00
sg43
g66
sg47
F55.75
sbag1
(g2
g3
Ntp136
Rp137
(dp138
g7
g52
sg12
S'WayPoint6'
p139
sg14
g1
(g15
g3
Ntp140
Rp141
(lp142
g1
(g19
g3
Ntp143
Rp144
(lp145
F4.350000000000001
aF1.6000000000000023
aF0.0
abag1
(g23
g3
Ntp146
Rp147
(lp148
I0
aI0
aI0
aI1
ababsg27
F0.0
sg28
(lp149
sg42
I01
sg43
g52
sg47
I0
sbag1
(g2
g3
Ntp150
Rp151
(dp152
g7
g1
(g8
g3
Ntp153
Rp154
(lp155
I20
aI801000000
absg12
S'WayPoint7'
p156
sg14
g1
(g15
g3
Ntp157
Rp158
(lp159
g1
(g19
g3
Ntp160
Rp161
(lp162
F1.700000000000001
aF1.6500000000000021
aF0.0
abag1
(g23
g3
Ntp163
Rp164
(lp165
I0
aI0
aI0
aI1
ababsg27
F0.0
sg28
(lp166
g1
(g30
g3
Ntp167
Rp168
(dp169
g34
g1
(g35
g3
Ntp170
Rp171
(dp172
g39
F20.801
sg40
F16.19
sg41
F18.001
sbsg27
F4.209
sbasg42
I01
sg43
g154
sg47
I0
sbag1
(g2
g3
Ntp173
Rp174
(dp175
g7
g52
sg12
S'WayPoint8'
p176
sg14
g1
(g15
g3
Ntp177
Rp178
(lp179
g1
(g19
g3
Ntp180
Rp181
(lp182
F0.9000000000000004
aF4.350000000000002
aF0.0
abag1
(g23
g3
Ntp183
Rp184
(lp185
I0
aI0
aI0
aI1
ababsg27
F0.0
sg28
(lp186
sg42
I01
sg43
g52
sg47
I0
sbag1
(g2
g3
Ntp187
Rp188
(dp189
g7
g52
sg12
S'WayPoint9'
p190
sg14
g1
(g15
g3
Ntp191
Rp192
(lp193
g1
(g19
g3
Ntp194
Rp195
(lp196
F5.0
aF4.600000000000002
aF0.0
abag1
(g23
g3
Ntp197
Rp198
(lp199
I0
aI0
aI0
aI1
ababsg27
F4.738
sg28
(lp200
sg42
I00
sg43
g1
(g8
g3
Ntp201
Rp202
(lp203
I2
aI800000000
absg47
F18.22
sba.