(lp0
ccopy_reg
_reconstructor
p1
(cdestination
Destination
p2
c__builtin__
object
p3
Ntp4
Rp5
(dp6
S'_Destination__latest_usage'
p7
g1
(crospy.rostime
Time
p8
g3
Ntp9
Rp10
(lp11
I0
aI0
absS'name'
p12
S'WayPoint1'
p13
sS'pose'
p14
g1
(cgeometry_msgs.msg._Pose
Pose
p15
g3
Ntp16
Rp17
(lp18
g1
(cgeometry_msgs.msg._Point
Point
p19
g3
Ntp20
Rp21
(lp22
F-1.549999999999999
aF-0.8999999999999986
aF0.0
abag1
(cgeometry_msgs.msg._Quaternion
Quaternion
p23
g3
Ntp24
Rp25
(lp26
I0
aI0
aI0
aI1
ababsS'path_len'
p27
F0.0
sS'_Destination__stats'
p28
(lp29
sS'_Destination__available'
p30
I01
sS'_Destination__remaining_idl'
p31
g10
sS'estim_idl'
p32
I0
sbag1
(g2
g3
Ntp33
Rp34
(dp35
g7
g1
(g8
g3
Ntp36
Rp37
(lp38
I59
aI600000000
absg12
S'WayPoint10'
p39
sg14
g1
(g15
g3
Ntp40
Rp41
(lp42
g1
(g19
g3
Ntp43
Rp44
(lp45
F-2.75
aF4.0500000000000025
aF0.0
abag1
(g23
g3
Ntp46
Rp47
(lp48
I0
aI0
aI0
aI1
ababsg27
F0.0
sg28
(lp49
g1
(cdestination
Observation
p50
g3
Ntp51
Rp52
(dp53
S'idleness'
p54
g1
(cdestination
Idleness
p55
g3
Ntp56
Rp57
(dp58
S'_Idleness__true_idl'
p59
F59.6
sS'_Idleness__estim_idl'
p60
F40.73
sS'_Idleness__remaining_idl'
p61
F57.0
sbsg27
F10.589
sbasg30
I01
sg31
g37
sg32
I0
sbag1
(g2
g3
Ntp62
Rp63
(dp64
g7
g1
(g8
g3
Ntp65
Rp66
(lp67
I56
aI800000000
absg12
S'WayPoint2'
p68
sg14
g1
(g15
g3
Ntp69
Rp70
(lp71
g1
(g19
g3
Ntp72
Rp73
(lp74
F-5.25
aF-0.04999999999999716
aF0.0
abag1
(g23
g3
Ntp75
Rp76
(lp77
I0
aI0
aI0
aI1
ababsg27
F0.0
sg28
(lp78
g1
(g50
g3
Ntp79
Rp80
(dp81
g54
g1
(g55
g3
Ntp82
Rp83
(dp84
g59
F56.8
sg60
F45.81
sg61
F54.0
sbsg27
F11.911
sbasg30
I01
sg31
g66
sg32
I0
sbag1
(g2
g3
Ntp85
Rp86
(dp87
g7
g10
sg12
S'WayPoint3'
p88
sg14
g1
(g15
g3
Ntp89
Rp90
(lp91
g1
(g19
g3
Ntp92
Rp93
(lp94
F-2.6499999999999995
aF-3.8999999999999986
aF0.0
abag1
(g23
g3
Ntp95
Rp96
(lp97
I0
aI0
aI0
aI1
ababsg27
F3.283
sg28
(lp98
sg30
I00
sg31
g1
(g8
g3
Ntp99
Rp100
(lp101
I2
aI200000000
absg32
F12.63
sbag1
(g2
g3
Ntp102
Rp103
(dp104
g7
g10
sg12
S'WayPoint4'
p105
sg14
g1
(g15
g3
Ntp106
Rp107
(lp108
g1
(g19
g3
Ntp109
Rp110
(lp111
F3.700000000000001
aF-1.3499999999999979
aF0.0
abag1
(g23
g3
Ntp112
Rp113
(lp114
I0
aI0
aI0
aI1
ababsg27
F9.413
sg28
(lp115
sg30
I00
sg31
g1
(g8
g3
Ntp116
Rp117
(lp118
I57
aI204000000
absg32
F36.2
sbag1
(g2
g3
Ntp119
Rp120
(dp121
g7
g10
sg12
S'WayPoint5'
p122
sg14
g1
(g15
g3
Ntp123
Rp124
(lp125
g1
(g19
g3
Ntp126
Rp127
(lp128
F7.650000000000002
aF-1.4999999999999982
aF0.0
abag1
(g23
g3
Ntp129
Rp130
(lp131
I0
aI0
aI0
aI1
ababsg27
F12.509
sg28
(lp132
sg30
I00
sg31
g1
(g8
g3
Ntp133
Rp134
(lp135
I2
aI800000000
absg32
F48.11
sbag1
(g2
g3
Ntp136
Rp137
(dp138
g7
g1
(g8
g3
Ntp139
Rp140
(lp141
I16
aI600000000
absg12
S'WayPoint6'
p142
sg14
g1
(g15
g3
Ntp143
Rp144
(lp145
g1
(g19
g3
Ntp146
Rp147
(lp148
F4.350000000000001
aF1.6000000000000023
aF0.0
abag1
(g23
g3
Ntp149
Rp150
(lp151
I0
aI0
aI0
aI1
ababsg27
F0.0
sg28
(lp152
g1
(g50
g3
Ntp153
Rp154
(dp155
g54
g1
(g55
g3
Ntp156
Rp157
(dp158
g59
F16.6
sg60
F18.27
sg61
F14.0
sbsg27
F4.75
sbasg30
I01
sg31
g140
sg32
I0
sbag1
(g2
g3
Ntp159
Rp160
(dp161
g7
g10
sg12
S'WayPoint7'
p162
sg14
g1
(g15
g3
Ntp163
Rp164
(lp165
g1
(g19
g3
Ntp166
Rp167
(lp168
F1.700000000000001
aF1.6500000000000021
aF0.0
abag1
(g23
g3
Ntp169
Rp170
(lp171
I0
aI0
aI0
aI1
ababsg27
F2.741
sg28
(lp172
sg30
I00
sg31
g1
(g8
g3
Ntp173
Rp174
(lp175
I17
aI200000000
absg32
F10.54
sbag1
(g2
g3
Ntp176
Rp177
(dp178
g7
g10
sg12
S'WayPoint8'
p179
sg14
g1
(g15
g3
Ntp180
Rp181
(lp182
g1
(g19
g3
Ntp183
Rp184
(lp185
F0.9000000000000004
aF4.350000000000002
aF0.0
abag1
(g23
g3
Ntp186
Rp187
(lp188
I0
aI0
aI0
aI1
ababsg27
F0.0
sg28
(lp189
sg30
I01
sg31
g10
sg32
I0
sbag1
(g2
g3
Ntp190
Rp191
(dp192
g7
g10
sg12
S'WayPoint9'
p193
sg14
g1
(g15
g3
Ntp194
Rp195
(lp196
g1
(g19
g3
Ntp197
Rp198
(lp199
F5.0
aF4.600000000000002
aF0.0
abag1
(g23
g3
Ntp200
Rp201
(lp202
I0
aI0
aI0
aI1
ababsg27
F9.987
sg28
(lp203
sg30
I00
sg31
g1
(g8
g3
Ntp204
Rp205
(lp206
I60
aI0
absg32
F38.41
sba.