(lp0
ccopy_reg
_reconstructor
p1
(cdestination
Destination
p2
c__builtin__
object
p3
Ntp4
Rp5
(dp6
S'_Destination__latest_usage'
p7
g1
(crospy.rostime
Time
p8
g3
Ntp9
Rp10
(lp11
I21
aI1000000
absS'name'
p12
S'WayPoint1'
p13
sS'pose'
p14
g1
(cgeometry_msgs.msg._Pose
Pose
p15
g3
Ntp16
Rp17
(lp18
g1
(cgeometry_msgs.msg._Point
Point
p19
g3
Ntp20
Rp21
(lp22
F-1.549999999999999
aF-0.8999999999999986
aF0.0
abag1
(cgeometry_msgs.msg._Quaternion
Quaternion
p23
g3
Ntp24
Rp25
(lp26
I0
aI0
aI0
aI1
ababsS'path_len'
p27
F3.287
sS'_Destination__stats'
p28
(lp29
g1
(cdestination
Observation
p30
g3
Ntp31
Rp32
(dp33
S'idleness'
p34
g1
(cdestination
Idleness
p35
g3
Ntp36
Rp37
(dp38
S'_Idleness__true_idl'
p39
F21.001
sS'_Idleness__estim_idl'
p40
F20.84
sS'_Idleness__remaining_idl'
p41
F18.001
sbsg27
F5.418
sbasS'_Destination__available'
p42
I00
sS'_Destination__remaining_idl'
p43
g1
(g8
g3
Ntp44
Rp45
(lp46
I55
aI0
absS'estim_idl'
p47
F12.64
sbag1
(g2
g3
Ntp48
Rp49
(dp50
g7
g1
(g8
g3
Ntp51
Rp52
(lp53
I0
aI0
absg12
S'WayPoint10'
p54
sg14
g1
(g15
g3
Ntp55
Rp56
(lp57
g1
(g19
g3
Ntp58
Rp59
(lp60
F-2.75
aF4.0500000000000025
aF0.0
abag1
(g23
g3
Ntp61
Rp62
(lp63
I0
aI0
aI0
aI1
ababsg27
F10.079
sg28
(lp64
sg42
I00
sg43
g1
(g8
g3
Ntp65
Rp66
(lp67
I2
aI800000000
absg47
F38.76
sbag1
(g2
g3
Ntp68
Rp69
(dp70
g7
g1
(g8
g3
Ntp71
Rp72
(lp73
I38
aI0
absg12
S'WayPoint2'
p74
sg14
g1
(g15
g3
Ntp75
Rp76
(lp77
g1
(g19
g3
Ntp78
Rp79
(lp80
F-5.25
aF-0.04999999999999716
aF0.0
abag1
(g23
g3
Ntp81
Rp82
(lp83
I0
aI0
aI0
aI1
ababsg27
F12.627
sg28
(lp84
g1
(g30
g3
Ntp85
Rp86
(dp87
g34
g1
(g35
g3
Ntp88
Rp89
(dp90
g39
F38.0
sg40
F16.0
sg41
F16.0
sbsg27
F4.16
sbasg42
I00
sg43
g1
(g8
g3
Ntp91
Rp92
(lp93
I60
aI0
absg47
F48.57
sbag1
(g2
g3
Ntp94
Rp95
(dp96
g7
g1
(g8
g3
Ntp97
Rp98
(lp99
I54
aI0
absg12
S'WayPoint3'
p100
sg14
g1
(g15
g3
Ntp101
Rp102
(lp103
g1
(g19
g3
Ntp104
Rp105
(lp106
F-2.6499999999999995
aF-3.8999999999999986
aF0.0
abag1
(g23
g3
Ntp107
Rp108
(lp109
I0
aI0
aI0
aI1
ababsg27
F0.0
sg28
(lp110
g1
(g30
g3
Ntp111
Rp112
(dp113
g34
g1
(g35
g3
Ntp114
Rp115
(dp116
g39
F54.0
sg40
F27.7
sg41
F32.999
sbsg27
F7.201
sbasg42
I01
sg43
g98
sg47
I0
sbag1
(g2
g3
Ntp117
Rp118
(dp119
g7
g52
sg12
S'WayPoint4'
p120
sg14
g1
(g15
g3
Ntp121
Rp122
(lp123
g1
(g19
g3
Ntp124
Rp125
(lp126
F3.700000000000001
aF-1.3499999999999979
aF0.0
abag1
(g23
g3
Ntp127
Rp128
(lp129
I0
aI0
aI0
aI1
ababsg27
F8.471
sg28
(lp130
sg42
I00
sg43
g1
(g8
g3
Ntp131
Rp132
(lp133
I21
aI800000000
absg47
F32.58
sbag1
(g2
g3
Ntp134
Rp135
(dp136
g7
g52
sg12
S'WayPoint5'
p137
sg14
g1
(g15
g3
Ntp138
Rp139
(lp140
g1
(g19
g3
Ntp141
Rp142
(lp143
F7.650000000000002
aF-1.4999999999999982
aF0.0
abag1
(g23
g3
Ntp144
Rp145
(lp146
I0
aI0
aI0
aI1
ababsg27
F0.0
sg28
(lp147
sg42
I01
sg43
g52
sg47
I0
sbag1
(g2
g3
Ntp148
Rp149
(dp150
g7
g52
sg12
S'WayPoint6'
p151
sg14
g1
(g15
g3
Ntp152
Rp153
(lp154
g1
(g19
g3
Ntp155
Rp156
(lp157
F4.350000000000001
aF1.6000000000000023
aF0.0
abag1
(g23
g3
Ntp158
Rp159
(lp160
I0
aI0
aI0
aI1
ababsg27
F10.063
sg28
(lp161
sg42
I00
sg43
g1
(g8
g3
Ntp162
Rp163
(lp164
I39
aI0
absg47
F38.7
sbag1
(g2
g3
Ntp165
Rp166
(dp167
g7
g1
(g8
g3
Ntp168
Rp169
(lp170
I20
aI600000000
absg12
S'WayPoint7'
p171
sg14
g1
(g15
g3
Ntp172
Rp173
(lp174
g1
(g19
g3
Ntp175
Rp176
(lp177
F1.700000000000001
aF1.6500000000000021
aF0.0
abag1
(g23
g3
Ntp178
Rp179
(lp180
I0
aI0
aI0
aI1
ababsg27
F0.0
sg28
(lp181
g1
(g30
g3
Ntp182
Rp183
(dp184
g34
g1
(g35
g3
Ntp185
Rp186
(dp187
g39
F20.6
sg40
F16.19
sg41
F17.999
sbsg27
F4.209
sbasg42
I01
sg43
g169
sg47
I0
sbag1
(g2
g3
Ntp188
Rp189
(dp190
g7
g1
(g8
g3
Ntp191
Rp192
(lp193
I20
aI800000000
absg12
S'WayPoint8'
p194
sg14
g1
(g15
g3
Ntp195
Rp196
(lp197
g1
(g19
g3
Ntp198
Rp199
(lp200
F0.9000000000000004
aF4.350000000000002
aF0.0
abag1
(g23
g3
Ntp201
Rp202
(lp203
I0
aI0
aI0
aI1
ababsg27
F0.0
sg28
(lp204
g1
(g30
g3
Ntp205
Rp206
(dp207
g34
g1
(g35
g3
Ntp208
Rp209
(dp210
g39
F20.8
sg40
F20.53
sg41
F18.0
sbsg27
F5.339
sbasg42
I01
sg43
g192
sg47
I0
sbag1
(g2
g3
Ntp211
Rp212
(dp213
g7
g1
(g8
g3
Ntp214
Rp215
(lp216
I59
aI600000000
absg12
S'WayPoint9'
p217
sg14
g1
(g15
g3
Ntp218
Rp219
(lp220
g1
(g19
g3
Ntp221
Rp222
(lp223
F5.0
aF4.600000000000002
aF0.0
abag1
(g23
g3
Ntp224
Rp225
(lp226
I0
aI0
aI0
aI1
ababsg27
F0.0
sg28
(lp227
g1
(g30
g3
Ntp228
Rp229
(dp230
g34
g1
(g35
g3
Ntp231
Rp232
(dp233
g39
F59.6
sg40
F38.52
sg41
F57.2
sbsg27
F10.015
sbasg42
I01
sg43
g215
sg47
I0
sba.