(lp0
ccopy_reg
_reconstructor
p1
(cdestination
Destination
p2
c__builtin__
object
p3
Ntp4
Rp5
(dp6
S'_Destination__latest_usage'
p7
g1
(crospy.rostime
Time
p8
g3
Ntp9
Rp10
(lp11
I60
aI1000000
absS'name'
p12
S'WayPoint1'
p13
sS'pose'
p14
g1
(cgeometry_msgs.msg._Pose
Pose
p15
g3
Ntp16
Rp17
(lp18
g1
(cgeometry_msgs.msg._Point
Point
p19
g3
Ntp20
Rp21
(lp22
F-1.549999999999999
aF-0.8999999999999986
aF0.0
abag1
(cgeometry_msgs.msg._Quaternion
Quaternion
p23
g3
Ntp24
Rp25
(lp26
I0
aI0
aI0
aI1
ababsS'_Destination__stats'
p27
(lp28
g1
(cdestination
Idleness
p29
g3
Ntp30
Rp31
(dp32
S'_Idleness__true_idl'
p33
F60.001
sS'_Idleness__estim_idl'
p34
F27.58
sS'_Idleness__remaining_idl'
p35
F32.999
sbasS'_Destination__available'
p36
I01
sS'_Destination__remaining_idl'
p37
g10
sS'estim_idl'
p38
I0
sbag1
(g2
g3
Ntp39
Rp40
(dp41
g7
g1
(g8
g3
Ntp42
Rp43
(lp44
I0
aI0
absg12
S'WayPoint10'
p45
sg14
g1
(g15
g3
Ntp46
Rp47
(lp48
g1
(g19
g3
Ntp49
Rp50
(lp51
F-2.75
aF4.0500000000000025
aF0.0
abag1
(g23
g3
Ntp52
Rp53
(lp54
I0
aI0
aI0
aI1
ababsg27
(lp55
sg36
I00
sg37
g1
(g8
g3
Ntp56
Rp57
(lp58
I3
aI600000000
absg38
F40.73
sbag1
(g2
g3
Ntp59
Rp60
(dp61
g7
g43
sg12
S'WayPoint2'
p62
sg14
g1
(g15
g3
Ntp63
Rp64
(lp65
g1
(g19
g3
Ntp66
Rp67
(lp68
F-5.25
aF-0.04999999999999716
aF0.0
abag1
(g23
g3
Ntp69
Rp70
(lp71
I0
aI0
aI0
aI1
ababsg27
(lp72
sg36
I00
sg37
g1
(g8
g3
Ntp73
Rp74
(lp75
I4
aI200000000
absg38
F38.4
sbag1
(g2
g3
Ntp76
Rp77
(dp78
g7
g1
(g8
g3
Ntp79
Rp80
(lp81
I30
aI201000000
absg12
S'WayPoint3'
p82
sg14
g1
(g15
g3
Ntp83
Rp84
(lp85
g1
(g19
g3
Ntp86
Rp87
(lp88
F-2.6499999999999995
aF-3.8999999999999986
aF0.0
abag1
(g23
g3
Ntp89
Rp90
(lp91
I0
aI0
aI0
aI1
ababsg27
(lp92
g1
(g29
g3
Ntp93
Rp94
(dp95
g33
F30.201
sg34
F23.48
sg35
F26.001
sbasg36
I00
sg37
g1
(g8
g3
Ntp96
Rp97
(lp98
I48
aI0
absg38
F36.58
sbag1
(g2
g3
Ntp99
Rp100
(dp101
g7
g43
sg12
S'WayPoint4'
p102
sg14
g1
(g15
g3
Ntp103
Rp104
(lp105
g1
(g19
g3
Ntp106
Rp107
(lp108
F3.700000000000001
aF-1.3499999999999979
aF0.0
abag1
(g23
g3
Ntp109
Rp110
(lp111
I0
aI0
aI0
aI1
ababsg27
(lp112
sg36
I00
sg37
g1
(g8
g3
Ntp113
Rp114
(lp115
I23
aI201000000
absg38
F22.96
sbag1
(g2
g3
Ntp116
Rp117
(dp118
g7
g43
sg12
S'WayPoint5'
p119
sg14
g1
(g15
g3
Ntp120
Rp121
(lp122
g1
(g19
g3
Ntp123
Rp124
(lp125
F7.650000000000002
aF-1.4999999999999982
aF0.0
abag1
(g23
g3
Ntp126
Rp127
(lp128
I0
aI0
aI0
aI1
ababsg27
(lp129
sg36
I00
sg37
g1
(g8
g3
Ntp130
Rp131
(lp132
I3
aI401000000
absg38
F55.75
sbag1
(g2
g3
Ntp133
Rp134
(dp135
g7
g1
(g8
g3
Ntp136
Rp137
(lp138
I26
aI601000000
absg12
S'WayPoint6'
p139
sg14
g1
(g15
g3
Ntp140
Rp141
(lp142
g1
(g19
g3
Ntp143
Rp144
(lp145
F4.350000000000001
aF1.6000000000000023
aF0.0
abag1
(g23
g3
Ntp146
Rp147
(lp148
I0
aI0
aI0
aI1
ababsg27
(lp149
g1
(g29
g3
Ntp150
Rp151
(dp152
g33
F26.601
sg34
F20.48
sg35
F23.001
sbasg36
I00
sg37
g1
(g8
g3
Ntp153
Rp154
(lp155
I31
aI200000000
absg38
F37.67
sbag1
(g2
g3
Ntp156
Rp157
(dp158
g7
g1
(g8
g3
Ntp159
Rp160
(lp161
I22
aI200000000
absg12
S'WayPoint7'
p162
sg14
g1
(g15
g3
Ntp163
Rp164
(lp165
g1
(g19
g3
Ntp166
Rp167
(lp168
F1.700000000000001
aF1.6500000000000021
aF0.0
abag1
(g23
g3
Ntp169
Rp170
(lp171
I0
aI0
aI0
aI1
ababsg27
(lp172
g1
(g29
g3
Ntp173
Rp174
(dp175
g33
F22.2
sg34
F16.19
sg35
F18.0
sbasg36
I01
sg37
g160
sg38
I0
sbag1
(g2
g3
Ntp176
Rp177
(dp178
g7
g1
(g8
g3
Ntp179
Rp180
(lp181
I47
aI0
absg12
S'WayPoint8'
p182
sg14
g1
(g15
g3
Ntp183
Rp184
(lp185
g1
(g19
g3
Ntp186
Rp187
(lp188
F0.9000000000000004
aF4.350000000000002
aF0.0
abag1
(g23
g3
Ntp189
Rp190
(lp191
I0
aI0
aI0
aI1
ababsg27
(lp192
g1
(g29
g3
Ntp193
Rp194
(dp195
g33
F47.0
sg34
F28.72
sg35
F43.4
sbasg36
I01
sg37
g180
sg38
I0
sbag1
(g2
g3
Ntp196
Rp197
(dp198
g7
g43
sg12
S'WayPoint9'
p199
sg14
g1
(g15
g3
Ntp200
Rp201
(lp202
g1
(g19
g3
Ntp203
Rp204
(lp205
F5.0
aF4.600000000000002
aF0.0
abag1
(g23
g3
Ntp206
Rp207
(lp208
I0
aI0
aI0
aI1
ababsg27
(lp209
sg36
I00
sg37
g1
(g8
g3
Ntp210
Rp211
(lp212
I4
aI3000000
absg38
F57.05
sba.