(lp0
ccopy_reg
_reconstructor
p1
(cdestination
Destination
p2
c__builtin__
object
p3
Ntp4
Rp5
(dp6
S'_Destination__latest_usage'
p7
g1
(crospy.rostime
Time
p8
g3
Ntp9
Rp10
(lp11
I21
aI600000000
absS'name'
p12
S'WayPoint1'
p13
sS'pose'
p14
g1
(cgeometry_msgs.msg._Pose
Pose
p15
g3
Ntp16
Rp17
(lp18
g1
(cgeometry_msgs.msg._Point
Point
p19
g3
Ntp20
Rp21
(lp22
F-1.549999999999999
aF-0.8999999999999986
aF0.0
abag1
(cgeometry_msgs.msg._Quaternion
Quaternion
p23
g3
Ntp24
Rp25
(lp26
I0
aI0
aI0
aI1
ababsS'_Destination__stats'
p27
(lp28
g1
(cdestination
Idleness
p29
g3
Ntp30
Rp31
(dp32
S'_Idleness__true_idl'
p33
F21.6
sS'_Idleness__estim_idl'
p34
F20.84
sS'_Idleness__remaining_idl'
p35
F19.0
sbasS'_Destination__available'
p36
I00
sS'_Destination__remaining_idl'
p37
g1
(g8
g3
Ntp38
Rp39
(lp40
I31
aI0
absS'estim_idl'
p41
F12.68
sbag1
(g2
g3
Ntp42
Rp43
(dp44
g7
g1
(g8
g3
Ntp45
Rp46
(lp47
I59
aI1000000
absg12
S'WayPoint10'
p48
sg14
g1
(g15
g3
Ntp49
Rp50
(lp51
g1
(g19
g3
Ntp52
Rp53
(lp54
F-2.75
aF4.0500000000000025
aF0.0
abag1
(g23
g3
Ntp55
Rp56
(lp57
I0
aI0
aI0
aI1
ababsg27
(lp58
g1
(g29
g3
Ntp59
Rp60
(dp61
g33
F59.001
sg34
F30.94
sg35
F32.001
sbasg36
I01
sg37
g46
sg41
I0
sbag1
(g2
g3
Ntp62
Rp63
(dp64
g7
g1
(g8
g3
Ntp65
Rp66
(lp67
I0
aI0
absg12
S'WayPoint2'
p68
sg14
g1
(g15
g3
Ntp69
Rp70
(lp71
g1
(g19
g3
Ntp72
Rp73
(lp74
F-5.25
aF-0.04999999999999716
aF0.0
abag1
(g23
g3
Ntp75
Rp76
(lp77
I0
aI0
aI0
aI1
ababsg27
(lp78
sg36
I00
sg37
g1
(g8
g3
Ntp79
Rp80
(lp81
I2
aI801000000
absg41
F38.44
sbag1
(g2
g3
Ntp82
Rp83
(dp84
g7
g1
(g8
g3
Ntp85
Rp86
(lp87
I30
aI3000000
absg12
S'WayPoint3'
p88
sg14
g1
(g15
g3
Ntp89
Rp90
(lp91
g1
(g19
g3
Ntp92
Rp93
(lp94
F-2.6499999999999995
aF-3.8999999999999986
aF0.0
abag1
(g23
g3
Ntp95
Rp96
(lp97
I0
aI0
aI0
aI1
ababsg27
(lp98
g1
(g29
g3
Ntp99
Rp100
(dp101
g33
F30.003
sg34
F23.48
sg35
F27.003
sbasg36
I00
sg37
g1
(g8
g3
Ntp102
Rp103
(lp104
I60
aI0
absg41
F45.78
sbag1
(g2
g3
Ntp105
Rp106
(dp107
g7
g66
sg12
S'WayPoint4'
p108
sg14
g1
(g15
g3
Ntp109
Rp110
(lp111
g1
(g19
g3
Ntp112
Rp113
(lp114
F3.700000000000001
aF-1.3499999999999979
aF0.0
abag1
(g23
g3
Ntp115
Rp116
(lp117
I0
aI0
aI0
aI1
ababsg27
(lp118
sg36
I00
sg37
g1
(g8
g3
Ntp119
Rp120
(lp121
I2
aI600000000
absg41
F41.91
sbag1
(g2
g3
Ntp122
Rp123
(dp124
g7
g66
sg12
S'WayPoint5'
p125
sg14
g1
(g15
g3
Ntp126
Rp127
(lp128
g1
(g19
g3
Ntp129
Rp130
(lp131
F7.650000000000002
aF-1.4999999999999982
aF0.0
abag1
(g23
g3
Ntp132
Rp133
(lp134
I0
aI0
aI0
aI1
ababsg27
(lp135
sg36
I00
sg37
g80
sg41
F55.75
sbag1
(g2
g3
Ntp136
Rp137
(dp138
g7
g1
(g8
g3
Ntp139
Rp140
(lp141
I26
aI0
absg12
S'WayPoint6'
p142
sg14
g1
(g15
g3
Ntp143
Rp144
(lp145
g1
(g19
g3
Ntp146
Rp147
(lp148
F4.350000000000001
aF1.6000000000000023
aF0.0
abag1
(g23
g3
Ntp149
Rp150
(lp151
I0
aI0
aI0
aI1
ababsg27
(lp152
g1
(g29
g3
Ntp153
Rp154
(dp155
g33
F26.0
sg34
F20.48
sg35
F23.0
sbasg36
I00
sg37
g1
(g8
g3
Ntp156
Rp157
(lp158
I34
aI400000000
absg41
F20.45
sbag1
(g2
g3
Ntp159
Rp160
(dp161
g7
g66
sg12
S'WayPoint7'
p162
sg14
g1
(g15
g3
Ntp163
Rp164
(lp165
g1
(g19
g3
Ntp166
Rp167
(lp168
F1.700000000000001
aF1.6500000000000021
aF0.0
abag1
(g23
g3
Ntp169
Rp170
(lp171
I0
aI0
aI0
aI1
ababsg27
(lp172
sg36
I00
sg37
g1
(g8
g3
Ntp173
Rp174
(lp175
I3
aI0
absg41
F38.22
sbag1
(g2
g3
Ntp176
Rp177
(dp178
g7
g1
(g8
g3
Ntp179
Rp180
(lp181
I33
aI800000000
absg12
S'WayPoint8'
p182
sg14
g1
(g15
g3
Ntp183
Rp184
(lp185
g1
(g19
g3
Ntp186
Rp187
(lp188
F0.9000000000000004
aF4.350000000000002
aF0.0
abag1
(g23
g3
Ntp189
Rp190
(lp191
I0
aI0
aI0
aI1
ababsg27
(lp192
g1
(g29
g3
Ntp193
Rp194
(dp195
g33
F33.8
sg34
F25.65
sg35
F30.999
sbasg36
I01
sg37
g180
sg41
I0
sbag1
(g2
g3
Ntp196
Rp197
(dp198
g7
g66
sg12
S'WayPoint9'
p199
sg14
g1
(g15
g3
Ntp200
Rp201
(lp202
g1
(g19
g3
Ntp203
Rp204
(lp205
F5.0
aF4.600000000000002
aF0.0
abag1
(g23
g3
Ntp206
Rp207
(lp208
I0
aI0
aI0
aI1
ababsg27
(lp209
sg36
I00
sg37
g1
(g8
g3
Ntp210
Rp211
(lp212
I22
aI201000000
absg41
F35.2
sba.