(lp0
ccopy_reg
_reconstructor
p1
(cdestination
Destination
p2
c__builtin__
object
p3
Ntp4
Rp5
(dp6
S'_Destination__latest_usage'
p7
g1
(crospy.rostime
Time
p8
g3
Ntp9
Rp10
(lp11
I60
aI376000000
absS'name'
p12
S'WayPoint1'
p13
sS'pose'
p14
g1
(cgeometry_msgs.msg._Pose
Pose
p15
g3
Ntp16
Rp17
(lp18
g1
(cgeometry_msgs.msg._Point
Point
p19
g3
Ntp20
Rp21
(lp22
F-1.549999999999999
aF-0.8999999999999986
aF0.0
abag1
(cgeometry_msgs.msg._Quaternion
Quaternion
p23
g3
Ntp24
Rp25
(lp26
I0
aI0
aI0
aI1
ababsS'_Destination__stats'
p27
(lp28
g1
(cdestination
Idleness
p29
g3
Ntp30
Rp31
(dp32
S'_Idleness__true_idl'
p33
F60.376
sS'_Idleness__estim_idl'
p34
F35.03
sS'_Idleness__remaining_idl'
p35
F11.576
sbasS'_Destination__available'
p36
I00
sS'_Destination__remaining_idl'
p37
g10
sS'estim_idl'
p38
I0
sbag1
(g2
g3
Ntp39
Rp40
(dp41
g7
g10
sg12
S'WayPoint10'
p42
sg14
g1
(g15
g3
Ntp43
Rp44
(lp45
g1
(g19
g3
Ntp46
Rp47
(lp48
F-2.75
aF4.0500000000000025
aF0.0
abag1
(g23
g3
Ntp49
Rp50
(lp51
I0
aI0
aI0
aI1
ababsg27
(lp52
g1
(g29
g3
Ntp53
Rp54
(dp55
g33
F60.376
sg34
I0
sg35
F60.376
sbasg36
I01
sg37
g10
sg38
I0
sbag1
(g2
g3
Ntp56
Rp57
(dp58
g7
g10
sg12
S'WayPoint2'
p59
sg14
g1
(g15
g3
Ntp60
Rp61
(lp62
g1
(g19
g3
Ntp63
Rp64
(lp65
F-5.25
aF-0.04999999999999716
aF0.0
abag1
(g23
g3
Ntp66
Rp67
(lp68
I0
aI0
aI0
aI1
ababsg27
(lp69
g1
(g29
g3
Ntp70
Rp71
(dp72
g33
F60.376
sg34
I0
sg35
F60.376
sbasg36
I01
sg37
g10
sg38
I0
sbag1
(g2
g3
Ntp73
Rp74
(dp75
g7
g10
sg12
S'WayPoint3'
p76
sg14
g1
(g15
g3
Ntp77
Rp78
(lp79
g1
(g19
g3
Ntp80
Rp81
(lp82
F-2.6499999999999995
aF-3.8999999999999986
aF0.0
abag1
(g23
g3
Ntp83
Rp84
(lp85
I0
aI0
aI0
aI1
ababsg27
(lp86
g1
(g29
g3
Ntp87
Rp88
(dp89
g33
F60.376
sg34
F44.94
sg35
F57.776
sbasg36
I00
sg37
g10
sg38
I0
sbag1
(g2
g3
Ntp90
Rp91
(dp92
g7
g10
sg12
S'WayPoint4'
p93
sg14
g1
(g15
g3
Ntp94
Rp95
(lp96
g1
(g19
g3
Ntp97
Rp98
(lp99
F3.700000000000001
aF-1.3499999999999979
aF0.0
abag1
(g23
g3
Ntp100
Rp101
(lp102
I0
aI0
aI0
aI1
ababsg27
(lp103
g1
(g29
g3
Ntp104
Rp105
(dp106
g33
F60.376
sg34
I0
sg35
F60.376
sbasg36
I01
sg37
g10
sg38
I0
sbag1
(g2
g3
Ntp107
Rp108
(dp109
g7
g10
sg12
S'WayPoint5'
p110
sg14
g1
(g15
g3
Ntp111
Rp112
(lp113
g1
(g19
g3
Ntp114
Rp115
(lp116
F7.650000000000002
aF-1.4999999999999982
aF0.0
abag1
(g23
g3
Ntp117
Rp118
(lp119
I0
aI0
aI0
aI1
ababsg27
(lp120
g1
(g29
g3
Ntp121
Rp122
(dp123
g33
F60.376
sg34
I0
sg35
F60.376
sbasg36
I01
sg37
g10
sg38
I0
sbag1
(g2
g3
Ntp124
Rp125
(dp126
g7
g10
sg12
S'WayPoint6'
p127
sg14
g1
(g15
g3
Ntp128
Rp129
(lp130
g1
(g19
g3
Ntp131
Rp132
(lp133
F4.350000000000001
aF1.6000000000000023
aF0.0
abag1
(g23
g3
Ntp134
Rp135
(lp136
I0
aI0
aI0
aI1
ababsg27
(lp137
g1
(g29
g3
Ntp138
Rp139
(dp140
g33
F60.376
sg34
I0
sg35
F60.376
sbasg36
I01
sg37
g10
sg38
I0
sbag1
(g2
g3
Ntp141
Rp142
(dp143
g7
g10
sg12
S'WayPoint7'
p144
sg14
g1
(g15
g3
Ntp145
Rp146
(lp147
g1
(g19
g3
Ntp148
Rp149
(lp150
F1.700000000000001
aF1.6500000000000021
aF0.0
abag1
(g23
g3
Ntp151
Rp152
(lp153
I0
aI0
aI0
aI1
ababsg27
(lp154
g1
(g29
g3
Ntp155
Rp156
(dp157
g33
F60.376
sg34
I0
sg35
F60.376
sbasg36
I01
sg37
g10
sg38
I0
sbag1
(g2
g3
Ntp158
Rp159
(dp160
g7
g10
sg12
S'WayPoint8'
p161
sg14
g1
(g15
g3
Ntp162
Rp163
(lp164
g1
(g19
g3
Ntp165
Rp166
(lp167
F0.9000000000000004
aF4.350000000000002
aF0.0
abag1
(g23
g3
Ntp168
Rp169
(lp170
I0
aI0
aI0
aI1
ababsg27
(lp171
g1
(g29
g3
Ntp172
Rp173
(dp174
g33
F60.376
sg34
F28.8
sg35
F57.776
sbasg36
I00
sg37
g10
sg38
I0
sbag1
(g2
g3
Ntp175
Rp176
(dp177
g7
g10
sg12
S'WayPoint9'
p178
sg14
g1
(g15
g3
Ntp179
Rp180
(lp181
g1
(g19
g3
Ntp182
Rp183
(lp184
F5.0
aF4.600000000000002
aF0.0
abag1
(g23
g3
Ntp185
Rp186
(lp187
I0
aI0
aI0
aI1
ababsg27
(lp188
g1
(g29
g3
Ntp189
Rp190
(dp191
g33
F47.8
sg34
F35.02
sg35
F45.0
sbag1
(g29
g3
Ntp192
Rp193
(dp194
g33
F12.576
sg34
I0
sg35
F12.576
sbasg36
I01
sg37
g10
sg38
I0
sba.