(lp0
ccopy_reg
_reconstructor
p1
(cdestination
Destination
p2
c__builtin__
object
p3
Ntp4
Rp5
(dp6
S'_Destination__latest_usage'
p7
g1
(crospy.rostime
Time
p8
g3
Ntp9
Rp10
(lp11
I0
aI0
absS'name'
p12
S'WayPoint1'
p13
sS'pose'
p14
g1
(cgeometry_msgs.msg._Pose
Pose
p15
g3
Ntp16
Rp17
(lp18
g1
(cgeometry_msgs.msg._Point
Point
p19
g3
Ntp20
Rp21
(lp22
F-2.75
aF1.0500000000000025
aF0.0
abag1
(cgeometry_msgs.msg._Quaternion
Quaternion
p23
g3
Ntp24
Rp25
(lp26
I0
aI0
aI0
aI1
ababsS'_Destination__stats'
p27
(lp28
sS'_Destination__available'
p29
I00
sS'_Destination__remaining_idl'
p30
g1
(g8
g3
Ntp31
Rp32
(lp33
I30
aI600000000
absS'estim_idl'
p34
F53.96
sbag1
(g2
g3
Ntp35
Rp36
(dp37
g7
g1
(g8
g3
Ntp38
Rp39
(lp40
I34
aI600000000
absg12
S'WayPoint2'
p41
sg14
g1
(g15
g3
Ntp42
Rp43
(lp44
g1
(g19
g3
Ntp45
Rp46
(lp47
F5.15
aF0.9000000000000021
aF0.0
abag1
(g23
g3
Ntp48
Rp49
(lp50
I0
aI0
aI0
aI1
ababsg27
(lp51
g1
(cdestination
Idleness
p52
g3
Ntp53
Rp54
(dp55
S'_Idleness__true_idl'
p56
F34.6
sS'_Idleness__estim_idl'
p57
F31.53
sS'_Idleness__remaining_idl'
p58
F32.0
sbasg29
I01
sg30
g39
sg34
I0
sbag1
(g2
g3
Ntp59
Rp60
(dp61
g7
g1
(g8
g3
Ntp62
Rp63
(lp64
I47
aI600000000
absg12
S'WayPoint3'
p65
sg14
g1
(g15
g3
Ntp66
Rp67
(lp68
g1
(g19
g3
Ntp69
Rp70
(lp71
F4.850000000000001
aF3.900000000000002
aF0.0
abag1
(g23
g3
Ntp72
Rp73
(lp74
I0
aI0
aI0
aI1
ababsg27
(lp75
g1
(g52
g3
Ntp76
Rp77
(dp78
g56
F47.6
sg57
F11.98
sg58
F12.0
sbasg29
I01
sg30
g63
sg34
I0
sbag1
(g2
g3
Ntp79
Rp80
(dp81
g7
g10
sg12
S'WayPoint4'
p82
sg14
g1
(g15
g3
Ntp83
Rp84
(lp85
g1
(g19
g3
Ntp86
Rp87
(lp88
F1.200000000000001
aF3.1000000000000023
aF0.0
abag1
(g23
g3
Ntp89
Rp90
(lp91
I0
aI0
aI0
aI1
ababsg27
(lp92
sg29
I00
sg30
g1
(g8
g3
Ntp93
Rp94
(lp95
I2
aI600000000
absg34
F64.22
sbag1
(g2
g3
Ntp96
Rp97
(dp98
g7
g1
(g8
g3
Ntp99
Rp100
(lp101
I29
aI600000000
absg12
S'WayPoint5'
p102
sg14
g1
(g15
g3
Ntp103
Rp104
(lp105
g1
(g19
g3
Ntp106
Rp107
(lp108
F5.800000000000001
aF-4.349999999999998
aF0.0
abag1
(g23
g3
Ntp109
Rp110
(lp111
I0
aI0
aI0
aI1
ababsg27
(lp112
g1
(g52
g3
Ntp113
Rp114
(dp115
g56
F29.6
sg57
F23.26
sg58
F27.0
sbasg29
I00
sg30
g1
(g8
g3
Ntp116
Rp117
(lp118
I48
aI600000000
absg34
F34.24
sbag1
(g2
g3
Ntp119
Rp120
(dp121
g7
g10
sg12
S'WayPoint6'
p122
sg14
g1
(g15
g3
Ntp123
Rp124
(lp125
g1
(g19
g3
Ntp126
Rp127
(lp128
F-6.15
aF3.150000000000002
aF0.0
abag1
(g23
g3
Ntp129
Rp130
(lp131
I0
aI0
aI0
aI1
ababsg27
(lp132
sg29
I01
sg30
g10
sg34
I0
sbag1
(g2
g3
Ntp133
Rp134
(dp135
g7
g10
sg12
S'WayPoint7'
p136
sg14
g1
(g15
g3
Ntp137
Rp138
(lp139
g1
(g19
g3
Ntp140
Rp141
(lp142
F-6.3
aF-1.8999999999999986
aF0.0
abag1
(g23
g3
Ntp143
Rp144
(lp145
I0
aI0
aI0
aI1
ababsg27
(lp146
sg29
I01
sg30
g10
sg34
I0
sba.