(lp0
ccopy_reg
_reconstructor
p1
(cdestination
Destination
p2
c__builtin__
object
p3
Ntp4
Rp5
(dp6
S'_Destination__latest_usage'
p7
g1
(crospy.rostime
Time
p8
g3
Ntp9
Rp10
(lp11
I0
aI0
absS'name'
p12
S'WayPoint1'
p13
sS'pose'
p14
g1
(cgeometry_msgs.msg._Pose
Pose
p15
g3
Ntp16
Rp17
(lp18
g1
(cgeometry_msgs.msg._Point
Point
p19
g3
Ntp20
Rp21
(lp22
F-6.75
aF-2.6999999999999975
aF0.0
abag1
(cgeometry_msgs.msg._Quaternion
Quaternion
p23
g3
Ntp24
Rp25
(lp26
I0
aI0
aI0
aI1
ababsS'path_len'
p27
F0.0
sS'_Destination__stats'
p28
(lp29
sS'_Destination__available'
p30
I01
sS'_Destination__remaining_idl'
p31
g10
sS'estim_idl'
p32
I0
sbag1
(g2
g3
Ntp33
Rp34
(dp35
g7
g10
sg12
S'WayPoint10'
p36
sg14
g1
(g15
g3
Ntp37
Rp38
(lp39
g1
(g19
g3
Ntp40
Rp41
(lp42
F1.8500000000000014
aF2.8500000000000023
aF0.0
abag1
(g23
g3
Ntp43
Rp44
(lp45
I0
aI0
aI0
aI1
ababsg27
F0.0
sg28
(lp46
sg30
I01
sg31
g10
sg32
I0
sbag1
(g2
g3
Ntp47
Rp48
(dp49
g7
g10
sg12
S'WayPoint11'
p50
sg14
g1
(g15
g3
Ntp51
Rp52
(lp53
g1
(g19
g3
Ntp54
Rp55
(lp56
F6.600000000000001
aF3.450000000000003
aF0.0
abag1
(g23
g3
Ntp57
Rp58
(lp59
I0
aI0
aI0
aI1
ababsg27
F0.0
sg28
(lp60
sg30
I01
sg31
g10
sg32
I0
sbag1
(g2
g3
Ntp61
Rp62
(dp63
g7
g1
(g8
g3
Ntp64
Rp65
(lp66
I51
aI1000000
absg12
S'WayPoint2'
p67
sg14
g1
(g15
g3
Ntp68
Rp69
(lp70
g1
(g19
g3
Ntp71
Rp72
(lp73
F-3.1999999999999993
aF-3.349999999999998
aF0.0
abag1
(g23
g3
Ntp74
Rp75
(lp76
I0
aI0
aI0
aI1
ababsg27
F0.0
sg28
(lp77
g1
(cdestination
Observation
p78
g3
Ntp79
Rp80
(dp81
S'idleness'
p82
g1
(cdestination
Idleness
p83
g3
Ntp84
Rp85
(dp86
S'_Idleness__true_idl'
p87
F51.001
sS'_Idleness__estim_idl'
p88
F40.15
sS'_Idleness__remaining_idl'
p89
F47.0
sbsg27
F10.439
sbasg30
I01
sg31
g65
sg32
I0
sbag1
(g2
g3
Ntp90
Rp91
(dp92
g7
g10
sg12
S'WayPoint3'
p93
sg14
g1
(g15
g3
Ntp94
Rp95
(lp96
g1
(g19
g3
Ntp97
Rp98
(lp99
F0.0
aF-3.349999999999998
aF0.0
abag1
(g23
g3
Ntp100
Rp101
(lp102
I0
aI0
aI0
aI1
ababsg27
F9.194
sg28
(lp103
sg30
I00
sg31
g1
(g8
g3
Ntp104
Rp105
(lp106
I2
aI600000000
absg32
F35.36
sbag1
(g2
g3
Ntp107
Rp108
(dp109
g7
g10
sg12
S'WayPoint4'
p110
sg14
g1
(g15
g3
Ntp111
Rp112
(lp113
g1
(g19
g3
Ntp114
Rp115
(lp116
F2.3500000000000014
aF-3.2499999999999982
aF0.0
abag1
(g23
g3
Ntp117
Rp118
(lp119
I0
aI0
aI0
aI1
ababsg27
F5.507
sg28
(lp120
sg30
I00
sg31
g1
(g8
g3
Ntp121
Rp122
(lp123
I18
aI201000000
absg32
F21.18
sbag1
(g2
g3
Ntp124
Rp125
(dp126
g7
g10
sg12
S'WayPoint5'
p127
sg14
g1
(g15
g3
Ntp128
Rp129
(lp130
g1
(g19
g3
Ntp131
Rp132
(lp133
F5.4
aF-3.4499999999999975
aF0.0
abag1
(g23
g3
Ntp134
Rp135
(lp136
I0
aI0
aI0
aI1
ababsg27
F14.182
sg28
(lp137
sg30
I00
sg31
g1
(g8
g3
Ntp138
Rp139
(lp140
I52
aI2000000
absg32
F54.55
sbag1
(g2
g3
Ntp141
Rp142
(dp143
g7
g1
(g8
g3
Ntp144
Rp145
(lp146
I17
aI200000000
absg12
S'WayPoint6'
p147
sg14
g1
(g15
g3
Ntp148
Rp149
(lp150
g1
(g19
g3
Ntp151
Rp152
(lp153
F4.850000000000001
aF-0.7499999999999982
aF0.0
abag1
(g23
g3
Ntp154
Rp155
(lp156
I0
aI0
aI0
aI1
ababsg27
F0.0
sg28
(lp157
g1
(g78
g3
Ntp158
Rp159
(dp160
g82
g1
(g83
g3
Ntp161
Rp162
(dp163
g87
F17.2
sg88
F16.42
sg89
F13.0
sbsg27
F4.27
sbasg30
I01
sg31
g145
sg32
I0
sbag1
(g2
g3
Ntp164
Rp165
(dp166
g7
g10
sg12
S'WayPoint7'
p167
sg14
g1
(g15
g3
Ntp168
Rp169
(lp170
g1
(g19
g3
Ntp171
Rp172
(lp173
F1.0500000000000007
aF-0.6999999999999975
aF0.0
abag1
(g23
g3
Ntp174
Rp175
(lp176
I0
aI0
aI0
aI1
ababsg27
F7.737
sg28
(lp177
sg30
I00
sg31
g1
(g8
g3
Ntp178
Rp179
(lp180
I4
aI1000000
absg32
F29.76
sbag1
(g2
g3
Ntp181
Rp182
(dp183
g7
g10
sg12
S'WayPoint8'
p184
sg14
g1
(g15
g3
Ntp185
Rp186
(lp187
g1
(g19
g3
Ntp188
Rp189
(lp190
F-3.05
aF-0.5999999999999979
aF0.0
abag1
(g23
g3
Ntp191
Rp192
(lp193
I0
aI0
aI0
aI1
ababsg27
F0.0
sg28
(lp194
sg30
I01
sg31
g10
sg32
I0
sbag1
(g2
g3
Ntp195
Rp196
(dp197
g7
g10
sg12
S'WayPoint9'
p198
sg14
g1
(g15
g3
Ntp199
Rp200
(lp201
g1
(g19
g3
Ntp202
Rp203
(lp204
F-1.5
aF2.700000000000003
aF0.0
abag1
(g23
g3
Ntp205
Rp206
(lp207
I0
aI0
aI0
aI1
ababsg27
F0.0
sg28
(lp208
sg30
I01
sg31
g10
sg32
I0
sba.