(lp0
ccopy_reg
_reconstructor
p1
(cdestination
Destination
p2
c__builtin__
object
p3
Ntp4
Rp5
(dp6
S'_Destination__latest_usage'
p7
g1
(crospy.rostime
Time
p8
g3
Ntp9
Rp10
(lp11
I0
aI0
absS'name'
p12
S'WayPoint1'
p13
sS'pose'
p14
g1
(cgeometry_msgs.msg._Pose
Pose
p15
g3
Ntp16
Rp17
(lp18
g1
(cgeometry_msgs.msg._Point
Point
p19
g3
Ntp20
Rp21
(lp22
F-6.75
aF-2.6999999999999975
aF0.0
abag1
(cgeometry_msgs.msg._Quaternion
Quaternion
p23
g3
Ntp24
Rp25
(lp26
I0
aI0
aI0
aI1
ababsS'path_len'
p27
F0.0
sS'_Destination__stats'
p28
(lp29
sS'_Destination__available'
p30
I01
sS'_Destination__remaining_idl'
p31
g10
sS'estim_idl'
p32
I0
sbag1
(g2
g3
Ntp33
Rp34
(dp35
g7
g10
sg12
S'WayPoint10'
p36
sg14
g1
(g15
g3
Ntp37
Rp38
(lp39
g1
(g19
g3
Ntp40
Rp41
(lp42
F1.8500000000000014
aF2.8500000000000023
aF0.0
abag1
(g23
g3
Ntp43
Rp44
(lp45
I0
aI0
aI0
aI1
ababsg27
F0.0
sg28
(lp46
sg30
I01
sg31
g10
sg32
I0
sbag1
(g2
g3
Ntp47
Rp48
(dp49
g7
g10
sg12
S'WayPoint11'
p50
sg14
g1
(g15
g3
Ntp51
Rp52
(lp53
g1
(g19
g3
Ntp54
Rp55
(lp56
F6.600000000000001
aF3.450000000000003
aF0.0
abag1
(g23
g3
Ntp57
Rp58
(lp59
I0
aI0
aI0
aI1
ababsg27
F0.0
sg28
(lp60
sg30
I01
sg31
g10
sg32
I0
sbag1
(g2
g3
Ntp61
Rp62
(dp63
g7
g10
sg12
S'WayPoint2'
p64
sg14
g1
(g15
g3
Ntp65
Rp66
(lp67
g1
(g19
g3
Ntp68
Rp69
(lp70
F-3.1999999999999993
aF-3.349999999999998
aF0.0
abag1
(g23
g3
Ntp71
Rp72
(lp73
I0
aI0
aI0
aI1
ababsg27
F0.0
sg28
(lp74
sg30
I01
sg31
g10
sg32
I0
sbag1
(g2
g3
Ntp75
Rp76
(dp77
g7
g1
(g8
g3
Ntp78
Rp79
(lp80
I32
aI0
absg12
S'WayPoint3'
p81
sg14
g1
(g15
g3
Ntp82
Rp83
(lp84
g1
(g19
g3
Ntp85
Rp86
(lp87
F0.0
aF-3.349999999999998
aF0.0
abag1
(g23
g3
Ntp88
Rp89
(lp90
I0
aI0
aI0
aI1
ababsg27
F0.0
sg28
(lp91
g1
(cdestination
Observation
p92
g3
Ntp93
Rp94
(dp95
S'idleness'
p96
g1
(cdestination
Idleness
p97
g3
Ntp98
Rp99
(dp100
S'_Idleness__true_idl'
p101
F32.0
sS'_Idleness__estim_idl'
p102
F25.97
sS'_Idleness__remaining_idl'
p103
F29.0
sbsg27
F6.752
sbasg30
I01
sg31
g79
sg32
I0
sbag1
(g2
g3
Ntp104
Rp105
(dp106
g7
g10
sg12
S'WayPoint4'
p107
sg14
g1
(g15
g3
Ntp108
Rp109
(lp110
g1
(g19
g3
Ntp111
Rp112
(lp113
F2.3500000000000014
aF-3.2499999999999982
aF0.0
abag1
(g23
g3
Ntp114
Rp115
(lp116
I0
aI0
aI0
aI1
ababsg27
F0.0
sg28
(lp117
sg30
I01
sg31
g10
sg32
I0
sbag1
(g2
g3
Ntp118
Rp119
(dp120
g7
g10
sg12
S'WayPoint5'
p121
sg14
g1
(g15
g3
Ntp122
Rp123
(lp124
g1
(g19
g3
Ntp125
Rp126
(lp127
F5.4
aF-3.4499999999999975
aF0.0
abag1
(g23
g3
Ntp128
Rp129
(lp130
I0
aI0
aI0
aI1
ababsg27
F8.783
sg28
(lp131
sg30
I00
sg31
g1
(g8
g3
Ntp132
Rp133
(lp134
I2
aI400000000
absg32
F33.78
sbag1
(g2
g3
Ntp135
Rp136
(dp137
g7
g10
sg12
S'WayPoint6'
p138
sg14
g1
(g15
g3
Ntp139
Rp140
(lp141
g1
(g19
g3
Ntp142
Rp143
(lp144
F4.850000000000001
aF-0.7499999999999982
aF0.0
abag1
(g23
g3
Ntp145
Rp146
(lp147
I0
aI0
aI0
aI1
ababsg27
F6.854
sg28
(lp148
sg30
I00
sg31
g1
(g8
g3
Ntp149
Rp150
(lp151
I33
aI1000000
absg32
F26.36
sbag1
(g2
g3
Ntp152
Rp153
(dp154
g7
g10
sg12
S'WayPoint7'
p155
sg14
g1
(g15
g3
Ntp156
Rp157
(lp158
g1
(g19
g3
Ntp159
Rp160
(lp161
F1.0500000000000007
aF-0.6999999999999975
aF0.0
abag1
(g23
g3
Ntp162
Rp163
(lp164
I0
aI0
aI0
aI1
ababsg27
F0.0
sg28
(lp165
sg30
I01
sg31
g10
sg32
I0
sbag1
(g2
g3
Ntp166
Rp167
(dp168
g7
g10
sg12
S'WayPoint8'
p169
sg14
g1
(g15
g3
Ntp170
Rp171
(lp172
g1
(g19
g3
Ntp173
Rp174
(lp175
F-3.05
aF-0.5999999999999979
aF0.0
abag1
(g23
g3
Ntp176
Rp177
(lp178
I0
aI0
aI0
aI1
ababsg27
F3.797
sg28
(lp179
sg30
I00
sg31
g1
(g8
g3
Ntp180
Rp181
(lp182
I3
aI0
absg32
F14.6
sbag1
(g2
g3
Ntp183
Rp184
(dp185
g7
g10
sg12
S'WayPoint9'
p186
sg14
g1
(g15
g3
Ntp187
Rp188
(lp189
g1
(g19
g3
Ntp190
Rp191
(lp192
F-1.5
aF2.700000000000003
aF0.0
abag1
(g23
g3
Ntp193
Rp194
(lp195
I0
aI0
aI0
aI1
ababsg27
F13.494
sg28
(lp196
sg30
I00
sg31
g1
(g8
g3
Ntp197
Rp198
(lp199
I3
aI200000000
absg32
F51.9
sba.