(lp0
ccopy_reg
_reconstructor
p1
(cdestination
Destination
p2
c__builtin__
object
p3
Ntp4
Rp5
(dp6
S'_Destination__latest_usage'
p7
g1
(crospy.rostime
Time
p8
g3
Ntp9
Rp10
(lp11
I0
aI0
absS'name'
p12
S'WayPoint1'
p13
sS'pose'
p14
g1
(cgeometry_msgs.msg._Pose
Pose
p15
g3
Ntp16
Rp17
(lp18
g1
(cgeometry_msgs.msg._Point
Point
p19
g3
Ntp20
Rp21
(lp22
F-6.75
aF-2.6999999999999975
aF0.0
abag1
(cgeometry_msgs.msg._Quaternion
Quaternion
p23
g3
Ntp24
Rp25
(lp26
I0
aI0
aI0
aI1
ababsS'path_len'
p27
F8.558
sS'_Destination__stats'
p28
(lp29
sS'_Destination__available'
p30
I00
sS'_Destination__remaining_idl'
p31
g1
(g8
g3
Ntp32
Rp33
(lp34
I2
aI601000000
absS'estim_idl'
p35
F32.92
sbag1
(g2
g3
Ntp36
Rp37
(dp38
g7
g10
sg12
S'WayPoint10'
p39
sg14
g1
(g15
g3
Ntp40
Rp41
(lp42
g1
(g19
g3
Ntp43
Rp44
(lp45
F1.8500000000000014
aF2.8500000000000023
aF0.0
abag1
(g23
g3
Ntp46
Rp47
(lp48
I0
aI0
aI0
aI1
ababsg27
F4.025
sg28
(lp49
sg30
I00
sg31
g1
(g8
g3
Ntp50
Rp51
(lp52
I41
aI800000000
absg35
F15.48
sbag1
(g2
g3
Ntp53
Rp54
(dp55
g7
g10
sg12
S'WayPoint11'
p56
sg14
g1
(g15
g3
Ntp57
Rp58
(lp59
g1
(g19
g3
Ntp60
Rp61
(lp62
F6.600000000000001
aF3.450000000000003
aF0.0
abag1
(g23
g3
Ntp63
Rp64
(lp65
I0
aI0
aI0
aI1
ababsg27
F0.0
sg28
(lp66
sg30
I01
sg31
g10
sg35
I0
sbag1
(g2
g3
Ntp67
Rp68
(dp69
g7
g10
sg12
S'WayPoint2'
p70
sg14
g1
(g15
g3
Ntp71
Rp72
(lp73
g1
(g19
g3
Ntp74
Rp75
(lp76
F-3.1999999999999993
aF-3.349999999999998
aF0.0
abag1
(g23
g3
Ntp77
Rp78
(lp79
I0
aI0
aI0
aI1
ababsg27
F0.0
sg28
(lp80
sg30
I01
sg31
g10
sg35
I0
sbag1
(g2
g3
Ntp81
Rp82
(dp83
g7
g10
sg12
S'WayPoint3'
p84
sg14
g1
(g15
g3
Ntp85
Rp86
(lp87
g1
(g19
g3
Ntp88
Rp89
(lp90
F0.0
aF-3.349999999999998
aF0.0
abag1
(g23
g3
Ntp91
Rp92
(lp93
I0
aI0
aI0
aI1
ababsg27
F0.0
sg28
(lp94
sg30
I01
sg31
g10
sg35
I0
sbag1
(g2
g3
Ntp95
Rp96
(dp97
g7
g10
sg12
S'WayPoint4'
p98
sg14
g1
(g15
g3
Ntp99
Rp100
(lp101
g1
(g19
g3
Ntp102
Rp103
(lp104
F2.3500000000000014
aF-3.2499999999999982
aF0.0
abag1
(g23
g3
Ntp105
Rp106
(lp107
I0
aI0
aI0
aI1
ababsg27
F0.0
sg28
(lp108
sg30
I01
sg31
g10
sg35
I0
sbag1
(g2
g3
Ntp109
Rp110
(dp111
g7
g10
sg12
S'WayPoint5'
p112
sg14
g1
(g15
g3
Ntp113
Rp114
(lp115
g1
(g19
g3
Ntp116
Rp117
(lp118
F5.4
aF-3.4499999999999975
aF0.0
abag1
(g23
g3
Ntp119
Rp120
(lp121
I0
aI0
aI0
aI1
ababsg27
F0.0
sg28
(lp122
sg30
I01
sg31
g10
sg35
I0
sbag1
(g2
g3
Ntp123
Rp124
(dp125
g7
g10
sg12
S'WayPoint6'
p126
sg14
g1
(g15
g3
Ntp127
Rp128
(lp129
g1
(g19
g3
Ntp130
Rp131
(lp132
F4.850000000000001
aF-0.7499999999999982
aF0.0
abag1
(g23
g3
Ntp133
Rp134
(lp135
I0
aI0
aI0
aI1
ababsg27
F8.171
sg28
(lp136
sg30
I00
sg31
g1
(g8
g3
Ntp137
Rp138
(lp139
I39
aI0
absg35
F31.43
sbag1
(g2
g3
Ntp140
Rp141
(dp142
g7
g1
(g8
g3
Ntp143
Rp144
(lp145
I40
aI800000000
absg12
S'WayPoint7'
p146
sg14
g1
(g15
g3
Ntp147
Rp148
(lp149
g1
(g19
g3
Ntp150
Rp151
(lp152
F1.0500000000000007
aF-0.6999999999999975
aF0.0
abag1
(g23
g3
Ntp153
Rp154
(lp155
I0
aI0
aI0
aI1
ababsg27
F0.0
sg28
(lp156
g1
(cdestination
Observation
p157
g3
Ntp158
Rp159
(dp160
S'idleness'
p161
g1
(cdestination
Idleness
p162
g3
Ntp163
Rp164
(dp165
S'_Idleness__true_idl'
p166
F40.8
sS'_Idleness__estim_idl'
p167
F29.76
sS'_Idleness__remaining_idl'
p168
F38.0
sbsg27
F7.737
sbasg30
I01
sg31
g144
sg35
I0
sbag1
(g2
g3
Ntp169
Rp170
(dp171
g7
g1
(g8
g3
Ntp172
Rp173
(lp174
I38
aI600000000
absg12
S'WayPoint8'
p175
sg14
g1
(g15
g3
Ntp176
Rp177
(lp178
g1
(g19
g3
Ntp179
Rp180
(lp181
F-3.05
aF-0.5999999999999979
aF0.0
abag1
(g23
g3
Ntp182
Rp183
(lp184
I0
aI0
aI0
aI1
ababsg27
F0.0
sg28
(lp185
g1
(g157
g3
Ntp186
Rp187
(dp188
g161
g1
(g162
g3
Ntp189
Rp190
(dp191
g166
F38.6
sg167
F27.75
sg168
F35.999
sbsg27
F7.214
sbasg30
I01
sg31
g173
sg35
I0
sbag1
(g2
g3
Ntp192
Rp193
(dp194
g7
g10
sg12
S'WayPoint9'
p195
sg14
g1
(g15
g3
Ntp196
Rp197
(lp198
g1
(g19
g3
Ntp199
Rp200
(lp201
F-1.5
aF2.700000000000003
aF0.0
abag1
(g23
g3
Ntp202
Rp203
(lp204
I0
aI0
aI0
aI1
ababsg27
F13.499
sg28
(lp205
sg30
I00
sg31
g33
sg35
F51.92
sba.