(lp0
ccopy_reg
_reconstructor
p1
(cdestination
Destination
p2
c__builtin__
object
p3
Ntp4
Rp5
(dp6
S'_Destination__latest_usage'
p7
g1
(crospy.rostime
Time
p8
g3
Ntp9
Rp10
(lp11
I0
aI0
absS'name'
p12
S'WayPoint1'
p13
sS'pose'
p14
g1
(cgeometry_msgs.msg._Pose
Pose
p15
g3
Ntp16
Rp17
(lp18
g1
(cgeometry_msgs.msg._Point
Point
p19
g3
Ntp20
Rp21
(lp22
F-6.75
aF-2.6999999999999975
aF0.0
abag1
(cgeometry_msgs.msg._Quaternion
Quaternion
p23
g3
Ntp24
Rp25
(lp26
I0
aI0
aI0
aI1
ababsS'path_len'
p27
F16.709
sS'_Destination__stats'
p28
(lp29
sS'_Destination__available'
p30
I00
sS'_Destination__remaining_idl'
p31
g1
(g8
g3
Ntp32
Rp33
(lp34
I2
aI600000000
absS'estim_idl'
p35
F64.27
sbag1
(g2
g3
Ntp36
Rp37
(dp38
g7
g10
sg12
S'WayPoint10'
p39
sg14
g1
(g15
g3
Ntp40
Rp41
(lp42
g1
(g19
g3
Ntp43
Rp44
(lp45
F1.8500000000000014
aF2.8500000000000023
aF0.0
abag1
(g23
g3
Ntp46
Rp47
(lp48
I0
aI0
aI0
aI1
ababsg27
F7.259
sg28
(lp49
sg30
I00
sg31
g1
(g8
g3
Ntp50
Rp51
(lp52
I49
aI200000000
absg35
F27.92
sbag1
(g2
g3
Ntp53
Rp54
(dp55
g7
g10
sg12
S'WayPoint11'
p56
sg14
g1
(g15
g3
Ntp57
Rp58
(lp59
g1
(g19
g3
Ntp60
Rp61
(lp62
F6.600000000000001
aF3.450000000000003
aF0.0
abag1
(g23
g3
Ntp63
Rp64
(lp65
I0
aI0
aI0
aI1
ababsg27
F0.0
sg28
(lp66
sg30
I01
sg31
g10
sg35
I0
sbag1
(g2
g3
Ntp67
Rp68
(dp69
g7
g10
sg12
S'WayPoint2'
p70
sg14
g1
(g15
g3
Ntp71
Rp72
(lp73
g1
(g19
g3
Ntp74
Rp75
(lp76
F-3.1999999999999993
aF-3.349999999999998
aF0.0
abag1
(g23
g3
Ntp77
Rp78
(lp79
I0
aI0
aI0
aI1
ababsg27
F10.439
sg28
(lp80
sg30
I00
sg31
g1
(g8
g3
Ntp81
Rp82
(lp83
I2
aI800000000
absg35
F40.15
sbag1
(g2
g3
Ntp84
Rp85
(dp86
g7
g10
sg12
S'WayPoint3'
p87
sg14
g1
(g15
g3
Ntp88
Rp89
(lp90
g1
(g19
g3
Ntp91
Rp92
(lp93
F0.0
aF-3.349999999999998
aF0.0
abag1
(g23
g3
Ntp94
Rp95
(lp96
I0
aI0
aI0
aI1
ababsg27
F0.0
sg28
(lp97
sg30
I01
sg31
g10
sg35
I0
sbag1
(g2
g3
Ntp98
Rp99
(dp100
g7
g10
sg12
S'WayPoint4'
p101
sg14
g1
(g15
g3
Ntp102
Rp103
(lp104
g1
(g19
g3
Ntp105
Rp106
(lp107
F2.3500000000000014
aF-3.2499999999999982
aF0.0
abag1
(g23
g3
Ntp108
Rp109
(lp110
I0
aI0
aI0
aI1
ababsg27
F10.684
sg28
(lp111
sg30
I00
sg31
g33
sg35
F41.09
sbag1
(g2
g3
Ntp112
Rp113
(dp114
g7
g10
sg12
S'WayPoint5'
p115
sg14
g1
(g15
g3
Ntp116
Rp117
(lp118
g1
(g19
g3
Ntp119
Rp120
(lp121
F5.4
aF-3.4499999999999975
aF0.0
abag1
(g23
g3
Ntp122
Rp123
(lp124
I0
aI0
aI0
aI1
ababsg27
F0.0
sg28
(lp125
sg30
I01
sg31
g10
sg35
I0
sbag1
(g2
g3
Ntp126
Rp127
(dp128
g7
g10
sg12
S'WayPoint6'
p129
sg14
g1
(g15
g3
Ntp130
Rp131
(lp132
g1
(g19
g3
Ntp133
Rp134
(lp135
F4.850000000000001
aF-0.7499999999999982
aF0.0
abag1
(g23
g3
Ntp136
Rp137
(lp138
I0
aI0
aI0
aI1
ababsg27
F0.0
sg28
(lp139
sg30
I01
sg31
g10
sg35
I0
sbag1
(g2
g3
Ntp140
Rp141
(dp142
g7
g10
sg12
S'WayPoint7'
p143
sg14
g1
(g15
g3
Ntp144
Rp145
(lp146
g1
(g19
g3
Ntp147
Rp148
(lp149
F1.0500000000000007
aF-0.6999999999999975
aF0.0
abag1
(g23
g3
Ntp150
Rp151
(lp152
I0
aI0
aI0
aI1
ababsg27
F0.0
sg28
(lp153
sg30
I01
sg31
g10
sg35
I0
sbag1
(g2
g3
Ntp154
Rp155
(dp156
g7
g1
(g8
g3
Ntp157
Rp158
(lp159
I48
aI201000000
absg12
S'WayPoint8'
p160
sg14
g1
(g15
g3
Ntp161
Rp162
(lp163
g1
(g19
g3
Ntp164
Rp165
(lp166
F-3.05
aF-0.5999999999999979
aF0.0
abag1
(g23
g3
Ntp167
Rp168
(lp169
I0
aI0
aI0
aI1
ababsg27
F0.0
sg28
(lp170
g1
(cdestination
Observation
p171
g3
Ntp172
Rp173
(dp174
S'idleness'
p175
g1
(cdestination
Idleness
p176
g3
Ntp177
Rp178
(dp179
S'_Idleness__true_idl'
p180
F48.201
sS'_Idleness__estim_idl'
p181
F41.78
sS'_Idleness__remaining_idl'
p182
F45.001
sbsg27
F10.863
sbasg30
I01
sg31
g158
sg35
I0
sbag1
(g2
g3
Ntp183
Rp184
(dp185
g7
g10
sg12
S'WayPoint9'
p186
sg14
g1
(g15
g3
Ntp187
Rp188
(lp189
g1
(g19
g3
Ntp190
Rp191
(lp192
F-1.5
aF2.700000000000003
aF0.0
abag1
(g23
g3
Ntp193
Rp194
(lp195
I0
aI0
aI0
aI1
ababsg27
F0.0
sg28
(lp196
sg30
I01
sg31
g10
sg35
I0
sba.