(lp0
ccopy_reg
_reconstructor
p1
(cdestination
Destination
p2
c__builtin__
object
p3
Ntp4
Rp5
(dp6
S'_Destination__latest_usage'
p7
g1
(crospy.rostime
Time
p8
g3
Ntp9
Rp10
(lp11
I0
aI0
absS'name'
p12
S'WayPoint1'
p13
sS'pose'
p14
g1
(cgeometry_msgs.msg._Pose
Pose
p15
g3
Ntp16
Rp17
(lp18
g1
(cgeometry_msgs.msg._Point
Point
p19
g3
Ntp20
Rp21
(lp22
F-6.75
aF-2.6999999999999975
aF0.0
abag1
(cgeometry_msgs.msg._Quaternion
Quaternion
p23
g3
Ntp24
Rp25
(lp26
I0
aI0
aI0
aI1
ababsS'path_len'
p27
F15.753
sS'_Destination__stats'
p28
(lp29
sS'_Destination__available'
p30
I00
sS'_Destination__remaining_idl'
p31
g1
(g8
g3
Ntp32
Rp33
(lp34
I3
aI0
absS'estim_idl'
p35
F60.59
sbag1
(g2
g3
Ntp36
Rp37
(dp38
g7
g10
sg12
S'WayPoint10'
p39
sg14
g1
(g15
g3
Ntp40
Rp41
(lp42
g1
(g19
g3
Ntp43
Rp44
(lp45
F1.8500000000000014
aF2.8500000000000023
aF0.0
abag1
(g23
g3
Ntp46
Rp47
(lp48
I0
aI0
aI0
aI1
ababsg27
F11.292
sg28
(lp49
sg30
I00
sg31
g1
(g8
g3
Ntp50
Rp51
(lp52
I2
aI600000000
absg35
F43.43
sbag1
(g2
g3
Ntp53
Rp54
(dp55
g7
g10
sg12
S'WayPoint11'
p56
sg14
g1
(g15
g3
Ntp57
Rp58
(lp59
g1
(g19
g3
Ntp60
Rp61
(lp62
F6.600000000000001
aF3.450000000000003
aF0.0
abag1
(g23
g3
Ntp63
Rp64
(lp65
I0
aI0
aI0
aI1
ababsg27
F0.0
sg28
(lp66
sg30
I01
sg31
g10
sg35
I0
sbag1
(g2
g3
Ntp67
Rp68
(dp69
g7
g10
sg12
S'WayPoint2'
p70
sg14
g1
(g15
g3
Ntp71
Rp72
(lp73
g1
(g19
g3
Ntp74
Rp75
(lp76
F-3.1999999999999993
aF-3.349999999999998
aF0.0
abag1
(g23
g3
Ntp77
Rp78
(lp79
I0
aI0
aI0
aI1
ababsg27
F0.0
sg28
(lp80
sg30
I01
sg31
g10
sg35
I0
sbag1
(g2
g3
Ntp81
Rp82
(dp83
g7
g10
sg12
S'WayPoint3'
p84
sg14
g1
(g15
g3
Ntp85
Rp86
(lp87
g1
(g19
g3
Ntp88
Rp89
(lp90
F0.0
aF-3.349999999999998
aF0.0
abag1
(g23
g3
Ntp91
Rp92
(lp93
I0
aI0
aI0
aI1
ababsg27
F0.0
sg28
(lp94
sg30
I01
sg31
g10
sg35
I0
sbag1
(g2
g3
Ntp95
Rp96
(dp97
g7
g10
sg12
S'WayPoint4'
p98
sg14
g1
(g15
g3
Ntp99
Rp100
(lp101
g1
(g19
g3
Ntp102
Rp103
(lp104
F2.3500000000000014
aF-3.2499999999999982
aF0.0
abag1
(g23
g3
Ntp105
Rp106
(lp107
I0
aI0
aI0
aI1
ababsg27
F4.015
sg28
(lp108
sg30
I00
sg31
g1
(g8
g3
Ntp109
Rp110
(lp111
I57
aI2000000
absg35
F15.44
sbag1
(g2
g3
Ntp112
Rp113
(dp114
g7
g10
sg12
S'WayPoint5'
p115
sg14
g1
(g15
g3
Ntp116
Rp117
(lp118
g1
(g19
g3
Ntp119
Rp120
(lp121
F5.4
aF-3.4499999999999975
aF0.0
abag1
(g23
g3
Ntp122
Rp123
(lp124
I0
aI0
aI0
aI1
ababsg27
F13.557
sg28
(lp125
sg30
I00
sg31
g1
(g8
g3
Ntp126
Rp127
(lp128
I2
aI400000000
absg35
F52.14
sbag1
(g2
g3
Ntp129
Rp130
(dp131
g7
g1
(g8
g3
Ntp132
Rp133
(lp134
I35
aI400000000
absg12
S'WayPoint6'
p135
sg14
g1
(g15
g3
Ntp136
Rp137
(lp138
g1
(g19
g3
Ntp139
Rp140
(lp141
F4.850000000000001
aF-0.7499999999999982
aF0.0
abag1
(g23
g3
Ntp142
Rp143
(lp144
I0
aI0
aI0
aI1
ababsg27
F0.0
sg28
(lp145
g1
(cdestination
Observation
p146
g3
Ntp147
Rp148
(dp149
S'idleness'
p150
g1
(cdestination
Idleness
p151
g3
Ntp152
Rp153
(dp154
S'_Idleness__true_idl'
p155
F35.4
sS'_Idleness__estim_idl'
p156
F29.33
sS'_Idleness__remaining_idl'
p157
F33.0
sbsg27
F7.626
sbasg30
I01
sg31
g133
sg35
I0
sbag1
(g2
g3
Ntp158
Rp159
(dp160
g7
g1
(g8
g3
Ntp161
Rp162
(lp163
I56
aI0
absg12
S'WayPoint7'
p164
sg14
g1
(g15
g3
Ntp165
Rp166
(lp167
g1
(g19
g3
Ntp168
Rp169
(lp170
F1.0500000000000007
aF-0.6999999999999975
aF0.0
abag1
(g23
g3
Ntp171
Rp172
(lp173
I0
aI0
aI0
aI1
ababsg27
F0.0
sg28
(lp174
g1
(g146
g3
Ntp175
Rp176
(dp177
g150
g1
(g151
g3
Ntp178
Rp179
(dp180
g155
F56.0
sg156
F16.79
sg157
F20.0
sbsg27
F4.365
sbasg30
I01
sg31
g162
sg35
I0
sbag1
(g2
g3
Ntp181
Rp182
(dp183
g7
g10
sg12
S'WayPoint8'
p184
sg14
g1
(g15
g3
Ntp185
Rp186
(lp187
g1
(g19
g3
Ntp188
Rp189
(lp190
F-3.05
aF-0.5999999999999979
aF0.0
abag1
(g23
g3
Ntp191
Rp192
(lp193
I0
aI0
aI0
aI1
ababsg27
F0.0
sg28
(lp194
sg30
I01
sg31
g10
sg35
I0
sbag1
(g2
g3
Ntp195
Rp196
(dp197
g7
g10
sg12
S'WayPoint9'
p198
sg14
g1
(g15
g3
Ntp199
Rp200
(lp201
g1
(g19
g3
Ntp202
Rp203
(lp204
F-1.5
aF2.700000000000003
aF0.0
abag1
(g23
g3
Ntp205
Rp206
(lp207
I0
aI0
aI0
aI1
ababsg27
F0.0
sg28
(lp208
sg30
I01
sg31
g10
sg35
I0
sba.