(lp0
ccopy_reg
_reconstructor
p1
(cdestination
Destination
p2
c__builtin__
object
p3
Ntp4
Rp5
(dp6
S'_Destination__latest_usage'
p7
g1
(crospy.rostime
Time
p8
g3
Ntp9
Rp10
(lp11
I0
aI0
absS'name'
p12
S'WayPoint1'
p13
sS'pose'
p14
g1
(cgeometry_msgs.msg._Pose
Pose
p15
g3
Ntp16
Rp17
(lp18
g1
(cgeometry_msgs.msg._Point
Point
p19
g3
Ntp20
Rp21
(lp22
F-1.549999999999999
aF-0.8999999999999986
aF0.0
abag1
(cgeometry_msgs.msg._Quaternion
Quaternion
p23
g3
Ntp24
Rp25
(lp26
I0
aI0
aI0
aI1
ababsS'path_len'
p27
F0.0
sS'_Destination__stats'
p28
(lp29
sS'_Destination__available'
p30
I01
sS'_Destination__remaining_idl'
p31
g10
sS'estim_idl'
p32
I0
sbag1
(g2
g3
Ntp33
Rp34
(dp35
g7
g10
sg12
S'WayPoint10'
p36
sg14
g1
(g15
g3
Ntp37
Rp38
(lp39
g1
(g19
g3
Ntp40
Rp41
(lp42
F-2.75
aF4.0500000000000025
aF0.0
abag1
(g23
g3
Ntp43
Rp44
(lp45
I0
aI0
aI0
aI1
ababsg27
F0.0
sg28
(lp46
sg30
I01
sg31
g10
sg32
I0
sbag1
(g2
g3
Ntp47
Rp48
(dp49
g7
g10
sg12
S'WayPoint2'
p50
sg14
g1
(g15
g3
Ntp51
Rp52
(lp53
g1
(g19
g3
Ntp54
Rp55
(lp56
F-5.25
aF-0.04999999999999716
aF0.0
abag1
(g23
g3
Ntp57
Rp58
(lp59
I0
aI0
aI0
aI1
ababsg27
F0.0
sg28
(lp60
sg30
I01
sg31
g10
sg32
I0
sbag1
(g2
g3
Ntp61
Rp62
(dp63
g7
g10
sg12
S'WayPoint3'
p64
sg14
g1
(g15
g3
Ntp65
Rp66
(lp67
g1
(g19
g3
Ntp68
Rp69
(lp70
F-2.6499999999999995
aF-3.8999999999999986
aF0.0
abag1
(g23
g3
Ntp71
Rp72
(lp73
I0
aI0
aI0
aI1
ababsg27
F7.344
sg28
(lp74
sg30
I00
sg31
g1
(g8
g3
Ntp75
Rp76
(lp77
I25
aI603000000
absg32
F28.25
sbag1
(g2
g3
Ntp78
Rp79
(dp80
g7
g1
(g8
g3
Ntp81
Rp82
(lp83
I24
aI600000000
absg12
S'WayPoint4'
p84
sg14
g1
(g15
g3
Ntp85
Rp86
(lp87
g1
(g19
g3
Ntp88
Rp89
(lp90
F3.700000000000001
aF-1.3499999999999979
aF0.0
abag1
(g23
g3
Ntp91
Rp92
(lp93
I0
aI0
aI0
aI1
ababsg27
F0.0
sg28
(lp94
g1
(cdestination
Observation
p95
g3
Ntp96
Rp97
(dp98
S'idleness'
p99
g1
(cdestination
Idleness
p100
g3
Ntp101
Rp102
(dp103
S'_Idleness__true_idl'
p104
F24.6
sS'_Idleness__estim_idl'
p105
F20.67
sS'_Idleness__remaining_idl'
p106
F22.0
sbsg27
F5.374
sbasg30
I01
sg31
g82
sg32
I0
sbag1
(g2
g3
Ntp107
Rp108
(dp109
g7
g10
sg12
S'WayPoint5'
p110
sg14
g1
(g15
g3
Ntp111
Rp112
(lp113
g1
(g19
g3
Ntp114
Rp115
(lp116
F7.650000000000002
aF-1.4999999999999982
aF0.0
abag1
(g23
g3
Ntp117
Rp118
(lp119
I0
aI0
aI0
aI1
ababsg27
F14.896
sg28
(lp120
sg30
I00
sg31
g1
(g8
g3
Ntp121
Rp122
(lp123
I2
aI600000000
absg32
F57.29
sbag1
(g2
g3
Ntp124
Rp125
(dp126
g7
g10
sg12
S'WayPoint6'
p127
sg14
g1
(g15
g3
Ntp128
Rp129
(lp130
g1
(g19
g3
Ntp131
Rp132
(lp133
F4.350000000000001
aF1.6000000000000023
aF0.0
abag1
(g23
g3
Ntp134
Rp135
(lp136
I0
aI0
aI0
aI1
ababsg27
F0.0
sg28
(lp137
sg30
I01
sg31
g10
sg32
I0
sbag1
(g2
g3
Ntp138
Rp139
(dp140
g7
g1
(g8
g3
Ntp141
Rp142
(lp143
I19
aI600000000
absg12
S'WayPoint7'
p144
sg14
g1
(g15
g3
Ntp145
Rp146
(lp147
g1
(g19
g3
Ntp148
Rp149
(lp150
F1.700000000000001
aF1.6500000000000021
aF0.0
abag1
(g23
g3
Ntp151
Rp152
(lp153
I0
aI0
aI0
aI1
ababsg27
F0.0
sg28
(lp154
g1
(g95
g3
Ntp155
Rp156
(dp157
g99
g1
(g100
g3
Ntp158
Rp159
(dp160
g104
F19.6
sg105
F20.54
sg106
F17.0
sbsg27
F5.341
sbasg30
I01
sg31
g142
sg32
I0
sbag1
(g2
g3
Ntp161
Rp162
(dp163
g7
g1
(g8
g3
Ntp164
Rp165
(lp166
I32
aI600000000
absg12
S'WayPoint8'
p167
sg14
g1
(g15
g3
Ntp168
Rp169
(lp170
g1
(g19
g3
Ntp171
Rp172
(lp173
F0.9000000000000004
aF4.350000000000002
aF0.0
abag1
(g23
g3
Ntp174
Rp175
(lp176
I0
aI0
aI0
aI1
ababsg27
F0.0
sg28
(lp177
g1
(g95
g3
Ntp178
Rp179
(dp180
g99
g1
(g100
g3
Ntp181
Rp182
(dp183
g104
F32.6
sg105
F11.4
sg106
F11.997
sbsg27
F2.965
sbasg30
I01
sg31
g165
sg32
I0
sbag1
(g2
g3
Ntp184
Rp185
(dp186
g7
g10
sg12
S'WayPoint9'
p187
sg14
g1
(g15
g3
Ntp188
Rp189
(lp190
g1
(g19
g3
Ntp191
Rp192
(lp193
F5.0
aF4.600000000000002
aF0.0
abag1
(g23
g3
Ntp194
Rp195
(lp196
I0
aI0
aI0
aI1
ababsg27
F7.545
sg28
(lp197
sg30
I00
sg31
g1
(g8
g3
Ntp198
Rp199
(lp200
I33
aI600000000
absg32
F29.02
sba.