(lp0
ccopy_reg
_reconstructor
p1
(cdestination
Destination
p2
c__builtin__
object
p3
Ntp4
Rp5
(dp6
S'_Destination__latest_usage'
p7
g1
(crospy.rostime
Time
p8
g3
Ntp9
Rp10
(lp11
I0
aI0
absS'name'
p12
S'WayPoint1'
p13
sS'pose'
p14
g1
(cgeometry_msgs.msg._Pose
Pose
p15
g3
Ntp16
Rp17
(lp18
g1
(cgeometry_msgs.msg._Point
Point
p19
g3
Ntp20
Rp21
(lp22
F-1.549999999999999
aF-0.8999999999999986
aF0.0
abag1
(cgeometry_msgs.msg._Quaternion
Quaternion
p23
g3
Ntp24
Rp25
(lp26
I0
aI0
aI0
aI1
ababsS'path_len'
p27
F0.0
sS'_Destination__stats'
p28
(lp29
sS'_Destination__available'
p30
I01
sS'_Destination__remaining_idl'
p31
g10
sS'estim_idl'
p32
I0
sbag1
(g2
g3
Ntp33
Rp34
(dp35
g7
g10
sg12
S'WayPoint10'
p36
sg14
g1
(g15
g3
Ntp37
Rp38
(lp39
g1
(g19
g3
Ntp40
Rp41
(lp42
F-2.75
aF4.0500000000000025
aF0.0
abag1
(g23
g3
Ntp43
Rp44
(lp45
I0
aI0
aI0
aI1
ababsg27
F10.079
sg28
(lp46
sg30
I00
sg31
g1
(g8
g3
Ntp47
Rp48
(lp49
I2
aI600000000
absg32
F38.76
sbag1
(g2
g3
Ntp50
Rp51
(dp52
g7
g10
sg12
S'WayPoint2'
p53
sg14
g1
(g15
g3
Ntp54
Rp55
(lp56
g1
(g19
g3
Ntp57
Rp58
(lp59
F-5.25
aF-0.04999999999999716
aF0.0
abag1
(g23
g3
Ntp60
Rp61
(lp62
I0
aI0
aI0
aI1
ababsg27
F0.0
sg28
(lp63
sg30
I01
sg31
g10
sg32
I0
sbag1
(g2
g3
Ntp64
Rp65
(dp66
g7
g10
sg12
S'WayPoint3'
p67
sg14
g1
(g15
g3
Ntp68
Rp69
(lp70
g1
(g19
g3
Ntp71
Rp72
(lp73
F-2.6499999999999995
aF-3.8999999999999986
aF0.0
abag1
(g23
g3
Ntp74
Rp75
(lp76
I0
aI0
aI0
aI1
ababsg27
F0.0
sg28
(lp77
sg30
I01
sg31
g10
sg32
I0
sbag1
(g2
g3
Ntp78
Rp79
(dp80
g7
g10
sg12
S'WayPoint4'
p81
sg14
g1
(g15
g3
Ntp82
Rp83
(lp84
g1
(g19
g3
Ntp85
Rp86
(lp87
F3.700000000000001
aF-1.3499999999999979
aF0.0
abag1
(g23
g3
Ntp88
Rp89
(lp90
I0
aI0
aI0
aI1
ababsg27
F0.0
sg28
(lp91
sg30
I01
sg31
g10
sg32
I0
sbag1
(g2
g3
Ntp92
Rp93
(dp94
g7
g1
(g8
g3
Ntp95
Rp96
(lp97
I40
aI400000000
absg12
S'WayPoint5'
p98
sg14
g1
(g15
g3
Ntp99
Rp100
(lp101
g1
(g19
g3
Ntp102
Rp103
(lp104
F7.650000000000002
aF-1.4999999999999982
aF0.0
abag1
(g23
g3
Ntp105
Rp106
(lp107
I0
aI0
aI0
aI1
ababsg27
F0.0
sg28
(lp108
g1
(cdestination
Observation
p109
g3
Ntp110
Rp111
(dp112
S'idleness'
p113
g1
(cdestination
Idleness
p114
g3
Ntp115
Rp116
(dp117
S'_Idleness__true_idl'
p118
F40.4
sS'_Idleness__estim_idl'
p119
F35.95
sS'_Idleness__remaining_idl'
p120
F38.0
sbsg27
F9.346
sbasg30
I01
sg31
g96
sg32
I0
sbag1
(g2
g3
Ntp121
Rp122
(dp123
g7
g10
sg12
S'WayPoint6'
p124
sg14
g1
(g15
g3
Ntp125
Rp126
(lp127
g1
(g19
g3
Ntp128
Rp129
(lp130
F4.350000000000001
aF1.6000000000000023
aF0.0
abag1
(g23
g3
Ntp131
Rp132
(lp133
I0
aI0
aI0
aI1
ababsg27
F5.374
sg28
(lp134
sg30
I00
sg31
g1
(g8
g3
Ntp135
Rp136
(lp137
I31
aI0
absg32
F20.67
sbag1
(g2
g3
Ntp138
Rp139
(dp140
g7
g10
sg12
S'WayPoint7'
p141
sg14
g1
(g15
g3
Ntp142
Rp143
(lp144
g1
(g19
g3
Ntp145
Rp146
(lp147
F1.700000000000001
aF1.6500000000000021
aF0.0
abag1
(g23
g3
Ntp148
Rp149
(lp150
I0
aI0
aI0
aI1
ababsg27
F9.939
sg28
(lp151
sg30
I00
sg31
g1
(g8
g3
Ntp152
Rp153
(lp154
I41
aI0
absg32
F38.23
sbag1
(g2
g3
Ntp155
Rp156
(dp157
g7
g1
(g8
g3
Ntp158
Rp159
(lp160
I30
aI600000000
absg12
S'WayPoint8'
p161
sg14
g1
(g15
g3
Ntp162
Rp163
(lp164
g1
(g19
g3
Ntp165
Rp166
(lp167
F0.9000000000000004
aF4.350000000000002
aF0.0
abag1
(g23
g3
Ntp168
Rp169
(lp170
I0
aI0
aI0
aI1
ababsg27
F0.0
sg28
(lp171
g1
(g109
g3
Ntp172
Rp173
(dp174
g113
g1
(g114
g3
Ntp175
Rp176
(dp177
g118
F30.6
sg119
F25.6
sg120
F28.0
sbsg27
F6.655
sbasg30
I01
sg31
g159
sg32
I0
sbag1
(g2
g3
Ntp178
Rp179
(dp180
g7
g10
sg12
S'WayPoint9'
p181
sg14
g1
(g15
g3
Ntp182
Rp183
(lp184
g1
(g19
g3
Ntp185
Rp186
(lp187
F5.0
aF4.600000000000002
aF0.0
abag1
(g23
g3
Ntp188
Rp189
(lp190
I0
aI0
aI0
aI1
ababsg27
F0.0
sg28
(lp191
sg30
I01
sg31
g10
sg32
I0
sba.