(lp0
ccopy_reg
_reconstructor
p1
(cdestination
Destination
p2
c__builtin__
object
p3
Ntp4
Rp5
(dp6
S'_Destination__latest_usage'
p7
g1
(crospy.rostime
Time
p8
g3
Ntp9
Rp10
(lp11
I0
aI0
absS'name'
p12
S'WayPoint1'
p13
sS'pose'
p14
g1
(cgeometry_msgs.msg._Pose
Pose
p15
g3
Ntp16
Rp17
(lp18
g1
(cgeometry_msgs.msg._Point
Point
p19
g3
Ntp20
Rp21
(lp22
F-1.549999999999999
aF-0.8999999999999986
aF0.0
abag1
(cgeometry_msgs.msg._Quaternion
Quaternion
p23
g3
Ntp24
Rp25
(lp26
I0
aI0
aI0
aI1
ababsS'path_len'
p27
F4.165
sS'_Destination__stats'
p28
(lp29
sS'_Destination__available'
p30
I00
sS'_Destination__remaining_idl'
p31
g1
(g8
g3
Ntp32
Rp33
(lp34
I54
aI600000000
absS'estim_idl'
p35
F16.02
sbag1
(g2
g3
Ntp36
Rp37
(dp38
g7
g10
sg12
S'WayPoint10'
p39
sg14
g1
(g15
g3
Ntp40
Rp41
(lp42
g1
(g19
g3
Ntp43
Rp44
(lp45
F-2.75
aF4.0500000000000025
aF0.0
abag1
(g23
g3
Ntp46
Rp47
(lp48
I0
aI0
aI0
aI1
ababsg27
F9.982
sg28
(lp49
sg30
I00
sg31
g1
(g8
g3
Ntp50
Rp51
(lp52
I50
aI601000000
absg35
F38.39
sbag1
(g2
g3
Ntp53
Rp54
(dp55
g7
g1
(g8
g3
Ntp56
Rp57
(lp58
I54
aI0
absg12
S'WayPoint2'
p59
sg14
g1
(g15
g3
Ntp60
Rp61
(lp62
g1
(g19
g3
Ntp63
Rp64
(lp65
F-5.25
aF-0.04999999999999716
aF0.0
abag1
(g23
g3
Ntp66
Rp67
(lp68
I0
aI0
aI0
aI1
ababsg27
F0.0
sg28
(lp69
g1
(cdestination
Observation
p70
g3
Ntp71
Rp72
(dp73
S'idleness'
p74
g1
(cdestination
Idleness
p75
g3
Ntp76
Rp77
(dp78
S'_Idleness__true_idl'
p79
F54.0
sS'_Idleness__estim_idl'
p80
F45.81
sS'_Idleness__remaining_idl'
p81
F51.0
sbsg27
F11.911
sbasg30
I01
sg31
g57
sg35
I0
sbag1
(g2
g3
Ntp82
Rp83
(dp84
g7
g10
sg12
S'WayPoint3'
p85
sg14
g1
(g15
g3
Ntp86
Rp87
(lp88
g1
(g19
g3
Ntp89
Rp90
(lp91
F-2.6499999999999995
aF-3.8999999999999986
aF0.0
abag1
(g23
g3
Ntp92
Rp93
(lp94
I0
aI0
aI0
aI1
ababsg27
F12.112
sg28
(lp95
sg30
I00
sg31
g1
(g8
g3
Ntp96
Rp97
(lp98
I3
aI200000000
absg35
F46.59
sbag1
(g2
g3
Ntp99
Rp100
(dp101
g7
g10
sg12
S'WayPoint4'
p102
sg14
g1
(g15
g3
Ntp103
Rp104
(lp105
g1
(g19
g3
Ntp106
Rp107
(lp108
F3.700000000000001
aF-1.3499999999999979
aF0.0
abag1
(g23
g3
Ntp109
Rp110
(lp111
I0
aI0
aI0
aI1
ababsg27
F0.0
sg28
(lp112
sg30
I01
sg31
g10
sg35
I0
sbag1
(g2
g3
Ntp113
Rp114
(dp115
g7
g10
sg12
S'WayPoint5'
p116
sg14
g1
(g15
g3
Ntp117
Rp118
(lp119
g1
(g19
g3
Ntp120
Rp121
(lp122
F7.650000000000002
aF-1.4999999999999982
aF0.0
abag1
(g23
g3
Ntp123
Rp124
(lp125
I0
aI0
aI0
aI1
ababsg27
F0.0
sg28
(lp126
sg30
I01
sg31
g10
sg35
I0
sbag1
(g2
g3
Ntp127
Rp128
(dp129
g7
g10
sg12
S'WayPoint6'
p130
sg14
g1
(g15
g3
Ntp131
Rp132
(lp133
g1
(g19
g3
Ntp134
Rp135
(lp136
F4.350000000000001
aF1.6000000000000023
aF0.0
abag1
(g23
g3
Ntp137
Rp138
(lp139
I0
aI0
aI0
aI1
ababsg27
F0.0
sg28
(lp140
sg30
I01
sg31
g10
sg35
I0
sbag1
(g2
g3
Ntp141
Rp142
(dp143
g7
g1
(g8
g3
Ntp144
Rp145
(lp146
I20
aI0
absg12
S'WayPoint7'
p147
sg14
g1
(g15
g3
Ntp148
Rp149
(lp150
g1
(g19
g3
Ntp151
Rp152
(lp153
F1.700000000000001
aF1.6500000000000021
aF0.0
abag1
(g23
g3
Ntp154
Rp155
(lp156
I0
aI0
aI0
aI1
ababsg27
F0.0
sg28
(lp157
g1
(g70
g3
Ntp158
Rp159
(dp160
g74
g1
(g75
g3
Ntp161
Rp162
(dp163
g79
F20.0
sg80
F16.19
sg81
F17.0
sbsg27
F4.209
sbasg30
I01
sg31
g145
sg35
I0
sbag1
(g2
g3
Ntp164
Rp165
(dp166
g7
g10
sg12
S'WayPoint8'
p167
sg14
g1
(g15
g3
Ntp168
Rp169
(lp170
g1
(g19
g3
Ntp171
Rp172
(lp173
F0.9000000000000004
aF4.350000000000002
aF0.0
abag1
(g23
g3
Ntp174
Rp175
(lp176
I0
aI0
aI0
aI1
ababsg27
F0.0
sg28
(lp177
sg30
I01
sg31
g10
sg35
I0
sbag1
(g2
g3
Ntp178
Rp179
(dp180
g7
g1
(g8
g3
Ntp181
Rp182
(lp183
I49
aI600000000
absg12
S'WayPoint9'
p184
sg14
g1
(g15
g3
Ntp185
Rp186
(lp187
g1
(g19
g3
Ntp188
Rp189
(lp190
F5.0
aF4.600000000000002
aF0.0
abag1
(g23
g3
Ntp191
Rp192
(lp193
I0
aI0
aI0
aI1
ababsg27
F0.0
sg28
(lp194
g1
(g70
g3
Ntp195
Rp196
(dp197
g74
g1
(g75
g3
Ntp198
Rp199
(dp200
g79
F49.6
sg80
F19.27
sg81
F29.0
sbsg27
F5.01
sbasg30
I01
sg31
g182
sg35
I0
sba.