(lp0
ccopy_reg
_reconstructor
p1
(cdestination
Destination
p2
c__builtin__
object
p3
Ntp4
Rp5
(dp6
S'_Destination__latest_usage'
p7
g1
(crospy.rostime
Time
p8
g3
Ntp9
Rp10
(lp11
I0
aI0
absS'name'
p12
S'WayPoint1'
p13
sS'pose'
p14
g1
(cgeometry_msgs.msg._Pose
Pose
p15
g3
Ntp16
Rp17
(lp18
g1
(cgeometry_msgs.msg._Point
Point
p19
g3
Ntp20
Rp21
(lp22
F-2.75
aF1.0500000000000025
aF0.0
abag1
(cgeometry_msgs.msg._Quaternion
Quaternion
p23
g3
Ntp24
Rp25
(lp26
I0
aI0
aI0
aI1
ababsS'_Destination__stats'
p27
(lp28
sS'_Destination__available'
p29
I01
sS'_Destination__remaining_idl'
p30
g10
sS'estim_idl'
p31
I0
sbag1
(g2
g3
Ntp32
Rp33
(dp34
g7
g10
sg12
S'WayPoint2'
p35
sg14
g1
(g15
g3
Ntp36
Rp37
(lp38
g1
(g19
g3
Ntp39
Rp40
(lp41
F5.15
aF0.9000000000000021
aF0.0
abag1
(g23
g3
Ntp42
Rp43
(lp44
I0
aI0
aI0
aI1
ababsg27
(lp45
sg29
I00
sg30
g1
(g8
g3
Ntp46
Rp47
(lp48
I30
aI600000000
absg31
F28.61
sbag1
(g2
g3
Ntp49
Rp50
(dp51
g7
g10
sg12
S'WayPoint3'
p52
sg14
g1
(g15
g3
Ntp53
Rp54
(lp55
g1
(g19
g3
Ntp56
Rp57
(lp58
F4.850000000000001
aF3.900000000000002
aF0.0
abag1
(g23
g3
Ntp59
Rp60
(lp61
I0
aI0
aI0
aI1
ababsg27
(lp62
sg29
I00
sg30
g1
(g8
g3
Ntp63
Rp64
(lp65
I25
aI600000000
absg31
F55.53
sbag1
(g2
g3
Ntp66
Rp67
(dp68
g7
g1
(g8
g3
Ntp69
Rp70
(lp71
I29
aI600000000
absg12
S'WayPoint4'
p72
sg14
g1
(g15
g3
Ntp73
Rp74
(lp75
g1
(g19
g3
Ntp76
Rp77
(lp78
F1.200000000000001
aF3.1000000000000023
aF0.0
abag1
(g23
g3
Ntp79
Rp80
(lp81
I0
aI0
aI0
aI1
ababsg27
(lp82
g1
(cdestination
Idleness
p83
g3
Ntp84
Rp85
(dp86
S'_Idleness__true_idl'
p87
F29.6
sS'_Idleness__estim_idl'
p88
F29.48
sS'_Idleness__remaining_idl'
p89
F27.0
sbasg29
I01
sg30
g70
sg31
I0
sbag1
(g2
g3
Ntp90
Rp91
(dp92
g7
g10
sg12
S'WayPoint5'
p93
sg14
g1
(g15
g3
Ntp94
Rp95
(lp96
g1
(g19
g3
Ntp97
Rp98
(lp99
F5.800000000000001
aF-4.349999999999998
aF0.0
abag1
(g23
g3
Ntp100
Rp101
(lp102
I0
aI0
aI0
aI1
ababsg27
(lp103
sg29
I00
sg30
g1
(g8
g3
Ntp104
Rp105
(lp106
I2
aI800000000
absg31
F69.78
sbag1
(g2
g3
Ntp107
Rp108
(dp109
g7
g1
(g8
g3
Ntp110
Rp111
(lp112
I24
aI600000000
absg12
S'WayPoint6'
p113
sg14
g1
(g15
g3
Ntp114
Rp115
(lp116
g1
(g19
g3
Ntp117
Rp118
(lp119
F-6.15
aF3.150000000000002
aF0.0
abag1
(g23
g3
Ntp120
Rp121
(lp122
I0
aI0
aI0
aI1
ababsg27
(lp123
g1
(g83
g3
Ntp124
Rp125
(dp126
g87
F24.6
sg88
F16.38
sg89
F22.0
sbasg29
I01
sg30
g111
sg31
I0
sbag1
(g2
g3
Ntp127
Rp128
(dp129
g7
g10
sg12
S'WayPoint7'
p130
sg14
g1
(g15
g3
Ntp131
Rp132
(lp133
g1
(g19
g3
Ntp134
Rp135
(lp136
F-6.3
aF-1.8999999999999986
aF0.0
abag1
(g23
g3
Ntp137
Rp138
(lp139
I0
aI0
aI0
aI1
ababsg27
(lp140
sg29
I01
sg30
g10
sg31
I0
sba.