(lp0
ccopy_reg
_reconstructor
p1
(cdestination
Destination
p2
c__builtin__
object
p3
Ntp4
Rp5
(dp6
S'_Destination__latest_usage'
p7
g1
(crospy.rostime
Time
p8
g3
Ntp9
Rp10
(lp11
I0
aI0
absS'name'
p12
S'WayPoint1'
p13
sS'pose'
p14
g1
(cgeometry_msgs.msg._Pose
Pose
p15
g3
Ntp16
Rp17
(lp18
g1
(cgeometry_msgs.msg._Point
Point
p19
g3
Ntp20
Rp21
(lp22
F-2.75
aF1.0500000000000025
aF0.0
abag1
(cgeometry_msgs.msg._Quaternion
Quaternion
p23
g3
Ntp24
Rp25
(lp26
I0
aI0
aI0
aI1
ababsS'_Destination__stats'
p27
(lp28
sS'_Destination__available'
p29
I01
sS'_Destination__remaining_idl'
p30
g10
sS'estim_idl'
p31
I0
sbag1
(g2
g3
Ntp32
Rp33
(dp34
g7
g10
sg12
S'WayPoint2'
p35
sg14
g1
(g15
g3
Ntp36
Rp37
(lp38
g1
(g19
g3
Ntp39
Rp40
(lp41
F5.15
aF0.9000000000000021
aF0.0
abag1
(g23
g3
Ntp42
Rp43
(lp44
I0
aI0
aI0
aI1
ababsg27
(lp45
sg29
I00
sg30
g1
(g8
g3
Ntp46
Rp47
(lp48
I2
aI800000000
absg31
F47.55
sbag1
(g2
g3
Ntp49
Rp50
(dp51
g7
g1
(g8
g3
Ntp52
Rp53
(lp54
I16
aI600000000
absg12
S'WayPoint3'
p55
sg14
g1
(g15
g3
Ntp56
Rp57
(lp58
g1
(g19
g3
Ntp59
Rp60
(lp61
F4.850000000000001
aF3.900000000000002
aF0.0
abag1
(g23
g3
Ntp62
Rp63
(lp64
I0
aI0
aI0
aI1
ababsg27
(lp65
g1
(cdestination
Idleness
p66
g3
Ntp67
Rp68
(dp69
S'_Idleness__true_idl'
p70
F16.6
sS'_Idleness__estim_idl'
p71
F11.98
sS'_Idleness__remaining_idl'
p72
F14.0
sbasg29
I01
sg30
g53
sg31
I0
sbag1
(g2
g3
Ntp73
Rp74
(dp75
g7
g10
sg12
S'WayPoint4'
p76
sg14
g1
(g15
g3
Ntp77
Rp78
(lp79
g1
(g19
g3
Ntp80
Rp81
(lp82
F1.200000000000001
aF3.1000000000000023
aF0.0
abag1
(g23
g3
Ntp83
Rp84
(lp85
I0
aI0
aI0
aI1
ababsg27
(lp86
sg29
I00
sg30
g1
(g8
g3
Ntp87
Rp88
(lp89
I54
aI600000000
absg31
F52.0
sbag1
(g2
g3
Ntp90
Rp91
(dp92
g7
g1
(g8
g3
Ntp93
Rp94
(lp95
I53
aI600000000
absg12
S'WayPoint5'
p96
sg14
g1
(g15
g3
Ntp97
Rp98
(lp99
g1
(g19
g3
Ntp100
Rp101
(lp102
F5.800000000000001
aF-4.349999999999998
aF0.0
abag1
(g23
g3
Ntp103
Rp104
(lp105
I0
aI0
aI0
aI1
ababsg27
(lp106
g1
(g66
g3
Ntp107
Rp108
(dp109
g70
F53.6
sg71
F34.24
sg72
F36.0
sbasg29
I01
sg30
g94
sg31
I0
sbag1
(g2
g3
Ntp110
Rp111
(dp112
g7
g10
sg12
S'WayPoint6'
p113
sg14
g1
(g15
g3
Ntp114
Rp115
(lp116
g1
(g19
g3
Ntp117
Rp118
(lp119
F-6.15
aF3.150000000000002
aF0.0
abag1
(g23
g3
Ntp120
Rp121
(lp122
I0
aI0
aI0
aI1
ababsg27
(lp123
sg29
I00
sg30
g1
(g8
g3
Ntp124
Rp125
(lp126
I42
aI600000000
absg31
F19.82
sbag1
(g2
g3
Ntp127
Rp128
(dp129
g7
g1
(g8
g3
Ntp130
Rp131
(lp132
I41
aI600000000
absg12
S'WayPoint7'
p133
sg14
g1
(g15
g3
Ntp134
Rp135
(lp136
g1
(g19
g3
Ntp137
Rp138
(lp139
F-6.3
aF-1.8999999999999986
aF0.0
abag1
(g23
g3
Ntp140
Rp141
(lp142
I0
aI0
aI0
aI1
ababsg27
(lp143
g1
(g66
g3
Ntp144
Rp145
(dp146
g70
F41.6
sg71
F32.43
sg72
F39.0
sbasg29
I01
sg30
g131
sg31
I0
sba.