(lp0
ccopy_reg
_reconstructor
p1
(cdestination
Destination
p2
c__builtin__
object
p3
Ntp4
Rp5
(dp6
S'_Destination__latest_usage'
p7
g1
(crospy.rostime
Time
p8
g3
Ntp9
Rp10
(lp11
I0
aI0
absS'name'
p12
S'WayPoint1'
p13
sS'pose'
p14
g1
(cgeometry_msgs.msg._Pose
Pose
p15
g3
Ntp16
Rp17
(lp18
g1
(cgeometry_msgs.msg._Point
Point
p19
g3
Ntp20
Rp21
(lp22
F-2.75
aF1.0500000000000025
aF0.0
abag1
(cgeometry_msgs.msg._Quaternion
Quaternion
p23
g3
Ntp24
Rp25
(lp26
I0
aI0
aI0
aI1
ababsS'_Destination__stats'
p27
(lp28
sS'_Destination__available'
p29
I01
sS'_Destination__remaining_idl'
p30
g10
sS'estim_idl'
p31
I0
sbag1
(g2
g3
Ntp32
Rp33
(dp34
g7
g10
sg12
S'WayPoint2'
p35
sg14
g1
(g15
g3
Ntp36
Rp37
(lp38
g1
(g19
g3
Ntp39
Rp40
(lp41
F5.15
aF0.9000000000000021
aF0.0
abag1
(g23
g3
Ntp42
Rp43
(lp44
I0
aI0
aI0
aI1
ababsg27
(lp45
sg29
I00
sg30
g1
(g8
g3
Ntp46
Rp47
(lp48
I47
aI200000000
absg31
F48.86
sbag1
(g2
g3
Ntp49
Rp50
(dp51
g7
g10
sg12
S'WayPoint3'
p52
sg14
g1
(g15
g3
Ntp53
Rp54
(lp55
g1
(g19
g3
Ntp56
Rp57
(lp58
F4.850000000000001
aF3.900000000000002
aF0.0
abag1
(g23
g3
Ntp59
Rp60
(lp61
I0
aI0
aI0
aI1
ababsg27
(lp62
sg29
I01
sg30
g10
sg31
I0
sbag1
(g2
g3
Ntp63
Rp64
(dp65
g7
g10
sg12
S'WayPoint4'
p66
sg14
g1
(g15
g3
Ntp67
Rp68
(lp69
g1
(g19
g3
Ntp70
Rp71
(lp72
F1.200000000000001
aF3.1000000000000023
aF0.0
abag1
(g23
g3
Ntp73
Rp74
(lp75
I0
aI0
aI0
aI1
ababsg27
(lp76
sg29
I00
sg30
g1
(g8
g3
Ntp77
Rp78
(lp79
I42
aI0
absg31
F80.35
sbag1
(g2
g3
Ntp80
Rp81
(dp82
g7
g10
sg12
S'WayPoint5'
p83
sg14
g1
(g15
g3
Ntp84
Rp85
(lp86
g1
(g19
g3
Ntp87
Rp88
(lp89
F5.800000000000001
aF-4.349999999999998
aF0.0
abag1
(g23
g3
Ntp90
Rp91
(lp92
I0
aI0
aI0
aI1
ababsg27
(lp93
sg29
I00
sg30
g1
(g8
g3
Ntp94
Rp95
(lp96
I2
aI602000000
absg31
F69.78
sbag1
(g2
g3
Ntp97
Rp98
(dp99
g7
g1
(g8
g3
Ntp100
Rp101
(lp102
I46
aI0
absg12
S'WayPoint6'
p103
sg14
g1
(g15
g3
Ntp104
Rp105
(lp106
g1
(g19
g3
Ntp107
Rp108
(lp109
F-6.15
aF3.150000000000002
aF0.0
abag1
(g23
g3
Ntp110
Rp111
(lp112
I0
aI0
aI0
aI1
ababsg27
(lp113
g1
(cdestination
Idleness
p114
g3
Ntp115
Rp116
(dp117
S'_Idleness__true_idl'
p118
F46.0
sS'_Idleness__estim_idl'
p119
F47.52
sS'_Idleness__remaining_idl'
p120
F42.999
sbasg29
I01
sg30
g101
sg31
I0
sbag1
(g2
g3
Ntp121
Rp122
(dp123
g7
g1
(g8
g3
Ntp124
Rp125
(lp126
I41
aI601000000
absg12
S'WayPoint7'
p127
sg14
g1
(g15
g3
Ntp128
Rp129
(lp130
g1
(g19
g3
Ntp131
Rp132
(lp133
F-6.3
aF-1.8999999999999986
aF0.0
abag1
(g23
g3
Ntp134
Rp135
(lp136
I0
aI0
aI0
aI1
ababsg27
(lp137
g1
(g114
g3
Ntp138
Rp139
(dp140
g118
F41.601
sg119
F32.43
sg120
F38.999
sbasg29
I01
sg30
g125
sg31
I0
sba.