(lp0
ccopy_reg
_reconstructor
p1
(cdestination
Destination
p2
c__builtin__
object
p3
Ntp4
Rp5
(dp6
S'_Destination__latest_usage'
p7
g1
(crospy.rostime
Time
p8
g3
Ntp9
Rp10
(lp11
I0
aI0
absS'name'
p12
S'WayPoint1'
p13
sS'pose'
p14
g1
(cgeometry_msgs.msg._Pose
Pose
p15
g3
Ntp16
Rp17
(lp18
g1
(cgeometry_msgs.msg._Point
Point
p19
g3
Ntp20
Rp21
(lp22
F-2.75
aF1.0500000000000025
aF0.0
abag1
(cgeometry_msgs.msg._Quaternion
Quaternion
p23
g3
Ntp24
Rp25
(lp26
I0
aI0
aI0
aI1
ababsS'_Destination__stats'
p27
(lp28
sS'_Destination__available'
p29
I01
sS'_Destination__remaining_idl'
p30
g10
sS'estim_idl'
p31
I0
sbag1
(g2
g3
Ntp32
Rp33
(dp34
g7
g1
(g8
g3
Ntp35
Rp36
(lp37
I34
aI600000000
absg12
S'WayPoint2'
p38
sg14
g1
(g15
g3
Ntp39
Rp40
(lp41
g1
(g19
g3
Ntp42
Rp43
(lp44
F5.15
aF0.9000000000000021
aF0.0
abag1
(g23
g3
Ntp45
Rp46
(lp47
I0
aI0
aI0
aI1
ababsg27
(lp48
g1
(cdestination
Idleness
p49
g3
Ntp50
Rp51
(dp52
S'_Idleness__true_idl'
p53
F34.6
sS'_Idleness__estim_idl'
p54
F31.53
sS'_Idleness__remaining_idl'
p55
F31.998
sbasg29
I01
sg30
g36
sg31
I0
sbag1
(g2
g3
Ntp56
Rp57
(dp58
g7
g10
sg12
S'WayPoint3'
p59
sg14
g1
(g15
g3
Ntp60
Rp61
(lp62
g1
(g19
g3
Ntp63
Rp64
(lp65
F4.850000000000001
aF3.900000000000002
aF0.0
abag1
(g23
g3
Ntp66
Rp67
(lp68
I0
aI0
aI0
aI1
ababsg27
(lp69
sg29
I00
sg30
g1
(g8
g3
Ntp70
Rp71
(lp72
I29
aI600000000
absg31
F34.53
sbag1
(g2
g3
Ntp73
Rp74
(dp75
g7
g10
sg12
S'WayPoint4'
p76
sg14
g1
(g15
g3
Ntp77
Rp78
(lp79
g1
(g19
g3
Ntp80
Rp81
(lp82
F1.200000000000001
aF3.1000000000000023
aF0.0
abag1
(g23
g3
Ntp83
Rp84
(lp85
I0
aI0
aI0
aI1
ababsg27
(lp86
sg29
I00
sg30
g1
(g8
g3
Ntp87
Rp88
(lp89
I51
aI800000000
absg31
F80.51
sbag1
(g2
g3
Ntp90
Rp91
(dp92
g7
g1
(g8
g3
Ntp93
Rp94
(lp95
I28
aI600000000
absg12
S'WayPoint5'
p96
sg14
g1
(g15
g3
Ntp97
Rp98
(lp99
g1
(g19
g3
Ntp100
Rp101
(lp102
F5.800000000000001
aF-4.349999999999998
aF0.0
abag1
(g23
g3
Ntp103
Rp104
(lp105
I0
aI0
aI0
aI1
ababsg27
(lp106
g1
(g49
g3
Ntp107
Rp108
(dp109
g53
F28.6
sg54
F23.26
sg55
F25.998
sbasg29
I01
sg30
g94
sg31
I0
sbag1
(g2
g3
Ntp110
Rp111
(dp112
g7
g10
sg12
S'WayPoint6'
p113
sg14
g1
(g15
g3
Ntp114
Rp115
(lp116
g1
(g19
g3
Ntp117
Rp118
(lp119
F-6.15
aF3.150000000000002
aF0.0
abag1
(g23
g3
Ntp120
Rp121
(lp122
I0
aI0
aI0
aI1
ababsg27
(lp123
sg29
I00
sg30
g1
(g8
g3
Ntp124
Rp125
(lp126
I35
aI600000000
absg31
F47.46
sbag1
(g2
g3
Ntp127
Rp128
(dp129
g7
g1
(g8
g3
Ntp130
Rp131
(lp132
I50
aI801000000
absg12
S'WayPoint7'
p133
sg14
g1
(g15
g3
Ntp134
Rp135
(lp136
g1
(g19
g3
Ntp137
Rp138
(lp139
F-6.3
aF-1.8999999999999986
aF0.0
abag1
(g23
g3
Ntp140
Rp141
(lp142
I0
aI0
aI0
aI1
ababsg27
(lp143
g1
(g49
g3
Ntp144
Rp145
(dp146
g53
F50.801
sg54
F19.79
sg55
F48.001
sbasg29
I01
sg30
g131
sg31
I0
sba.