(lp0
ccopy_reg
_reconstructor
p1
(cdestination
Destination
p2
c__builtin__
object
p3
Ntp4
Rp5
(dp6
S'_Destination__latest_usage'
p7
g1
(crospy.rostime
Time
p8
g3
Ntp9
Rp10
(lp11
I0
aI0
absS'name'
p12
S'WayPoint1'
p13
sS'pose'
p14
g1
(cgeometry_msgs.msg._Pose
Pose
p15
g3
Ntp16
Rp17
(lp18
g1
(cgeometry_msgs.msg._Point
Point
p19
g3
Ntp20
Rp21
(lp22
F-1.549999999999999
aF-0.8999999999999986
aF0.0
abag1
(cgeometry_msgs.msg._Quaternion
Quaternion
p23
g3
Ntp24
Rp25
(lp26
I0
aI0
aI0
aI1
ababsS'path_len'
p27
F9.226
sS'_Destination__stats'
p28
(lp29
sS'_Destination__available'
p30
I00
sS'_Destination__remaining_idl'
p31
g1
(g8
g3
Ntp32
Rp33
(lp34
I49
aI200000000
absS'estim_idl'
p35
F35.49
sbag1
(g2
g3
Ntp36
Rp37
(dp38
g7
g10
sg12
S'WayPoint10'
p39
sg14
g1
(g15
g3
Ntp40
Rp41
(lp42
g1
(g19
g3
Ntp43
Rp44
(lp45
F-2.75
aF4.0500000000000025
aF0.0
abag1
(g23
g3
Ntp46
Rp47
(lp48
I0
aI0
aI0
aI1
ababsg27
F0.0
sg28
(lp49
sg30
I01
sg31
g10
sg35
I0
sbag1
(g2
g3
Ntp50
Rp51
(dp52
g7
g10
sg12
S'WayPoint2'
p53
sg14
g1
(g15
g3
Ntp54
Rp55
(lp56
g1
(g19
g3
Ntp57
Rp58
(lp59
F-5.25
aF-0.04999999999999716
aF0.0
abag1
(g23
g3
Ntp60
Rp61
(lp62
I0
aI0
aI0
aI1
ababsg27
F0.0
sg28
(lp63
sg30
I01
sg31
g10
sg35
I0
sbag1
(g2
g3
Ntp64
Rp65
(dp66
g7
g10
sg12
S'WayPoint3'
p67
sg14
g1
(g15
g3
Ntp68
Rp69
(lp70
g1
(g19
g3
Ntp71
Rp72
(lp73
F-2.6499999999999995
aF-3.8999999999999986
aF0.0
abag1
(g23
g3
Ntp74
Rp75
(lp76
I0
aI0
aI0
aI1
ababsg27
F0.0
sg28
(lp77
sg30
I01
sg31
g10
sg35
I0
sbag1
(g2
g3
Ntp78
Rp79
(dp80
g7
g10
sg12
S'WayPoint4'
p81
sg14
g1
(g15
g3
Ntp82
Rp83
(lp84
g1
(g19
g3
Ntp85
Rp86
(lp87
F3.700000000000001
aF-1.3499999999999979
aF0.0
abag1
(g23
g3
Ntp88
Rp89
(lp90
I0
aI0
aI0
aI1
ababsg27
F6.017
sg28
(lp91
sg30
I00
sg31
g1
(g8
g3
Ntp92
Rp93
(lp94
I31
aI600000000
absg35
F23.14
sbag1
(g2
g3
Ntp95
Rp96
(dp97
g7
g10
sg12
S'WayPoint5'
p98
sg14
g1
(g15
g3
Ntp99
Rp100
(lp101
g1
(g19
g3
Ntp102
Rp103
(lp104
F7.650000000000002
aF-1.4999999999999982
aF0.0
abag1
(g23
g3
Ntp105
Rp106
(lp107
I0
aI0
aI0
aI1
ababsg27
F0.0
sg28
(lp108
sg30
I01
sg31
g10
sg35
I0
sbag1
(g2
g3
Ntp109
Rp110
(dp111
g7
g1
(g8
g3
Ntp112
Rp113
(lp114
I31
aI0
absg12
S'WayPoint6'
p115
sg14
g1
(g15
g3
Ntp116
Rp117
(lp118
g1
(g19
g3
Ntp119
Rp120
(lp121
F4.350000000000001
aF1.6000000000000023
aF0.0
abag1
(g23
g3
Ntp122
Rp123
(lp124
I0
aI0
aI0
aI1
ababsg27
F0.0
sg28
(lp125
g1
(cdestination
Observation
p126
g3
Ntp127
Rp128
(dp129
S'idleness'
p130
g1
(cdestination
Idleness
p131
g3
Ntp132
Rp133
(dp134
S'_Idleness__true_idl'
p135
F31.0
sS'_Idleness__estim_idl'
p136
F26.29
sS'_Idleness__remaining_idl'
p137
F27.999
sbsg27
F6.835
sbasg30
I01
sg31
g113
sg35
I0
sbag1
(g2
g3
Ntp138
Rp139
(dp140
g7
g10
sg12
S'WayPoint7'
p141
sg14
g1
(g15
g3
Ntp142
Rp143
(lp144
g1
(g19
g3
Ntp145
Rp146
(lp147
F1.700000000000001
aF1.6500000000000021
aF0.0
abag1
(g23
g3
Ntp148
Rp149
(lp150
I0
aI0
aI0
aI1
ababsg27
F5.031
sg28
(lp151
sg30
I00
sg31
g1
(g8
g3
Ntp152
Rp153
(lp154
I3
aI200000000
absg35
F19.35
sbag1
(g2
g3
Ntp155
Rp156
(dp157
g7
g10
sg12
S'WayPoint8'
p158
sg14
g1
(g15
g3
Ntp159
Rp160
(lp161
g1
(g19
g3
Ntp162
Rp163
(lp164
F0.9000000000000004
aF4.350000000000002
aF0.0
abag1
(g23
g3
Ntp165
Rp166
(lp167
I0
aI0
aI0
aI1
ababsg27
F0.0
sg28
(lp168
sg30
I01
sg31
g10
sg35
I0
sbag1
(g2
g3
Ntp169
Rp170
(dp171
g7
g1
(g8
g3
Ntp172
Rp173
(lp174
I48
aI200000000
absg12
S'WayPoint9'
p175
sg14
g1
(g15
g3
Ntp176
Rp177
(lp178
g1
(g19
g3
Ntp179
Rp180
(lp181
F5.0
aF4.600000000000002
aF0.0
abag1
(g23
g3
Ntp182
Rp183
(lp184
I0
aI0
aI0
aI1
ababsg27
F0.0
sg28
(lp185
g1
(g126
g3
Ntp186
Rp187
(dp188
g130
g1
(g131
g3
Ntp189
Rp190
(dp191
g135
F48.2
sg136
F38.52
sg137
F45.0
sbsg27
F10.015
sbasg30
I01
sg31
g173
sg35
I0
sba.