(lp0
ccopy_reg
_reconstructor
p1
(cdestination
Destination
p2
c__builtin__
object
p3
Ntp4
Rp5
(dp6
S'_Destination__latest_usage'
p7
g1
(crospy.rostime
Time
p8
g3
Ntp9
Rp10
(lp11
I0
aI0
absS'name'
p12
S'WayPoint1'
p13
sS'pose'
p14
g1
(cgeometry_msgs.msg._Pose
Pose
p15
g3
Ntp16
Rp17
(lp18
g1
(cgeometry_msgs.msg._Point
Point
p19
g3
Ntp20
Rp21
(lp22
F-6.75
aF-2.6999999999999975
aF0.0
abag1
(cgeometry_msgs.msg._Quaternion
Quaternion
p23
g3
Ntp24
Rp25
(lp26
I0
aI0
aI0
aI1
ababsS'path_len'
p27
F12.12
sS'_Destination__stats'
p28
(lp29
sS'_Destination__available'
p30
I00
sS'_Destination__remaining_idl'
p31
g1
(g8
g3
Ntp32
Rp33
(lp34
I4
aI2000000
absS'estim_idl'
p35
F46.61
sbag1
(g2
g3
Ntp36
Rp37
(dp38
g7
g10
sg12
S'WayPoint10'
p39
sg14
g1
(g15
g3
Ntp40
Rp41
(lp42
g1
(g19
g3
Ntp43
Rp44
(lp45
F1.8500000000000014
aF2.8500000000000023
aF0.0
abag1
(g23
g3
Ntp46
Rp47
(lp48
I0
aI0
aI0
aI1
ababsg27
F0.0
sg28
(lp49
sg30
I01
sg31
g10
sg35
I0
sbag1
(g2
g3
Ntp50
Rp51
(dp52
g7
g10
sg12
S'WayPoint11'
p53
sg14
g1
(g15
g3
Ntp54
Rp55
(lp56
g1
(g19
g3
Ntp57
Rp58
(lp59
F6.600000000000001
aF3.450000000000003
aF0.0
abag1
(g23
g3
Ntp60
Rp61
(lp62
I0
aI0
aI0
aI1
ababsg27
F0.0
sg28
(lp63
sg30
I01
sg31
g10
sg35
I0
sbag1
(g2
g3
Ntp64
Rp65
(dp66
g7
g10
sg12
S'WayPoint2'
p67
sg14
g1
(g15
g3
Ntp68
Rp69
(lp70
g1
(g19
g3
Ntp71
Rp72
(lp73
F-3.1999999999999993
aF-3.349999999999998
aF0.0
abag1
(g23
g3
Ntp74
Rp75
(lp76
I0
aI0
aI0
aI1
ababsg27
F14.057
sg28
(lp77
sg30
I00
sg31
g1
(g8
g3
Ntp78
Rp79
(lp80
I2
aI801000000
absg35
F54.07
sbag1
(g2
g3
Ntp81
Rp82
(dp83
g7
g10
sg12
S'WayPoint3'
p84
sg14
g1
(g15
g3
Ntp85
Rp86
(lp87
g1
(g19
g3
Ntp88
Rp89
(lp90
F0.0
aF-3.349999999999998
aF0.0
abag1
(g23
g3
Ntp91
Rp92
(lp93
I0
aI0
aI0
aI1
ababsg27
F9.719
sg28
(lp94
sg30
I00
sg31
g1
(g8
g3
Ntp95
Rp96
(lp97
I4
aI201000000
absg35
F37.38
sbag1
(g2
g3
Ntp98
Rp99
(dp100
g7
g10
sg12
S'WayPoint4'
p101
sg14
g1
(g15
g3
Ntp102
Rp103
(lp104
g1
(g19
g3
Ntp105
Rp106
(lp107
F2.3500000000000014
aF-3.2499999999999982
aF0.0
abag1
(g23
g3
Ntp108
Rp109
(lp110
I0
aI0
aI0
aI1
ababsg27
F0.0
sg28
(lp111
sg30
I01
sg31
g10
sg35
I0
sbag1
(g2
g3
Ntp112
Rp113
(dp114
g7
g10
sg12
S'WayPoint5'
p115
sg14
g1
(g15
g3
Ntp116
Rp117
(lp118
g1
(g19
g3
Ntp119
Rp120
(lp121
F5.4
aF-3.4499999999999975
aF0.0
abag1
(g23
g3
Ntp122
Rp123
(lp124
I0
aI0
aI0
aI1
ababsg27
F13.557
sg28
(lp125
sg30
I00
sg31
g79
sg35
F52.14
sbag1
(g2
g3
Ntp126
Rp127
(dp128
g7
g10
sg12
S'WayPoint6'
p129
sg14
g1
(g15
g3
Ntp130
Rp131
(lp132
g1
(g19
g3
Ntp133
Rp134
(lp135
F4.850000000000001
aF-0.7499999999999982
aF0.0
abag1
(g23
g3
Ntp136
Rp137
(lp138
I0
aI0
aI0
aI1
ababsg27
F5.667
sg28
(lp139
sg30
I00
sg31
g1
(g8
g3
Ntp140
Rp141
(lp142
I2
aI600000000
absg35
F21.79
sbag1
(g2
g3
Ntp143
Rp144
(dp145
g7
g1
(g8
g3
Ntp146
Rp147
(lp148
I14
aI0
absg12
S'WayPoint7'
p149
sg14
g1
(g15
g3
Ntp150
Rp151
(lp152
g1
(g19
g3
Ntp153
Rp154
(lp155
F1.0500000000000007
aF-0.6999999999999975
aF0.0
abag1
(g23
g3
Ntp156
Rp157
(lp158
I0
aI0
aI0
aI1
ababsg27
F0.0
sg28
(lp159
g1
(cdestination
Observation
p160
g3
Ntp161
Rp162
(dp163
S'idleness'
p164
g1
(cdestination
Idleness
p165
g3
Ntp166
Rp167
(dp168
S'_Idleness__true_idl'
p169
F14.0
sS'_Idleness__estim_idl'
p170
F11.62
sS'_Idleness__remaining_idl'
p171
F9.998
sbsg27
F3.022
sbasg30
I01
sg31
g147
sg35
I0
sbag1
(g2
g3
Ntp172
Rp173
(dp174
g7
g10
sg12
S'WayPoint8'
p175
sg14
g1
(g15
g3
Ntp176
Rp177
(lp178
g1
(g19
g3
Ntp179
Rp180
(lp181
F-3.05
aF-0.5999999999999979
aF0.0
abag1
(g23
g3
Ntp182
Rp183
(lp184
I0
aI0
aI0
aI1
ababsg27
F0.0
sg28
(lp185
sg30
I01
sg31
g10
sg35
I0
sbag1
(g2
g3
Ntp186
Rp187
(dp188
g7
g10
sg12
S'WayPoint9'
p189
sg14
g1
(g15
g3
Ntp190
Rp191
(lp192
g1
(g19
g3
Ntp193
Rp194
(lp195
F-1.5
aF2.700000000000003
aF0.0
abag1
(g23
g3
Ntp196
Rp197
(lp198
I0
aI0
aI0
aI1
ababsg27
F6.911
sg28
(lp199
sg30
I00
sg31
g1
(g8
g3
Ntp200
Rp201
(lp202
I15
aI0
absg35
F26.58
sba.