(lp0
ccopy_reg
_reconstructor
p1
(cdestination
Destination
p2
c__builtin__
object
p3
Ntp4
Rp5
(dp6
S'_Destination__latest_usage'
p7
g1
(crospy.rostime
Time
p8
g3
Ntp9
Rp10
(lp11
I0
aI0
absS'name'
p12
S'WayPoint1'
p13
sS'pose'
p14
g1
(cgeometry_msgs.msg._Pose
Pose
p15
g3
Ntp16
Rp17
(lp18
g1
(cgeometry_msgs.msg._Point
Point
p19
g3
Ntp20
Rp21
(lp22
F-6.75
aF-2.6999999999999975
aF0.0
abag1
(cgeometry_msgs.msg._Quaternion
Quaternion
p23
g3
Ntp24
Rp25
(lp26
I0
aI0
aI0
aI1
ababsS'path_len'
p27
F12.981
sS'_Destination__stats'
p28
(lp29
sS'_Destination__available'
p30
I00
sS'_Destination__remaining_idl'
p31
g1
(g8
g3
Ntp32
Rp33
(lp34
I27
aI203000000
absS'estim_idl'
p35
F49.93
sbag1
(g2
g3
Ntp36
Rp37
(dp38
g7
g10
sg12
S'WayPoint10'
p39
sg14
g1
(g15
g3
Ntp40
Rp41
(lp42
g1
(g19
g3
Ntp43
Rp44
(lp45
F1.8500000000000014
aF2.8500000000000023
aF0.0
abag1
(g23
g3
Ntp46
Rp47
(lp48
I0
aI0
aI0
aI1
ababsg27
F11.292
sg28
(lp49
sg30
I00
sg31
g1
(g8
g3
Ntp50
Rp51
(lp52
I2
aI800000000
absg35
F43.43
sbag1
(g2
g3
Ntp53
Rp54
(dp55
g7
g10
sg12
S'WayPoint11'
p56
sg14
g1
(g15
g3
Ntp57
Rp58
(lp59
g1
(g19
g3
Ntp60
Rp61
(lp62
F6.600000000000001
aF3.450000000000003
aF0.0
abag1
(g23
g3
Ntp63
Rp64
(lp65
I0
aI0
aI0
aI1
ababsg27
F15.172
sg28
(lp66
sg30
I00
sg31
g1
(g8
g3
Ntp67
Rp68
(lp69
I3
aI4000000
absg35
F58.35
sbag1
(g2
g3
Ntp70
Rp71
(dp72
g7
g10
sg12
S'WayPoint2'
p73
sg14
g1
(g15
g3
Ntp74
Rp75
(lp76
g1
(g19
g3
Ntp77
Rp78
(lp79
F-3.1999999999999993
aF-3.349999999999998
aF0.0
abag1
(g23
g3
Ntp80
Rp81
(lp82
I0
aI0
aI0
aI1
ababsg27
F7.089
sg28
(lp83
sg30
I00
sg31
g1
(g8
g3
Ntp84
Rp85
(lp86
I2
aI600000000
absg35
F27.26
sbag1
(g2
g3
Ntp87
Rp88
(dp89
g7
g10
sg12
S'WayPoint3'
p90
sg14
g1
(g15
g3
Ntp91
Rp92
(lp93
g1
(g19
g3
Ntp94
Rp95
(lp96
F0.0
aF-3.349999999999998
aF0.0
abag1
(g23
g3
Ntp97
Rp98
(lp99
I0
aI0
aI0
aI1
ababsg27
F9.597
sg28
(lp100
sg30
I00
sg31
g1
(g8
g3
Ntp101
Rp102
(lp103
I34
aI400000000
absg35
F36.91
sbag1
(g2
g3
Ntp104
Rp105
(dp106
g7
g1
(g8
g3
Ntp107
Rp108
(lp109
I26
aI801000000
absg12
S'WayPoint4'
p110
sg14
g1
(g15
g3
Ntp111
Rp112
(lp113
g1
(g19
g3
Ntp114
Rp115
(lp116
F2.3500000000000014
aF-3.2499999999999982
aF0.0
abag1
(g23
g3
Ntp117
Rp118
(lp119
I0
aI0
aI0
aI1
ababsg27
F0.0
sg28
(lp120
g1
(cdestination
Observation
p121
g3
Ntp122
Rp123
(dp124
S'idleness'
p125
g1
(cdestination
Idleness
p126
g3
Ntp127
Rp128
(dp129
S'_Idleness__true_idl'
p130
F26.801
sS'_Idleness__estim_idl'
p131
F25.44
sS'_Idleness__remaining_idl'
p132
F24.001
sbsg27
F6.616
sbasg30
I01
sg31
g108
sg35
I0
sbag1
(g2
g3
Ntp133
Rp134
(dp135
g7
g1
(g8
g3
Ntp136
Rp137
(lp138
I33
aI410000000
absg12
S'WayPoint5'
p139
sg14
g1
(g15
g3
Ntp140
Rp141
(lp142
g1
(g19
g3
Ntp143
Rp144
(lp145
F5.4
aF-3.4499999999999975
aF0.0
abag1
(g23
g3
Ntp146
Rp147
(lp148
I0
aI0
aI0
aI1
ababsg27
F0.0
sg28
(lp149
g1
(g121
g3
Ntp150
Rp151
(dp152
g125
g1
(g126
g3
Ntp153
Rp154
(dp155
g130
F33.41
sg131
F16.72
sg132
F17.01
sbsg27
F4.346
sbasg30
I01
sg31
g137
sg35
I0
sbag1
(g2
g3
Ntp156
Rp157
(dp158
g7
g1
(g8
g3
Ntp159
Rp160
(lp161
I15
aI805000000
absg12
S'WayPoint6'
p162
sg14
g1
(g15
g3
Ntp163
Rp164
(lp165
g1
(g19
g3
Ntp166
Rp167
(lp168
F4.850000000000001
aF-0.7499999999999982
aF0.0
abag1
(g23
g3
Ntp169
Rp170
(lp171
I0
aI0
aI0
aI1
ababsg27
F0.0
sg28
(lp172
g1
(g121
g3
Ntp173
Rp174
(dp175
g125
g1
(g126
g3
Ntp176
Rp177
(dp178
g130
F15.805
sg131
F16.44
sg132
F13.005
sbsg27
F4.275
sbasg30
I01
sg31
g160
sg35
I0
sbag1
(g2
g3
Ntp179
Rp180
(dp181
g7
g10
sg12
S'WayPoint7'
p182
sg14
g1
(g15
g3
Ntp183
Rp184
(lp185
g1
(g19
g3
Ntp186
Rp187
(lp188
F1.0500000000000007
aF-0.6999999999999975
aF0.0
abag1
(g23
g3
Ntp189
Rp190
(lp191
I0
aI0
aI0
aI1
ababsg27
F0.0
sg28
(lp192
sg30
I01
sg31
g10
sg35
I0
sbag1
(g2
g3
Ntp193
Rp194
(dp195
g7
g10
sg12
S'WayPoint8'
p196
sg14
g1
(g15
g3
Ntp197
Rp198
(lp199
g1
(g19
g3
Ntp200
Rp201
(lp202
F-3.05
aF-0.5999999999999979
aF0.0
abag1
(g23
g3
Ntp203
Rp204
(lp205
I0
aI0
aI0
aI1
ababsg27
F0.0
sg28
(lp206
sg30
I01
sg31
g10
sg35
I0
sbag1
(g2
g3
Ntp207
Rp208
(dp209
g7
g10
sg12
S'WayPoint9'
p210
sg14
g1
(g15
g3
Ntp211
Rp212
(lp213
g1
(g19
g3
Ntp214
Rp215
(lp216
F-1.5
aF2.700000000000003
aF0.0
abag1
(g23
g3
Ntp217
Rp218
(lp219
I0
aI0
aI0
aI1
ababsg27
F9.876
sg28
(lp220
sg30
I00
sg31
g51
sg35
F37.99
sba.