(lp0
ccopy_reg
_reconstructor
p1
(cdestination
Destination
p2
c__builtin__
object
p3
Ntp4
Rp5
(dp6
S'_Destination__latest_usage'
p7
g1
(crospy.rostime
Time
p8
g3
Ntp9
Rp10
(lp11
I0
aI0
absS'name'
p12
S'WayPoint1'
p13
sS'pose'
p14
g1
(cgeometry_msgs.msg._Pose
Pose
p15
g3
Ntp16
Rp17
(lp18
g1
(cgeometry_msgs.msg._Point
Point
p19
g3
Ntp20
Rp21
(lp22
F-6.75
aF-2.6999999999999975
aF0.0
abag1
(cgeometry_msgs.msg._Quaternion
Quaternion
p23
g3
Ntp24
Rp25
(lp26
I0
aI0
aI0
aI1
ababsS'path_len'
p27
F5.072
sS'_Destination__stats'
p28
(lp29
sS'_Destination__available'
p30
I00
sS'_Destination__remaining_idl'
p31
g1
(g8
g3
Ntp32
Rp33
(lp34
I52
aI402000000
absS'estim_idl'
p35
F19.51
sbag1
(g2
g3
Ntp36
Rp37
(dp38
g7
g10
sg12
S'WayPoint10'
p39
sg14
g1
(g15
g3
Ntp40
Rp41
(lp42
g1
(g19
g3
Ntp43
Rp44
(lp45
F1.8500000000000014
aF2.8500000000000023
aF0.0
abag1
(g23
g3
Ntp46
Rp47
(lp48
I0
aI0
aI0
aI1
ababsg27
F0.0
sg28
(lp49
sg30
I01
sg31
g10
sg35
I0
sbag1
(g2
g3
Ntp50
Rp51
(dp52
g7
g10
sg12
S'WayPoint11'
p53
sg14
g1
(g15
g3
Ntp54
Rp55
(lp56
g1
(g19
g3
Ntp57
Rp58
(lp59
F6.600000000000001
aF3.450000000000003
aF0.0
abag1
(g23
g3
Ntp60
Rp61
(lp62
I0
aI0
aI0
aI1
ababsg27
F15.573
sg28
(lp63
sg30
I00
sg31
g1
(g8
g3
Ntp64
Rp65
(lp66
I45
aI1000000
absg35
F59.9
sbag1
(g2
g3
Ntp67
Rp68
(dp69
g7
g1
(g8
g3
Ntp70
Rp71
(lp72
I44
aI1000000
absg12
S'WayPoint2'
p73
sg14
g1
(g15
g3
Ntp74
Rp75
(lp76
g1
(g19
g3
Ntp77
Rp78
(lp79
F-3.1999999999999993
aF-3.349999999999998
aF0.0
abag1
(g23
g3
Ntp80
Rp81
(lp82
I0
aI0
aI0
aI1
ababsg27
F0.0
sg28
(lp83
g1
(cdestination
Observation
p84
g3
Ntp85
Rp86
(dp87
S'idleness'
p88
g1
(cdestination
Idleness
p89
g3
Ntp90
Rp91
(dp92
S'_Idleness__true_idl'
p93
F44.001
sS'_Idleness__estim_idl'
p94
F37.19
sS'_Idleness__remaining_idl'
p95
F40.999
sbsg27
F9.67
sbasg30
I01
sg31
g71
sg35
I0
sbag1
(g2
g3
Ntp96
Rp97
(dp98
g7
g10
sg12
S'WayPoint3'
p99
sg14
g1
(g15
g3
Ntp100
Rp101
(lp102
g1
(g19
g3
Ntp103
Rp104
(lp105
F0.0
aF-3.349999999999998
aF0.0
abag1
(g23
g3
Ntp106
Rp107
(lp108
I0
aI0
aI0
aI1
ababsg27
F9.527
sg28
(lp109
sg30
I00
sg31
g1
(g8
g3
Ntp110
Rp111
(lp112
I3
aI2000000
absg35
F36.64
sbag1
(g2
g3
Ntp113
Rp114
(dp115
g7
g10
sg12
S'WayPoint4'
p116
sg14
g1
(g15
g3
Ntp117
Rp118
(lp119
g1
(g19
g3
Ntp120
Rp121
(lp122
F2.3500000000000014
aF-3.2499999999999982
aF0.0
abag1
(g23
g3
Ntp123
Rp124
(lp125
I0
aI0
aI0
aI1
ababsg27
F9.176
sg28
(lp126
sg30
I00
sg31
g111
sg35
F35.29
sbag1
(g2
g3
Ntp127
Rp128
(dp129
g7
g10
sg12
S'WayPoint5'
p130
sg14
g1
(g15
g3
Ntp131
Rp132
(lp133
g1
(g19
g3
Ntp134
Rp135
(lp136
F5.4
aF-3.4499999999999975
aF0.0
abag1
(g23
g3
Ntp137
Rp138
(lp139
I0
aI0
aI0
aI1
ababsg27
F10.38
sg28
(lp140
sg30
I00
sg31
g1
(g8
g3
Ntp141
Rp142
(lp143
I2
aI601000000
absg35
F39.92
sbag1
(g2
g3
Ntp144
Rp145
(dp146
g7
g10
sg12
S'WayPoint6'
p147
sg14
g1
(g15
g3
Ntp148
Rp149
(lp150
g1
(g19
g3
Ntp151
Rp152
(lp153
F4.850000000000001
aF-0.7499999999999982
aF0.0
abag1
(g23
g3
Ntp154
Rp155
(lp156
I0
aI0
aI0
aI1
ababsg27
F10.804
sg28
(lp157
sg30
I00
sg31
g142
sg35
F41.55
sbag1
(g2
g3
Ntp158
Rp159
(dp160
g7
g1
(g8
g3
Ntp161
Rp162
(lp163
I33
aI1000000
absg12
S'WayPoint7'
p164
sg14
g1
(g15
g3
Ntp165
Rp166
(lp167
g1
(g19
g3
Ntp168
Rp169
(lp170
F1.0500000000000007
aF-0.6999999999999975
aF0.0
abag1
(g23
g3
Ntp171
Rp172
(lp173
I0
aI0
aI0
aI1
ababsg27
F0.0
sg28
(lp174
g1
(g84
g3
Ntp175
Rp176
(dp177
g88
g1
(g89
g3
Ntp178
Rp179
(dp180
g93
F33.001
sg94
F28.73
sg95
F29.999
sbsg27
F7.47
sbasg30
I01
sg31
g162
sg35
I0
sbag1
(g2
g3
Ntp181
Rp182
(dp183
g7
g1
(g8
g3
Ntp184
Rp185
(lp186
I51
aI405000000
absg12
S'WayPoint8'
p187
sg14
g1
(g15
g3
Ntp188
Rp189
(lp190
g1
(g19
g3
Ntp191
Rp192
(lp193
F-3.05
aF-0.5999999999999979
aF0.0
abag1
(g23
g3
Ntp194
Rp195
(lp196
I0
aI0
aI0
aI1
ababsg27
F0.0
sg28
(lp197
g1
(g84
g3
Ntp198
Rp199
(dp200
g88
g1
(g89
g3
Ntp201
Rp202
(dp203
g93
F51.405
sg94
F16.13
sg95
F18.005
sbsg27
F4.193
sbasg30
I01
sg31
g185
sg35
I0
sbag1
(g2
g3
Ntp204
Rp205
(dp206
g7
g10
sg12
S'WayPoint9'
p207
sg14
g1
(g15
g3
Ntp208
Rp209
(lp210
g1
(g19
g3
Ntp211
Rp212
(lp213
F-1.5
aF2.700000000000003
aF0.0
abag1
(g23
g3
Ntp214
Rp215
(lp216
I0
aI0
aI0
aI1
ababsg27
F0.0
sg28
(lp217
sg30
I01
sg31
g10
sg35
I0
sba.