(lp0
ccopy_reg
_reconstructor
p1
(cdestination
Destination
p2
c__builtin__
object
p3
Ntp4
Rp5
(dp6
S'_Destination__latest_usage'
p7
g1
(crospy.rostime
Time
p8
g3
Ntp9
Rp10
(lp11
I0
aI0
absS'name'
p12
S'WayPoint1'
p13
sS'pose'
p14
g1
(cgeometry_msgs.msg._Pose
Pose
p15
g3
Ntp16
Rp17
(lp18
g1
(cgeometry_msgs.msg._Point
Point
p19
g3
Ntp20
Rp21
(lp22
F-6.75
aF-2.6999999999999975
aF0.0
abag1
(cgeometry_msgs.msg._Quaternion
Quaternion
p23
g3
Ntp24
Rp25
(lp26
I0
aI0
aI0
aI1
ababsS'path_len'
p27
F0.0
sS'_Destination__stats'
p28
(lp29
sS'_Destination__available'
p30
I00
sS'_Destination__remaining_idl'
p31
g1
(g8
g3
Ntp32
Rp33
(lp34
I31
aI200000000
absS'estim_idl'
p35
F0.0
sbag1
(g2
g3
Ntp36
Rp37
(dp38
g7
g10
sg12
S'WayPoint10'
p39
sg14
g1
(g15
g3
Ntp40
Rp41
(lp42
g1
(g19
g3
Ntp43
Rp44
(lp45
F1.8500000000000014
aF2.8500000000000023
aF0.0
abag1
(g23
g3
Ntp46
Rp47
(lp48
I0
aI0
aI0
aI1
ababsg27
F0.0
sg28
(lp49
sg30
I01
sg31
g10
sg35
I0
sbag1
(g2
g3
Ntp50
Rp51
(dp52
g7
g10
sg12
S'WayPoint11'
p53
sg14
g1
(g15
g3
Ntp54
Rp55
(lp56
g1
(g19
g3
Ntp57
Rp58
(lp59
F6.600000000000001
aF3.450000000000003
aF0.0
abag1
(g23
g3
Ntp60
Rp61
(lp62
I0
aI0
aI0
aI1
ababsg27
F11.875
sg28
(lp63
sg30
I00
sg31
g1
(g8
g3
Ntp64
Rp65
(lp66
I18
aI200000000
absg35
F45.67
sbag1
(g2
g3
Ntp67
Rp68
(dp69
g7
g1
(g8
g3
Ntp70
Rp71
(lp72
I38
aI800000000
absg12
S'WayPoint2'
p73
sg14
g1
(g15
g3
Ntp74
Rp75
(lp76
g1
(g19
g3
Ntp77
Rp78
(lp79
F-3.1999999999999993
aF-3.349999999999998
aF0.0
abag1
(g23
g3
Ntp80
Rp81
(lp82
I0
aI0
aI0
aI1
ababsg27
F0.0
sg28
(lp83
g1
(cdestination
Observation
p84
g3
Ntp85
Rp86
(dp87
S'idleness'
p88
g1
(cdestination
Idleness
p89
g3
Ntp90
Rp91
(dp92
S'_Idleness__true_idl'
p93
F38.8
sS'_Idleness__estim_idl'
p94
F27.26
sS'_Idleness__remaining_idl'
p95
F35.399
sbsg27
F7.089
sbasg30
I01
sg31
g71
sg35
I0
sbag1
(g2
g3
Ntp96
Rp97
(dp98
g7
g1
(g8
g3
Ntp99
Rp100
(lp101
I31
aI400000000
absg12
S'WayPoint3'
p102
sg14
g1
(g15
g3
Ntp103
Rp104
(lp105
g1
(g19
g3
Ntp106
Rp107
(lp108
F0.0
aF-3.349999999999998
aF0.0
abag1
(g23
g3
Ntp109
Rp110
(lp111
I0
aI0
aI0
aI1
ababsg27
F9.679
sg28
(lp112
g1
(g84
g3
Ntp113
Rp114
(dp115
g88
g1
(g89
g3
Ntp116
Rp117
(dp118
g93
F31.4
sg94
F25.97
sg95
F28.995
sbsg27
F6.752
sbasg30
I00
sg31
g1
(g8
g3
Ntp119
Rp120
(lp121
I39
aI803000000
absg35
F37.23
sbag1
(g2
g3
Ntp122
Rp123
(dp124
g7
g1
(g8
g3
Ntp125
Rp126
(lp127
I30
aI201000000
absg12
S'WayPoint4'
p128
sg14
g1
(g15
g3
Ntp129
Rp130
(lp131
g1
(g19
g3
Ntp132
Rp133
(lp134
F2.3500000000000014
aF-3.2499999999999982
aF0.0
abag1
(g23
g3
Ntp135
Rp136
(lp137
I0
aI0
aI0
aI1
ababsg27
F6.558
sg28
(lp138
g1
(g84
g3
Ntp139
Rp140
(dp141
g88
g1
(g89
g3
Ntp142
Rp143
(dp144
g93
F30.201
sg94
F25.48
sg95
F26.001
sbsg27
F6.624
sbasg30
I00
sg31
g1
(g8
g3
Ntp145
Rp146
(lp147
I32
aI0
absg35
F25.22
sbag1
(g2
g3
Ntp148
Rp149
(dp150
g7
g10
sg12
S'WayPoint5'
p151
sg14
g1
(g15
g3
Ntp152
Rp153
(lp154
g1
(g19
g3
Ntp155
Rp156
(lp157
F5.4
aF-3.4499999999999975
aF0.0
abag1
(g23
g3
Ntp158
Rp159
(lp160
I0
aI0
aI0
aI1
ababsg27
F0.0
sg28
(lp161
sg30
I01
sg31
g10
sg35
I0
sbag1
(g2
g3
Ntp162
Rp163
(dp164
g7
g1
(g8
g3
Ntp165
Rp166
(lp167
I16
aI0
absg12
S'WayPoint6'
p168
sg14
g1
(g15
g3
Ntp169
Rp170
(lp171
g1
(g19
g3
Ntp172
Rp173
(lp174
F4.850000000000001
aF-0.7499999999999982
aF0.0
abag1
(g23
g3
Ntp175
Rp176
(lp177
I0
aI0
aI0
aI1
ababsg27
F0.0
sg28
(lp178
g1
(g84
g3
Ntp179
Rp180
(dp181
g88
g1
(g89
g3
Ntp182
Rp183
(dp184
g93
F16.0
sg94
F16.46
sg95
F12.0
sbsg27
F4.278
sbasg30
I01
sg31
g166
sg35
I0
sbag1
(g2
g3
Ntp185
Rp186
(dp187
g7
g10
sg12
S'WayPoint7'
p188
sg14
g1
(g15
g3
Ntp189
Rp190
(lp191
g1
(g19
g3
Ntp192
Rp193
(lp194
F1.0500000000000007
aF-0.6999999999999975
aF0.0
abag1
(g23
g3
Ntp195
Rp196
(lp197
I0
aI0
aI0
aI1
ababsg27
F7.737
sg28
(lp198
sg30
I00
sg31
g1
(g8
g3
Ntp199
Rp200
(lp201
I4
aI0
absg35
F29.76
sbag1
(g2
g3
Ntp202
Rp203
(dp204
g7
g1
(g8
g3
Ntp205
Rp206
(lp207
I17
aI204000000
absg12
S'WayPoint8'
p208
sg14
g1
(g15
g3
Ntp209
Rp210
(lp211
g1
(g19
g3
Ntp212
Rp213
(lp214
F-3.05
aF-0.5999999999999979
aF0.0
abag1
(g23
g3
Ntp215
Rp216
(lp217
I0
aI0
aI0
aI1
ababsg27
F0.0
sg28
(lp218
g1
(g84
g3
Ntp219
Rp220
(dp221
g88
g1
(g89
g3
Ntp222
Rp223
(dp224
g93
F17.204
sg94
F13.24
sg95
F13.004
sbsg27
F3.442
sbasg30
I01
sg31
g206
sg35
I0
sbag1
(g2
g3
Ntp225
Rp226
(dp227
g7
g10
sg12
S'WayPoint9'
p228
sg14
g1
(g15
g3
Ntp229
Rp230
(lp231
g1
(g19
g3
Ntp232
Rp233
(lp234
F-1.5
aF2.700000000000003
aF0.0
abag1
(g23
g3
Ntp235
Rp236
(lp237
I0
aI0
aI0
aI1
ababsg27
F10.806
sg28
(lp238
sg30
I00
sg31
g1
(g8
g3
Ntp239
Rp240
(lp241
I17
aI0
absg35
F41.56
sba.