(lp0
ccopy_reg
_reconstructor
p1
(cdestination
Destination
p2
c__builtin__
object
p3
Ntp4
Rp5
(dp6
S'_Destination__latest_usage'
p7
g1
(crospy.rostime
Time
p8
g3
Ntp9
Rp10
(lp11
I0
aI0
absS'name'
p12
S'WayPoint1'
p13
sS'pose'
p14
g1
(cgeometry_msgs.msg._Pose
Pose
p15
g3
Ntp16
Rp17
(lp18
g1
(cgeometry_msgs.msg._Point
Point
p19
g3
Ntp20
Rp21
(lp22
F-6.75
aF-2.6999999999999975
aF0.0
abag1
(cgeometry_msgs.msg._Quaternion
Quaternion
p23
g3
Ntp24
Rp25
(lp26
I0
aI0
aI0
aI1
ababsS'path_len'
p27
F15.753
sS'_Destination__stats'
p28
(lp29
sS'_Destination__available'
p30
I00
sS'_Destination__remaining_idl'
p31
g1
(g8
g3
Ntp32
Rp33
(lp34
I4
aI200000000
absS'estim_idl'
p35
F60.59
sbag1
(g2
g3
Ntp36
Rp37
(dp38
g7
g10
sg12
S'WayPoint10'
p39
sg14
g1
(g15
g3
Ntp40
Rp41
(lp42
g1
(g19
g3
Ntp43
Rp44
(lp45
F1.8500000000000014
aF2.8500000000000023
aF0.0
abag1
(g23
g3
Ntp46
Rp47
(lp48
I0
aI0
aI0
aI1
ababsg27
F0.0
sg28
(lp49
sg30
I01
sg31
g10
sg35
I0
sbag1
(g2
g3
Ntp50
Rp51
(dp52
g7
g1
(g8
g3
Ntp53
Rp54
(lp55
I54
aI202000000
absg12
S'WayPoint11'
p56
sg14
g1
(g15
g3
Ntp57
Rp58
(lp59
g1
(g19
g3
Ntp60
Rp61
(lp62
F6.600000000000001
aF3.450000000000003
aF0.0
abag1
(g23
g3
Ntp63
Rp64
(lp65
I0
aI0
aI0
aI1
ababsg27
F0.0
sg28
(lp66
g1
(cdestination
Observation
p67
g3
Ntp68
Rp69
(dp70
S'idleness'
p71
g1
(cdestination
Idleness
p72
g3
Ntp73
Rp74
(dp75
S'_Idleness__true_idl'
p76
F54.202
sS'_Idleness__estim_idl'
p77
F40.75
sS'_Idleness__remaining_idl'
p78
F50.002
sbsg27
F10.596
sbasg30
I01
sg31
g54
sg35
I0
sbag1
(g2
g3
Ntp79
Rp80
(dp81
g7
g10
sg12
S'WayPoint2'
p82
sg14
g1
(g15
g3
Ntp83
Rp84
(lp85
g1
(g19
g3
Ntp86
Rp87
(lp88
F-3.1999999999999993
aF-3.349999999999998
aF0.0
abag1
(g23
g3
Ntp89
Rp90
(lp91
I0
aI0
aI0
aI1
ababsg27
F7.23
sg28
(lp92
sg30
I00
sg31
g1
(g8
g3
Ntp93
Rp94
(lp95
I56
aI0
absg35
F27.81
sbag1
(g2
g3
Ntp96
Rp97
(dp98
g7
g10
sg12
S'WayPoint3'
p99
sg14
g1
(g15
g3
Ntp100
Rp101
(lp102
g1
(g19
g3
Ntp103
Rp104
(lp105
F0.0
aF-3.349999999999998
aF0.0
abag1
(g23
g3
Ntp106
Rp107
(lp108
I0
aI0
aI0
aI1
ababsg27
F9.194
sg28
(lp109
sg30
I00
sg31
g1
(g8
g3
Ntp110
Rp111
(lp112
I3
aI400000000
absg35
F35.36
sbag1
(g2
g3
Ntp113
Rp114
(dp115
g7
g10
sg12
S'WayPoint4'
p116
sg14
g1
(g15
g3
Ntp117
Rp118
(lp119
g1
(g19
g3
Ntp120
Rp121
(lp122
F2.3500000000000014
aF-3.2499999999999982
aF0.0
abag1
(g23
g3
Ntp123
Rp124
(lp125
I0
aI0
aI0
aI1
ababsg27
F9.176
sg28
(lp126
sg30
I00
sg31
g1
(g8
g3
Ntp127
Rp128
(lp129
I55
aI200000000
absg35
F35.29
sbag1
(g2
g3
Ntp130
Rp131
(dp132
g7
g10
sg12
S'WayPoint5'
p133
sg14
g1
(g15
g3
Ntp134
Rp135
(lp136
g1
(g19
g3
Ntp137
Rp138
(lp139
F5.4
aF-3.4499999999999975
aF0.0
abag1
(g23
g3
Ntp140
Rp141
(lp142
I0
aI0
aI0
aI1
ababsg27
F8.783
sg28
(lp143
sg30
I00
sg31
g1
(g8
g3
Ntp144
Rp145
(lp146
I4
aI0
absg35
F33.78
sbag1
(g2
g3
Ntp147
Rp148
(dp149
g7
g1
(g8
g3
Ntp150
Rp151
(lp152
I50
aI200000000
absg12
S'WayPoint6'
p153
sg14
g1
(g15
g3
Ntp154
Rp155
(lp156
g1
(g19
g3
Ntp157
Rp158
(lp159
F4.850000000000001
aF-0.7499999999999982
aF0.0
abag1
(g23
g3
Ntp160
Rp161
(lp162
I0
aI0
aI0
aI1
ababsg27
F0.0
sg28
(lp163
g1
(g67
g3
Ntp164
Rp165
(dp166
g71
g1
(g72
g3
Ntp167
Rp168
(dp169
g76
F50.2
sg77
F44.03
sg78
F46.0
sbsg27
F11.448
sbasg30
I01
sg31
g151
sg35
I0
sbag1
(g2
g3
Ntp170
Rp171
(dp172
g7
g10
sg12
S'WayPoint7'
p173
sg14
g1
(g15
g3
Ntp174
Rp175
(lp176
g1
(g19
g3
Ntp177
Rp178
(lp179
F1.0500000000000007
aF-0.6999999999999975
aF0.0
abag1
(g23
g3
Ntp180
Rp181
(lp182
I0
aI0
aI0
aI1
ababsg27
F4.08
sg28
(lp183
sg30
I00
sg31
g1
(g8
g3
Ntp184
Rp185
(lp186
I51
aI200000000
absg35
F15.69
sbag1
(g2
g3
Ntp187
Rp188
(dp189
g7
g10
sg12
S'WayPoint8'
p190
sg14
g1
(g15
g3
Ntp191
Rp192
(lp193
g1
(g19
g3
Ntp194
Rp195
(lp196
F-3.05
aF-0.5999999999999979
aF0.0
abag1
(g23
g3
Ntp197
Rp198
(lp199
I0
aI0
aI0
aI1
ababsg27
F0.0
sg28
(lp200
sg30
I01
sg31
g10
sg35
I0
sbag1
(g2
g3
Ntp201
Rp202
(dp203
g7
g1
(g8
g3
Ntp204
Rp205
(lp206
I55
aI400000000
absg12
S'WayPoint9'
p207
sg14
g1
(g15
g3
Ntp208
Rp209
(lp210
g1
(g19
g3
Ntp211
Rp212
(lp213
F-1.5
aF2.700000000000003
aF0.0
abag1
(g23
g3
Ntp214
Rp215
(lp216
I0
aI0
aI0
aI1
ababsg27
F0.0
sg28
(lp217
g1
(g67
g3
Ntp218
Rp219
(dp220
g71
g1
(g72
g3
Ntp221
Rp222
(dp223
g76
F55.4
sg77
F37.99
sg78
F52.0
sbsg27
F9.876
sbasg30
I01
sg31
g205
sg35
I0
sba.