(lp0
ccopy_reg
_reconstructor
p1
(cdestination
Destination
p2
c__builtin__
object
p3
Ntp4
Rp5
(dp6
S'_Destination__latest_usage'
p7
g1
(crospy.rostime
Time
p8
g3
Ntp9
Rp10
(lp11
I52
aI1000000
absS'name'
p12
S'WayPoint1'
p13
sS'pose'
p14
g1
(cgeometry_msgs.msg._Pose
Pose
p15
g3
Ntp16
Rp17
(lp18
g1
(cgeometry_msgs.msg._Point
Point
p19
g3
Ntp20
Rp21
(lp22
F-6.75
aF-2.6999999999999975
aF0.0
abag1
(cgeometry_msgs.msg._Quaternion
Quaternion
p23
g3
Ntp24
Rp25
(lp26
I0
aI0
aI0
aI1
ababsS'path_len'
p27
F11.482
sS'_Destination__stats'
p28
(lp29
g1
(cdestination
Observation
p30
g3
Ntp31
Rp32
(dp33
S'idleness'
p34
g1
(cdestination
Idleness
p35
g3
Ntp36
Rp37
(dp38
S'_Idleness__true_idl'
p39
F52.001
sS'_Idleness__estim_idl'
p40
F44.13
sS'_Idleness__remaining_idl'
p41
F48.001
sbsg27
F11.473
sbasS'_Destination__available'
p42
I00
sS'_Destination__remaining_idl'
p43
g1
(g8
g3
Ntp44
Rp45
(lp46
I60
aI0
absS'estim_idl'
p47
F44.16
sbag1
(g2
g3
Ntp48
Rp49
(dp50
g7
g1
(g8
g3
Ntp51
Rp52
(lp53
I0
aI0
absg12
S'WayPoint10'
p54
sg14
g1
(g15
g3
Ntp55
Rp56
(lp57
g1
(g19
g3
Ntp58
Rp59
(lp60
F1.8500000000000014
aF2.8500000000000023
aF0.0
abag1
(g23
g3
Ntp61
Rp62
(lp63
I0
aI0
aI0
aI1
ababsg27
F0.0
sg28
(lp64
sg42
I01
sg43
g52
sg47
I0
sbag1
(g2
g3
Ntp65
Rp66
(dp67
g7
g52
sg12
S'WayPoint11'
p68
sg14
g1
(g15
g3
Ntp69
Rp70
(lp71
g1
(g19
g3
Ntp72
Rp73
(lp74
F6.600000000000001
aF3.450000000000003
aF0.0
abag1
(g23
g3
Ntp75
Rp76
(lp77
I0
aI0
aI0
aI1
ababsg27
F0.0
sg28
(lp78
sg42
I01
sg43
g52
sg47
I0
sbag1
(g2
g3
Ntp79
Rp80
(dp81
g7
g52
sg12
S'WayPoint2'
p82
sg14
g1
(g15
g3
Ntp83
Rp84
(lp85
g1
(g19
g3
Ntp86
Rp87
(lp88
F-3.1999999999999993
aF-3.349999999999998
aF0.0
abag1
(g23
g3
Ntp89
Rp90
(lp91
I0
aI0
aI0
aI1
ababsg27
F7.464
sg28
(lp92
sg42
I00
sg43
g1
(g8
g3
Ntp93
Rp94
(lp95
I21
aI0
absg47
F28.71
sbag1
(g2
g3
Ntp96
Rp97
(dp98
g7
g1
(g8
g3
Ntp99
Rp100
(lp101
I59
aI0
absg12
S'WayPoint3'
p102
sg14
g1
(g15
g3
Ntp103
Rp104
(lp105
g1
(g19
g3
Ntp106
Rp107
(lp108
F0.0
aF-3.349999999999998
aF0.0
abag1
(g23
g3
Ntp109
Rp110
(lp111
I0
aI0
aI0
aI1
ababsg27
F0.0
sg28
(lp112
g1
(g30
g3
Ntp113
Rp114
(dp115
g34
g1
(g35
g3
Ntp116
Rp117
(dp118
g39
F59.0
sg40
F37.38
sg41
F55.0
sbsg27
F9.719
sbasg42
I01
sg43
g100
sg47
I0
sbag1
(g2
g3
Ntp119
Rp120
(dp121
g7
g52
sg12
S'WayPoint4'
p122
sg14
g1
(g15
g3
Ntp123
Rp124
(lp125
g1
(g19
g3
Ntp126
Rp127
(lp128
F2.3500000000000014
aF-3.2499999999999982
aF0.0
abag1
(g23
g3
Ntp129
Rp130
(lp131
I0
aI0
aI0
aI1
ababsg27
F13.126
sg28
(lp132
sg42
I00
sg43
g1
(g8
g3
Ntp133
Rp134
(lp135
I53
aI0
absg47
F50.49
sbag1
(g2
g3
Ntp136
Rp137
(dp138
g7
g52
sg12
S'WayPoint5'
p139
sg14
g1
(g15
g3
Ntp140
Rp141
(lp142
g1
(g19
g3
Ntp143
Rp144
(lp145
F5.4
aF-3.4499999999999975
aF0.0
abag1
(g23
g3
Ntp146
Rp147
(lp148
I0
aI0
aI0
aI1
ababsg27
F13.557
sg28
(lp149
sg42
I00
sg43
g1
(g8
g3
Ntp150
Rp151
(lp152
I2
aI601000000
absg47
F52.14
sbag1
(g2
g3
Ntp153
Rp154
(dp155
g7
g52
sg12
S'WayPoint6'
p156
sg14
g1
(g15
g3
Ntp157
Rp158
(lp159
g1
(g19
g3
Ntp160
Rp161
(lp162
F4.850000000000001
aF-0.7499999999999982
aF0.0
abag1
(g23
g3
Ntp163
Rp164
(lp165
I0
aI0
aI0
aI1
ababsg27
F5.667
sg28
(lp166
sg42
I00
sg43
g1
(g8
g3
Ntp167
Rp168
(lp169
I2
aI800000000
absg47
F21.79
sbag1
(g2
g3
Ntp170
Rp171
(dp172
g7
g1
(g8
g3
Ntp173
Rp174
(lp175
I20
aI601000000
absg12
S'WayPoint7'
p176
sg14
g1
(g15
g3
Ntp177
Rp178
(lp179
g1
(g19
g3
Ntp180
Rp181
(lp182
F1.0500000000000007
aF-0.6999999999999975
aF0.0
abag1
(g23
g3
Ntp183
Rp184
(lp185
I0
aI0
aI0
aI1
ababsg27
F0.0
sg28
(lp186
g1
(g30
g3
Ntp187
Rp188
(dp189
g34
g1
(g35
g3
Ntp190
Rp191
(dp192
g39
F20.601
sg40
F15.13
sg41
F18.0
sbsg27
F3.933
sbasg42
I01
sg43
g174
sg47
I0
sbag1
(g2
g3
Ntp193
Rp194
(dp195
g7
g52
sg12
S'WayPoint8'
p196
sg14
g1
(g15
g3
Ntp197
Rp198
(lp199
g1
(g19
g3
Ntp200
Rp201
(lp202
F-3.05
aF-0.5999999999999979
aF0.0
abag1
(g23
g3
Ntp203
Rp204
(lp205
I0
aI0
aI0
aI1
ababsg27
F0.0
sg28
(lp206
sg42
I01
sg43
g52
sg47
I0
sbag1
(g2
g3
Ntp207
Rp208
(dp209
g7
g52
sg12
S'WayPoint9'
p210
sg14
g1
(g15
g3
Ntp211
Rp212
(lp213
g1
(g19
g3
Ntp214
Rp215
(lp216
F-1.5
aF2.700000000000003
aF0.0
abag1
(g23
g3
Ntp217
Rp218
(lp219
I0
aI0
aI0
aI1
ababsg27
F13.5
sg28
(lp220
sg42
I00
sg43
g1
(g8
g3
Ntp221
Rp222
(lp223
I4
aI0
absg47
F51.92
sba.