(lp0
ccopy_reg
_reconstructor
p1
(cdestination
Destination
p2
c__builtin__
object
p3
Ntp4
Rp5
(dp6
S'_Destination__latest_usage'
p7
g1
(crospy.rostime
Time
p8
g3
Ntp9
Rp10
(lp11
I0
aI0
absS'name'
p12
S'WayPoint1'
p13
sS'pose'
p14
g1
(cgeometry_msgs.msg._Pose
Pose
p15
g3
Ntp16
Rp17
(lp18
g1
(cgeometry_msgs.msg._Point
Point
p19
g3
Ntp20
Rp21
(lp22
F-6.75
aF-2.6999999999999975
aF0.0
abag1
(cgeometry_msgs.msg._Quaternion
Quaternion
p23
g3
Ntp24
Rp25
(lp26
I0
aI0
aI0
aI1
ababsS'path_len'
p27
F12.12
sS'_Destination__stats'
p28
(lp29
sS'_Destination__available'
p30
I00
sS'_Destination__remaining_idl'
p31
g1
(g8
g3
Ntp32
Rp33
(lp34
I2
aI600000000
absS'estim_idl'
p35
F46.61
sbag1
(g2
g3
Ntp36
Rp37
(dp38
g7
g10
sg12
S'WayPoint10'
p39
sg14
g1
(g15
g3
Ntp40
Rp41
(lp42
g1
(g19
g3
Ntp43
Rp44
(lp45
F1.8500000000000014
aF2.8500000000000023
aF0.0
abag1
(g23
g3
Ntp46
Rp47
(lp48
I0
aI0
aI0
aI1
ababsg27
F11.292
sg28
(lp49
sg30
I00
sg31
g1
(g8
g3
Ntp50
Rp51
(lp52
I3
aI200000000
absg35
F43.43
sbag1
(g2
g3
Ntp53
Rp54
(dp55
g7
g10
sg12
S'WayPoint11'
p56
sg14
g1
(g15
g3
Ntp57
Rp58
(lp59
g1
(g19
g3
Ntp60
Rp61
(lp62
F6.600000000000001
aF3.450000000000003
aF0.0
abag1
(g23
g3
Ntp63
Rp64
(lp65
I0
aI0
aI0
aI1
ababsg27
F14.522
sg28
(lp66
sg30
I00
sg31
g33
sg35
F55.85
sbag1
(g2
g3
Ntp67
Rp68
(dp69
g7
g10
sg12
S'WayPoint2'
p70
sg14
g1
(g15
g3
Ntp71
Rp72
(lp73
g1
(g19
g3
Ntp74
Rp75
(lp76
F-3.1999999999999993
aF-3.349999999999998
aF0.0
abag1
(g23
g3
Ntp77
Rp78
(lp79
I0
aI0
aI0
aI1
ababsg27
F14.055
sg28
(lp80
sg30
I00
sg31
g1
(g8
g3
Ntp81
Rp82
(lp83
I3
aI0
absg35
F54.06
sbag1
(g2
g3
Ntp84
Rp85
(dp86
g7
g10
sg12
S'WayPoint3'
p87
sg14
g1
(g15
g3
Ntp88
Rp89
(lp90
g1
(g19
g3
Ntp91
Rp92
(lp93
F0.0
aF-3.349999999999998
aF0.0
abag1
(g23
g3
Ntp94
Rp95
(lp96
I0
aI0
aI0
aI1
ababsg27
F9.719
sg28
(lp97
sg30
I00
sg31
g1
(g8
g3
Ntp98
Rp99
(lp100
I2
aI800000000
absg35
F37.38
sbag1
(g2
g3
Ntp101
Rp102
(dp103
g7
g10
sg12
S'WayPoint4'
p104
sg14
g1
(g15
g3
Ntp105
Rp106
(lp107
g1
(g19
g3
Ntp108
Rp109
(lp110
F2.3500000000000014
aF-3.2499999999999982
aF0.0
abag1
(g23
g3
Ntp111
Rp112
(lp113
I0
aI0
aI0
aI1
ababsg27
F0.0
sg28
(lp114
sg30
I01
sg31
g10
sg35
I0
sbag1
(g2
g3
Ntp115
Rp116
(dp117
g7
g10
sg12
S'WayPoint5'
p118
sg14
g1
(g15
g3
Ntp119
Rp120
(lp121
g1
(g19
g3
Ntp122
Rp123
(lp124
F5.4
aF-3.4499999999999975
aF0.0
abag1
(g23
g3
Ntp125
Rp126
(lp127
I0
aI0
aI0
aI1
ababsg27
F0.0
sg28
(lp128
sg30
I01
sg31
g10
sg35
I0
sbag1
(g2
g3
Ntp129
Rp130
(dp131
g7
g10
sg12
S'WayPoint6'
p132
sg14
g1
(g15
g3
Ntp133
Rp134
(lp135
g1
(g19
g3
Ntp136
Rp137
(lp138
F4.850000000000001
aF-0.7499999999999982
aF0.0
abag1
(g23
g3
Ntp139
Rp140
(lp141
I0
aI0
aI0
aI1
ababsg27
F6.857
sg28
(lp142
sg30
I00
sg31
g51
sg35
F26.37
sbag1
(g2
g3
Ntp143
Rp144
(dp145
g7
g10
sg12
S'WayPoint7'
p146
sg14
g1
(g15
g3
Ntp147
Rp148
(lp149
g1
(g19
g3
Ntp150
Rp151
(lp152
F1.0500000000000007
aF-0.6999999999999975
aF0.0
abag1
(g23
g3
Ntp153
Rp154
(lp155
I0
aI0
aI0
aI1
ababsg27
F0.0
sg28
(lp156
sg30
I01
sg31
g10
sg35
I0
sbag1
(g2
g3
Ntp157
Rp158
(dp159
g7
g10
sg12
S'WayPoint8'
p160
sg14
g1
(g15
g3
Ntp161
Rp162
(lp163
g1
(g19
g3
Ntp164
Rp165
(lp166
F-3.05
aF-0.5999999999999979
aF0.0
abag1
(g23
g3
Ntp167
Rp168
(lp169
I0
aI0
aI0
aI1
ababsg27
F0.0
sg28
(lp170
sg30
I01
sg31
g10
sg35
I0
sbag1
(g2
g3
Ntp171
Rp172
(dp173
g7
g10
sg12
S'WayPoint9'
p174
sg14
g1
(g15
g3
Ntp175
Rp176
(lp177
g1
(g19
g3
Ntp178
Rp179
(lp180
F-1.5
aF2.700000000000003
aF0.0
abag1
(g23
g3
Ntp181
Rp182
(lp183
I0
aI0
aI0
aI1
ababsg27
F0.0
sg28
(lp184
sg30
I01
sg31
g10
sg35
I0
sba.