(lp0
ccopy_reg
_reconstructor
p1
(cdestination
Destination
p2
c__builtin__
object
p3
Ntp4
Rp5
(dp6
S'_Destination__latest_usage'
p7
g1
(crospy.rostime
Time
p8
g3
Ntp9
Rp10
(lp11
I0
aI0
absS'name'
p12
S'WayPoint1'
p13
sS'pose'
p14
g1
(cgeometry_msgs.msg._Pose
Pose
p15
g3
Ntp16
Rp17
(lp18
g1
(cgeometry_msgs.msg._Point
Point
p19
g3
Ntp20
Rp21
(lp22
F-6.75
aF-2.6999999999999975
aF0.0
abag1
(cgeometry_msgs.msg._Quaternion
Quaternion
p23
g3
Ntp24
Rp25
(lp26
I0
aI0
aI0
aI1
ababsS'path_len'
p27
F7.484
sS'_Destination__stats'
p28
(lp29
sS'_Destination__available'
p30
I00
sS'_Destination__remaining_idl'
p31
g1
(g8
g3
Ntp32
Rp33
(lp34
I2
aI800000000
absS'estim_idl'
p35
F28.78
sbag1
(g2
g3
Ntp36
Rp37
(dp38
g7
g10
sg12
S'WayPoint10'
p39
sg14
g1
(g15
g3
Ntp40
Rp41
(lp42
g1
(g19
g3
Ntp43
Rp44
(lp45
F1.8500000000000014
aF2.8500000000000023
aF0.0
abag1
(g23
g3
Ntp46
Rp47
(lp48
I0
aI0
aI0
aI1
ababsg27
F3.958
sg28
(lp49
sg30
I00
sg31
g1
(g8
g3
Ntp50
Rp51
(lp52
I14
aI0
absg35
F15.22
sbag1
(g2
g3
Ntp53
Rp54
(dp55
g7
g10
sg12
S'WayPoint11'
p56
sg14
g1
(g15
g3
Ntp57
Rp58
(lp59
g1
(g19
g3
Ntp60
Rp61
(lp62
F6.600000000000001
aF3.450000000000003
aF0.0
abag1
(g23
g3
Ntp63
Rp64
(lp65
I0
aI0
aI0
aI1
ababsg27
F0.0
sg28
(lp66
sg30
I01
sg31
g10
sg35
I0
sbag1
(g2
g3
Ntp67
Rp68
(dp69
g7
g1
(g8
g3
Ntp70
Rp71
(lp72
I53
aI604000000
absg12
S'WayPoint2'
p73
sg14
g1
(g15
g3
Ntp74
Rp75
(lp76
g1
(g19
g3
Ntp77
Rp78
(lp79
F-3.1999999999999993
aF-3.349999999999998
aF0.0
abag1
(g23
g3
Ntp80
Rp81
(lp82
I0
aI0
aI0
aI1
ababsg27
F0.0
sg28
(lp83
g1
(cdestination
Observation
p84
g3
Ntp85
Rp86
(dp87
S'idleness'
p88
g1
(cdestination
Idleness
p89
g3
Ntp90
Rp91
(dp92
S'_Idleness__true_idl'
p93
F53.604
sS'_Idleness__estim_idl'
p94
F40.15
sS'_Idleness__remaining_idl'
p95
F51.003
sbsg27
F10.439
sbasg30
I01
sg31
g71
sg35
I0
sbag1
(g2
g3
Ntp96
Rp97
(dp98
g7
g1
(g8
g3
Ntp99
Rp100
(lp101
I44
aI2000000
absg12
S'WayPoint3'
p102
sg14
g1
(g15
g3
Ntp103
Rp104
(lp105
g1
(g19
g3
Ntp106
Rp107
(lp108
F0.0
aF-3.349999999999998
aF0.0
abag1
(g23
g3
Ntp109
Rp110
(lp111
I0
aI0
aI0
aI1
ababsg27
F0.0
sg28
(lp112
g1
(g84
g3
Ntp113
Rp114
(dp115
g88
g1
(g89
g3
Ntp116
Rp117
(dp118
g93
F44.002
sg94
F36.63
sg95
F41.002
sbsg27
F9.525
sbasg30
I01
sg31
g100
sg35
I0
sbag1
(g2
g3
Ntp119
Rp120
(dp121
g7
g10
sg12
S'WayPoint4'
p122
sg14
g1
(g15
g3
Ntp123
Rp124
(lp125
g1
(g19
g3
Ntp126
Rp127
(lp128
F2.3500000000000014
aF-3.2499999999999982
aF0.0
abag1
(g23
g3
Ntp129
Rp130
(lp131
I0
aI0
aI0
aI1
ababsg27
F9.176
sg28
(lp132
sg30
I00
sg31
g33
sg35
F35.29
sbag1
(g2
g3
Ntp133
Rp134
(dp135
g7
g10
sg12
S'WayPoint5'
p136
sg14
g1
(g15
g3
Ntp137
Rp138
(lp139
g1
(g19
g3
Ntp140
Rp141
(lp142
F5.4
aF-3.4499999999999975
aF0.0
abag1
(g23
g3
Ntp143
Rp144
(lp145
I0
aI0
aI0
aI1
ababsg27
F9.634
sg28
(lp146
sg30
I00
sg31
g1
(g8
g3
Ntp147
Rp148
(lp149
I45
aI1000000
absg35
F37.05
sbag1
(g2
g3
Ntp150
Rp151
(dp152
g7
g10
sg12
S'WayPoint6'
p153
sg14
g1
(g15
g3
Ntp154
Rp155
(lp156
g1
(g19
g3
Ntp157
Rp158
(lp159
F4.850000000000001
aF-0.7499999999999982
aF0.0
abag1
(g23
g3
Ntp160
Rp161
(lp162
I0
aI0
aI0
aI1
ababsg27
F11.746
sg28
(lp163
sg30
I00
sg31
g1
(g8
g3
Ntp164
Rp165
(lp166
I54
aI202000000
absg35
F45.18
sbag1
(g2
g3
Ntp167
Rp168
(dp169
g7
g1
(g8
g3
Ntp170
Rp171
(lp172
I13
aI401000000
absg12
S'WayPoint7'
p173
sg14
g1
(g15
g3
Ntp174
Rp175
(lp176
g1
(g19
g3
Ntp177
Rp178
(lp179
F1.0500000000000007
aF-0.6999999999999975
aF0.0
abag1
(g23
g3
Ntp180
Rp181
(lp182
I0
aI0
aI0
aI1
ababsg27
F0.0
sg28
(lp183
g1
(g84
g3
Ntp184
Rp185
(dp186
g88
g1
(g89
g3
Ntp187
Rp188
(dp189
g93
F13.401
sg94
F11.62
sg95
F10.999
sbsg27
F3.022
sbasg30
I01
sg31
g171
sg35
I0
sbag1
(g2
g3
Ntp190
Rp191
(dp192
g7
g10
sg12
S'WayPoint8'
p193
sg14
g1
(g15
g3
Ntp194
Rp195
(lp196
g1
(g19
g3
Ntp197
Rp198
(lp199
F-3.05
aF-0.5999999999999979
aF0.0
abag1
(g23
g3
Ntp200
Rp201
(lp202
I0
aI0
aI0
aI1
ababsg27
F3.797
sg28
(lp203
sg30
I00
sg31
g33
sg35
F14.6
sbag1
(g2
g3
Ntp204
Rp205
(dp206
g7
g10
sg12
S'WayPoint9'
p207
sg14
g1
(g15
g3
Ntp208
Rp209
(lp210
g1
(g19
g3
Ntp211
Rp212
(lp213
F-1.5
aF2.700000000000003
aF0.0
abag1
(g23
g3
Ntp214
Rp215
(lp216
I0
aI0
aI0
aI1
ababsg27
F0.0
sg28
(lp217
sg30
I01
sg31
g10
sg35
I0
sba.