(lp0
ccopy_reg
_reconstructor
p1
(cdestination
Destination
p2
c__builtin__
object
p3
Ntp4
Rp5
(dp6
S'_Destination__latest_usage'
p7
g1
(crospy.rostime
Time
p8
g3
Ntp9
Rp10
(lp11
I0
aI0
absS'name'
p12
S'WayPoint1'
p13
sS'pose'
p14
g1
(cgeometry_msgs.msg._Pose
Pose
p15
g3
Ntp16
Rp17
(lp18
g1
(cgeometry_msgs.msg._Point
Point
p19
g3
Ntp20
Rp21
(lp22
F-6.75
aF-2.6999999999999975
aF0.0
abag1
(cgeometry_msgs.msg._Quaternion
Quaternion
p23
g3
Ntp24
Rp25
(lp26
I0
aI0
aI0
aI1
ababsS'path_len'
p27
F7.491
sS'_Destination__stats'
p28
(lp29
sS'_Destination__available'
p30
I00
sS'_Destination__remaining_idl'
p31
g1
(g8
g3
Ntp32
Rp33
(lp34
I4
aI200000000
absS'estim_idl'
p35
F28.81
sbag1
(g2
g3
Ntp36
Rp37
(dp38
g7
g10
sg12
S'WayPoint10'
p39
sg14
g1
(g15
g3
Ntp40
Rp41
(lp42
g1
(g19
g3
Ntp43
Rp44
(lp45
F1.8500000000000014
aF2.8500000000000023
aF0.0
abag1
(g23
g3
Ntp46
Rp47
(lp48
I0
aI0
aI0
aI1
ababsg27
F6.797
sg28
(lp49
sg30
I00
sg31
g33
sg35
F26.14
sbag1
(g2
g3
Ntp50
Rp51
(dp52
g7
g10
sg12
S'WayPoint11'
p53
sg14
g1
(g15
g3
Ntp54
Rp55
(lp56
g1
(g19
g3
Ntp57
Rp58
(lp59
F6.600000000000001
aF3.450000000000003
aF0.0
abag1
(g23
g3
Ntp60
Rp61
(lp62
I0
aI0
aI0
aI1
ababsg27
F0.0
sg28
(lp63
sg30
I01
sg31
g10
sg35
I0
sbag1
(g2
g3
Ntp64
Rp65
(dp66
g7
g10
sg12
S'WayPoint2'
p67
sg14
g1
(g15
g3
Ntp68
Rp69
(lp70
g1
(g19
g3
Ntp71
Rp72
(lp73
F-3.1999999999999993
aF-3.349999999999998
aF0.0
abag1
(g23
g3
Ntp74
Rp75
(lp76
I0
aI0
aI0
aI1
ababsg27
F0.0
sg28
(lp77
sg30
I01
sg31
g10
sg35
I0
sbag1
(g2
g3
Ntp78
Rp79
(dp80
g7
g10
sg12
S'WayPoint3'
p81
sg14
g1
(g15
g3
Ntp82
Rp83
(lp84
g1
(g19
g3
Ntp85
Rp86
(lp87
F0.0
aF-3.349999999999998
aF0.0
abag1
(g23
g3
Ntp88
Rp89
(lp90
I0
aI0
aI0
aI1
ababsg27
F0.0
sg28
(lp91
sg30
I01
sg31
g10
sg35
I0
sbag1
(g2
g3
Ntp92
Rp93
(dp94
g7
g1
(g8
g3
Ntp95
Rp96
(lp97
I49
aI200000000
absg12
S'WayPoint4'
p98
sg14
g1
(g15
g3
Ntp99
Rp100
(lp101
g1
(g19
g3
Ntp102
Rp103
(lp104
F2.3500000000000014
aF-3.2499999999999982
aF0.0
abag1
(g23
g3
Ntp105
Rp106
(lp107
I0
aI0
aI0
aI1
ababsg27
F0.0
sg28
(lp108
g1
(cdestination
Observation
p109
g3
Ntp110
Rp111
(dp112
S'idleness'
p113
g1
(cdestination
Idleness
p114
g3
Ntp115
Rp116
(dp117
S'_Idleness__true_idl'
p118
F49.2
sS'_Idleness__estim_idl'
p119
F31.52
sS'_Idleness__remaining_idl'
p120
F45.0
sbsg27
F8.195
sbasg30
I01
sg31
g96
sg35
I0
sbag1
(g2
g3
Ntp121
Rp122
(dp123
g7
g10
sg12
S'WayPoint5'
p124
sg14
g1
(g15
g3
Ntp125
Rp126
(lp127
g1
(g19
g3
Ntp128
Rp129
(lp130
F5.4
aF-3.4499999999999975
aF0.0
abag1
(g23
g3
Ntp131
Rp132
(lp133
I0
aI0
aI0
aI1
ababsg27
F0.0
sg28
(lp134
sg30
I01
sg31
g10
sg35
I0
sbag1
(g2
g3
Ntp135
Rp136
(dp137
g7
g10
sg12
S'WayPoint6'
p138
sg14
g1
(g15
g3
Ntp139
Rp140
(lp141
g1
(g19
g3
Ntp142
Rp143
(lp144
F4.850000000000001
aF-0.7499999999999982
aF0.0
abag1
(g23
g3
Ntp145
Rp146
(lp147
I0
aI0
aI0
aI1
ababsg27
F10.804
sg28
(lp148
sg30
I00
sg31
g1
(g8
g3
Ntp149
Rp150
(lp151
I2
aI600000000
absg35
F41.55
sbag1
(g2
g3
Ntp152
Rp153
(dp154
g7
g10
sg12
S'WayPoint7'
p155
sg14
g1
(g15
g3
Ntp156
Rp157
(lp158
g1
(g19
g3
Ntp159
Rp160
(lp161
F1.0500000000000007
aF-0.6999999999999975
aF0.0
abag1
(g23
g3
Ntp162
Rp163
(lp164
I0
aI0
aI0
aI1
ababsg27
F3.916
sg28
(lp165
sg30
I00
sg31
g1
(g8
g3
Ntp166
Rp167
(lp168
I50
aI200000000
absg35
F15.06
sbag1
(g2
g3
Ntp169
Rp170
(dp171
g7
g10
sg12
S'WayPoint8'
p172
sg14
g1
(g15
g3
Ntp173
Rp174
(lp175
g1
(g19
g3
Ntp176
Rp177
(lp178
F-3.05
aF-0.5999999999999979
aF0.0
abag1
(g23
g3
Ntp179
Rp180
(lp181
I0
aI0
aI0
aI1
ababsg27
F7.214
sg28
(lp182
sg30
I00
sg31
g1
(g8
g3
Ntp183
Rp184
(lp185
I2
aI800000000
absg35
F27.75
sbag1
(g2
g3
Ntp186
Rp187
(dp188
g7
g10
sg12
S'WayPoint9'
p189
sg14
g1
(g15
g3
Ntp190
Rp191
(lp192
g1
(g19
g3
Ntp193
Rp194
(lp195
F-1.5
aF2.700000000000003
aF0.0
abag1
(g23
g3
Ntp196
Rp197
(lp198
I0
aI0
aI0
aI1
ababsg27
F14.475
sg28
(lp199
sg30
I00
sg31
g1
(g8
g3
Ntp200
Rp201
(lp202
I4
aI0
absg35
F55.67
sba.