(lp0
ccopy_reg
_reconstructor
p1
(cdestination
Destination
p2
c__builtin__
object
p3
Ntp4
Rp5
(dp6
S'_Destination__latest_usage'
p7
g1
(crospy.rostime
Time
p8
g3
Ntp9
Rp10
(lp11
I0
aI0
absS'name'
p12
S'WayPoint1'
p13
sS'pose'
p14
g1
(cgeometry_msgs.msg._Pose
Pose
p15
g3
Ntp16
Rp17
(lp18
g1
(cgeometry_msgs.msg._Point
Point
p19
g3
Ntp20
Rp21
(lp22
F-6.75
aF-2.6999999999999975
aF0.0
abag1
(cgeometry_msgs.msg._Quaternion
Quaternion
p23
g3
Ntp24
Rp25
(lp26
I0
aI0
aI0
aI1
ababsS'path_len'
p27
F16.709
sS'_Destination__stats'
p28
(lp29
sS'_Destination__available'
p30
I00
sS'_Destination__remaining_idl'
p31
g1
(g8
g3
Ntp32
Rp33
(lp34
I2
aI400000000
absS'estim_idl'
p35
F64.27
sbag1
(g2
g3
Ntp36
Rp37
(dp38
g7
g10
sg12
S'WayPoint10'
p39
sg14
g1
(g15
g3
Ntp40
Rp41
(lp42
g1
(g19
g3
Ntp43
Rp44
(lp45
F1.8500000000000014
aF2.8500000000000023
aF0.0
abag1
(g23
g3
Ntp46
Rp47
(lp48
I0
aI0
aI0
aI1
ababsg27
F7.258
sg28
(lp49
sg30
I00
sg31
g1
(g8
g3
Ntp50
Rp51
(lp52
I52
aI400000000
absg35
F27.92
sbag1
(g2
g3
Ntp53
Rp54
(dp55
g7
g10
sg12
S'WayPoint11'
p56
sg14
g1
(g15
g3
Ntp57
Rp58
(lp59
g1
(g19
g3
Ntp60
Rp61
(lp62
F6.600000000000001
aF3.450000000000003
aF0.0
abag1
(g23
g3
Ntp63
Rp64
(lp65
I0
aI0
aI0
aI1
ababsg27
F0.0
sg28
(lp66
sg30
I01
sg31
g10
sg35
I0
sbag1
(g2
g3
Ntp67
Rp68
(dp69
g7
g10
sg12
S'WayPoint2'
p70
sg14
g1
(g15
g3
Ntp71
Rp72
(lp73
g1
(g19
g3
Ntp74
Rp75
(lp76
F-3.1999999999999993
aF-3.349999999999998
aF0.0
abag1
(g23
g3
Ntp77
Rp78
(lp79
I0
aI0
aI0
aI1
ababsg27
F11.158
sg28
(lp80
sg30
I00
sg31
g1
(g8
g3
Ntp81
Rp82
(lp83
I27
aI200000000
absg35
F42.91
sbag1
(g2
g3
Ntp84
Rp85
(dp86
g7
g10
sg12
S'WayPoint3'
p87
sg14
g1
(g15
g3
Ntp88
Rp89
(lp90
g1
(g19
g3
Ntp91
Rp92
(lp93
F0.0
aF-3.349999999999998
aF0.0
abag1
(g23
g3
Ntp94
Rp95
(lp96
I0
aI0
aI0
aI1
ababsg27
F9.719
sg28
(lp97
sg30
I00
sg31
g1
(g8
g3
Ntp98
Rp99
(lp100
I2
aI804000000
absg35
F37.38
sbag1
(g2
g3
Ntp101
Rp102
(dp103
g7
g1
(g8
g3
Ntp104
Rp105
(lp106
I26
aI600000000
absg12
S'WayPoint4'
p107
sg14
g1
(g15
g3
Ntp108
Rp109
(lp110
g1
(g19
g3
Ntp111
Rp112
(lp113
F2.3500000000000014
aF-3.2499999999999982
aF0.0
abag1
(g23
g3
Ntp114
Rp115
(lp116
I0
aI0
aI0
aI1
ababsg27
F0.0
sg28
(lp117
g1
(cdestination
Observation
p118
g3
Ntp119
Rp120
(dp121
S'idleness'
p122
g1
(cdestination
Idleness
p123
g3
Ntp124
Rp125
(dp126
S'_Idleness__true_idl'
p127
F26.6
sS'_Idleness__estim_idl'
p128
F25.48
sS'_Idleness__remaining_idl'
p129
F24.0
sbsg27
F6.624
sbasg30
I01
sg31
g105
sg35
I0
sbag1
(g2
g3
Ntp130
Rp131
(dp132
g7
g10
sg12
S'WayPoint5'
p133
sg14
g1
(g15
g3
Ntp134
Rp135
(lp136
g1
(g19
g3
Ntp137
Rp138
(lp139
F5.4
aF-3.4499999999999975
aF0.0
abag1
(g23
g3
Ntp140
Rp141
(lp142
I0
aI0
aI0
aI1
ababsg27
F0.0
sg28
(lp143
sg30
I01
sg31
g10
sg35
I0
sbag1
(g2
g3
Ntp144
Rp145
(dp146
g7
g10
sg12
S'WayPoint6'
p147
sg14
g1
(g15
g3
Ntp148
Rp149
(lp150
g1
(g19
g3
Ntp151
Rp152
(lp153
F4.850000000000001
aF-0.7499999999999982
aF0.0
abag1
(g23
g3
Ntp154
Rp155
(lp156
I0
aI0
aI0
aI1
ababsg27
F0.0
sg28
(lp157
sg30
I01
sg31
g10
sg35
I0
sbag1
(g2
g3
Ntp158
Rp159
(dp160
g7
g10
sg12
S'WayPoint7'
p161
sg14
g1
(g15
g3
Ntp162
Rp163
(lp164
g1
(g19
g3
Ntp165
Rp166
(lp167
F1.0500000000000007
aF-0.6999999999999975
aF0.0
abag1
(g23
g3
Ntp168
Rp169
(lp170
I0
aI0
aI0
aI1
ababsg27
F6.879
sg28
(lp171
sg30
I00
sg31
g33
sg35
F26.46
sbag1
(g2
g3
Ntp172
Rp173
(dp174
g7
g1
(g8
g3
Ntp175
Rp176
(lp177
I51
aI800000000
absg12
S'WayPoint8'
p178
sg14
g1
(g15
g3
Ntp179
Rp180
(lp181
g1
(g19
g3
Ntp182
Rp183
(lp184
F-3.05
aF-0.5999999999999979
aF0.0
abag1
(g23
g3
Ntp185
Rp186
(lp187
I0
aI0
aI0
aI1
ababsg27
F0.0
sg28
(lp188
g1
(g118
g3
Ntp189
Rp190
(dp191
g122
g1
(g123
g3
Ntp192
Rp193
(dp194
g127
F51.8
sg128
F27.75
sg129
F48.996
sbsg27
F7.214
sbasg30
I01
sg31
g176
sg35
I0
sbag1
(g2
g3
Ntp195
Rp196
(dp197
g7
g10
sg12
S'WayPoint9'
p198
sg14
g1
(g15
g3
Ntp199
Rp200
(lp201
g1
(g19
g3
Ntp202
Rp203
(lp204
F-1.5
aF2.700000000000003
aF0.0
abag1
(g23
g3
Ntp205
Rp206
(lp207
I0
aI0
aI0
aI1
ababsg27
F13.495
sg28
(lp208
sg30
I00
sg31
g1
(g8
g3
Ntp209
Rp210
(lp211
I3
aI0
absg35
F51.9
sba.