(lp0
ccopy_reg
_reconstructor
p1
(cdestination
Destination
p2
c__builtin__
object
p3
Ntp4
Rp5
(dp6
S'_Destination__latest_usage'
p7
g1
(crospy.rostime
Time
p8
g3
Ntp9
Rp10
(lp11
I17
aI0
absS'name'
p12
S'WayPoint1'
p13
sS'pose'
p14
g1
(cgeometry_msgs.msg._Pose
Pose
p15
g3
Ntp16
Rp17
(lp18
g1
(cgeometry_msgs.msg._Point
Point
p19
g3
Ntp20
Rp21
(lp22
F-1.549999999999999
aF-0.8999999999999986
aF0.0
abag1
(cgeometry_msgs.msg._Quaternion
Quaternion
p23
g3
Ntp24
Rp25
(lp26
I0
aI0
aI0
aI1
ababsS'path_len'
p27
F5.537
sS'_Destination__stats'
p28
(lp29
g1
(cdestination
Observation
p30
g3
Ntp31
Rp32
(dp33
S'idleness'
p34
g1
(cdestination
Idleness
p35
g3
Ntp36
Rp37
(dp38
S'_Idleness__true_idl'
p39
F17.0
sS'_Idleness__estim_idl'
p40
F16.0
sS'_Idleness__remaining_idl'
p41
F13.999
sbsg27
F4.161
sbasS'_Destination__available'
p42
I00
sS'_Destination__remaining_idl'
p43
g1
(g8
g3
Ntp44
Rp45
(lp46
I43
aI0
absS'estim_idl'
p47
F21.3
sbag1
(g2
g3
Ntp48
Rp49
(dp50
g7
g1
(g8
g3
Ntp51
Rp52
(lp53
I0
aI0
absg12
S'WayPoint10'
p54
sg14
g1
(g15
g3
Ntp55
Rp56
(lp57
g1
(g19
g3
Ntp58
Rp59
(lp60
F-2.75
aF4.0500000000000025
aF0.0
abag1
(g23
g3
Ntp61
Rp62
(lp63
I0
aI0
aI0
aI1
ababsg27
F10.589
sg28
(lp64
sg42
I00
sg43
g1
(g8
g3
Ntp65
Rp66
(lp67
I3
aI1000000
absg47
F40.73
sbag1
(g2
g3
Ntp68
Rp69
(dp70
g7
g52
sg12
S'WayPoint2'
p71
sg14
g1
(g15
g3
Ntp72
Rp73
(lp74
g1
(g19
g3
Ntp75
Rp76
(lp77
F-5.25
aF-0.04999999999999716
aF0.0
abag1
(g23
g3
Ntp78
Rp79
(lp80
I0
aI0
aI0
aI1
ababsg27
F12.345
sg28
(lp81
sg42
I00
sg43
g1
(g8
g3
Ntp82
Rp83
(lp84
I2
aI801000000
absg47
F47.48
sbag1
(g2
g3
Ntp85
Rp86
(dp87
g7
g1
(g8
g3
Ntp88
Rp89
(lp90
I44
aI400000000
absg12
S'WayPoint3'
p91
sg14
g1
(g15
g3
Ntp92
Rp93
(lp94
g1
(g19
g3
Ntp95
Rp96
(lp97
F-2.6499999999999995
aF-3.8999999999999986
aF0.0
abag1
(g23
g3
Ntp98
Rp99
(lp100
I0
aI0
aI0
aI1
ababsg27
F7.149
sg28
(lp101
g1
(g30
g3
Ntp102
Rp103
(dp104
g34
g1
(g35
g3
Ntp105
Rp106
(dp107
g39
F44.4
sg40
F12.63
sg41
F42.0
sbsg27
F3.283
sbasg42
I00
sg43
g1
(g8
g3
Ntp108
Rp109
(lp110
I47
aI1000000
absg47
F27.5
sbag1
(g2
g3
Ntp111
Rp112
(dp113
g7
g1
(g8
g3
Ntp114
Rp115
(lp116
I42
aI0
absg12
S'WayPoint4'
p117
sg14
g1
(g15
g3
Ntp118
Rp119
(lp120
g1
(g19
g3
Ntp121
Rp122
(lp123
F3.700000000000001
aF-1.3499999999999979
aF0.0
abag1
(g23
g3
Ntp124
Rp125
(lp126
I0
aI0
aI0
aI1
ababsg27
F10.867
sg28
(lp127
g1
(g30
g3
Ntp128
Rp129
(dp130
g34
g1
(g35
g3
Ntp131
Rp132
(dp133
g39
F15.802
sg40
F15.66
sg41
F13.001
sbsg27
F4.07
sbag1
(g30
g3
Ntp134
Rp135
(dp136
g34
g1
(g35
g3
Ntp137
Rp138
(dp139
g39
F26.198
sg40
F22.38
sg41
F23.999
sbsg27
F5.818
sbasg42
I00
sg43
g1
(g8
g3
Ntp140
Rp141
(lp142
I51
aI601000000
absg47
F41.79
sbag1
(g2
g3
Ntp143
Rp144
(dp145
g7
g52
sg12
S'WayPoint5'
p146
sg14
g1
(g15
g3
Ntp147
Rp148
(lp149
g1
(g19
g3
Ntp150
Rp151
(lp152
F7.650000000000002
aF-1.4999999999999982
aF0.0
abag1
(g23
g3
Ntp153
Rp154
(lp155
I0
aI0
aI0
aI1
ababsg27
F9.96
sg28
(lp156
sg42
I00
sg43
g1
(g8
g3
Ntp157
Rp158
(lp159
I8
aI400000000
absg47
F38.31
sbag1
(g2
g3
Ntp160
Rp161
(dp162
g7
g1
(g8
g3
Ntp163
Rp164
(lp165
I33
aI601000000
absg12
S'WayPoint6'
p166
sg14
g1
(g15
g3
Ntp167
Rp168
(lp169
g1
(g19
g3
Ntp170
Rp171
(lp172
F4.350000000000001
aF1.6000000000000023
aF0.0
abag1
(g23
g3
Ntp173
Rp174
(lp175
I0
aI0
aI0
aI1
ababsg27
F9.768
sg28
(lp176
g1
(g30
g3
Ntp177
Rp178
(dp179
g34
g1
(g35
g3
Ntp180
Rp181
(dp182
g39
F33.601
sg40
F30.54
sg41
F31.0
sbsg27
F7.941
sbasg42
I00
sg43
g1
(g8
g3
Ntp183
Rp184
(lp185
I45
aI400000000
absg47
F37.57
sbag1
(g2
g3
Ntp186
Rp187
(dp188
g7
g1
(g8
g3
Ntp189
Rp190
(lp191
I46
aI200000000
absg12
S'WayPoint7'
p192
sg14
g1
(g15
g3
Ntp193
Rp194
(lp195
g1
(g19
g3
Ntp196
Rp197
(lp198
F1.700000000000001
aF1.6500000000000021
aF0.0
abag1
(g23
g3
Ntp199
Rp200
(lp201
I0
aI0
aI0
aI1
ababsg27
F0.0
sg28
(lp202
g1
(g30
g3
Ntp203
Rp204
(dp205
g34
g1
(g35
g3
Ntp206
Rp207
(dp208
g39
F8.0
sg40
F10.54
sg41
F4.999
sbsg27
F2.741
sbag1
(g30
g3
Ntp209
Rp210
(dp211
g34
g1
(g35
g3
Ntp212
Rp213
(dp214
g39
F38.2
sg40
F11.38
sg41
F11.998
sbsg27
F2.959
sbasg42
I01
sg43
g190
sg47
I0
sbag1
(g2
g3
Ntp215
Rp216
(dp217
g7
g52
sg12
S'WayPoint8'
p218
sg14
g1
(g15
g3
Ntp219
Rp220
(lp221
g1
(g19
g3
Ntp222
Rp223
(lp224
F0.9000000000000004
aF4.350000000000002
aF0.0
abag1
(g23
g3
Ntp225
Rp226
(lp227
I0
aI0
aI0
aI1
ababsg27
F8.475
sg28
(lp228
sg42
I00
sg43
g1
(g8
g3
Ntp229
Rp230
(lp231
I16
aI400000000
absg47
F32.6
sbag1
(g2
g3
Ntp232
Rp233
(dp234
g7
g1
(g8
g3
Ntp235
Rp236
(lp237
I51
aI1000000
absg12
S'WayPoint9'
p238
sg14
g1
(g15
g3
Ntp239
Rp240
(lp241
g1
(g19
g3
Ntp242
Rp243
(lp244
F5.0
aF4.600000000000002
aF0.0
abag1
(g23
g3
Ntp245
Rp246
(lp247
I0
aI0
aI0
aI1
ababsg27
F0.0
sg28
(lp248
g1
(g30
g3
Ntp249
Rp250
(dp251
g34
g1
(g35
g3
Ntp252
Rp253
(dp254
g39
F51.001
sg40
F28.54
sg41
F48.0
sbsg27
F7.42
sbasg42
I01
sg43
g236
sg47
I0
sba.