(lp0
ccopy_reg
_reconstructor
p1
(cdestination
Destination
p2
c__builtin__
object
p3
Ntp4
Rp5
(dp6
S'_Destination__latest_usage'
p7
g1
(crospy.rostime
Time
p8
g3
Ntp9
Rp10
(lp11
I0
aI0
absS'name'
p12
S'WayPoint1'
p13
sS'pose'
p14
g1
(cgeometry_msgs.msg._Pose
Pose
p15
g3
Ntp16
Rp17
(lp18
g1
(cgeometry_msgs.msg._Point
Point
p19
g3
Ntp20
Rp21
(lp22
F-1.549999999999999
aF-0.8999999999999986
aF0.0
abag1
(cgeometry_msgs.msg._Quaternion
Quaternion
p23
g3
Ntp24
Rp25
(lp26
I0
aI0
aI0
aI1
ababsS'path_len'
p27
F9.148
sS'_Destination__stats'
p28
(lp29
sS'_Destination__available'
p30
I00
sS'_Destination__remaining_idl'
p31
g1
(g8
g3
Ntp32
Rp33
(lp34
I2
aI600000000
absS'estim_idl'
p35
F35.18
sbag1
(g2
g3
Ntp36
Rp37
(dp38
g7
g10
sg12
S'WayPoint10'
p39
sg14
g1
(g15
g3
Ntp40
Rp41
(lp42
g1
(g19
g3
Ntp43
Rp44
(lp45
F-2.75
aF4.0500000000000025
aF0.0
abag1
(g23
g3
Ntp46
Rp47
(lp48
I0
aI0
aI0
aI1
ababsg27
F14.523
sg28
(lp49
sg30
I00
sg31
g1
(g8
g3
Ntp50
Rp51
(lp52
I3
aI200000000
absg35
F55.86
sbag1
(g2
g3
Ntp53
Rp54
(dp55
g7
g1
(g8
g3
Ntp56
Rp57
(lp58
I43
aI202000000
absg12
S'WayPoint2'
p59
sg14
g1
(g15
g3
Ntp60
Rp61
(lp62
g1
(g19
g3
Ntp63
Rp64
(lp65
F-5.25
aF-0.04999999999999716
aF0.0
abag1
(g23
g3
Ntp66
Rp67
(lp68
I0
aI0
aI0
aI1
ababsg27
F9.578
sg28
(lp69
g1
(cdestination
Observation
p70
g3
Ntp71
Rp72
(dp73
S'idleness'
p74
g1
(cdestination
Idleness
p75
g3
Ntp76
Rp77
(dp78
S'_Idleness__true_idl'
p79
F43.202
sS'_Idleness__estim_idl'
p80
F38.48
sS'_Idleness__remaining_idl'
p81
F40.002
sbsg27
F10.004
sbasg30
I00
sg31
g1
(g8
g3
Ntp82
Rp83
(lp84
I56
aI200000000
absg35
F36.84
sbag1
(g2
g3
Ntp85
Rp86
(dp87
g7
g1
(g8
g3
Ntp88
Rp89
(lp90
I30
aI200000000
absg12
S'WayPoint3'
p91
sg14
g1
(g15
g3
Ntp92
Rp93
(lp94
g1
(g19
g3
Ntp95
Rp96
(lp97
F-2.6499999999999995
aF-3.8999999999999986
aF0.0
abag1
(g23
g3
Ntp98
Rp99
(lp100
I0
aI0
aI0
aI1
ababsg27
F11.301
sg28
(lp101
g1
(g70
g3
Ntp102
Rp103
(dp104
g74
g1
(g75
g3
Ntp105
Rp106
(dp107
g79
F30.2
sg80
F23.48
sg81
F27.6
sbsg27
F6.104
sbasg30
I00
sg31
g1
(g8
g3
Ntp108
Rp109
(lp110
I37
aI203000000
absg35
F43.46
sbag1
(g2
g3
Ntp111
Rp112
(dp113
g7
g1
(g8
g3
Ntp114
Rp115
(lp116
I55
aI600000000
absg12
S'WayPoint4'
p117
sg14
g1
(g15
g3
Ntp118
Rp119
(lp120
g1
(g19
g3
Ntp121
Rp122
(lp123
F3.700000000000001
aF-1.3499999999999979
aF0.0
abag1
(g23
g3
Ntp124
Rp125
(lp126
I0
aI0
aI0
aI1
ababsg27
F0.0
sg28
(lp127
g1
(g70
g3
Ntp128
Rp129
(dp130
g74
g1
(g75
g3
Ntp131
Rp132
(dp133
g79
F55.6
sg80
F32.47
sg81
F53.0
sbsg27
F8.441
sbasg30
I01
sg31
g115
sg35
I0
sbag1
(g2
g3
Ntp134
Rp135
(dp136
g7
g1
(g8
g3
Ntp137
Rp138
(lp139
I36
aI200000000
absg12
S'WayPoint5'
p140
sg14
g1
(g15
g3
Ntp141
Rp142
(lp143
g1
(g19
g3
Ntp144
Rp145
(lp146
F7.650000000000002
aF-1.4999999999999982
aF0.0
abag1
(g23
g3
Ntp147
Rp148
(lp149
I0
aI0
aI0
aI1
ababsg27
F13.352
sg28
(lp150
g1
(g70
g3
Ntp151
Rp152
(dp153
g74
g1
(g75
g3
Ntp154
Rp155
(dp156
g79
F36.2
sg80
F15.56
sg81
F33.0
sbsg27
F4.047
sbasg30
I00
sg31
g1
(g8
g3
Ntp157
Rp158
(lp159
I44
aI201000000
absg35
F51.35
sbag1
(g2
g3
Ntp160
Rp161
(dp162
g7
g1
(g8
g3
Ntp163
Rp164
(lp165
I34
aI3000000
absg12
S'WayPoint6'
p166
sg14
g1
(g15
g3
Ntp167
Rp168
(lp169
g1
(g19
g3
Ntp170
Rp171
(lp172
F4.350000000000001
aF1.6000000000000023
aF0.0
abag1
(g23
g3
Ntp173
Rp174
(lp175
I0
aI0
aI0
aI1
ababsg27
F4.68
sg28
(lp176
g1
(g70
g3
Ntp177
Rp178
(dp179
g74
g1
(g75
g3
Ntp180
Rp181
(dp182
g79
F34.003
sg80
F11.27
sg81
F12.002
sbsg27
F2.931
sbasg30
I00
sg31
g1
(g8
g3
Ntp183
Rp184
(lp185
I60
aI3000000
absg35
F18.0
sbag1
(g2
g3
Ntp186
Rp187
(dp188
g7
g1
(g8
g3
Ntp189
Rp190
(lp191
I21
aI600000000
absg12
S'WayPoint7'
p192
sg14
g1
(g15
g3
Ntp193
Rp194
(lp195
g1
(g19
g3
Ntp196
Rp197
(lp198
F1.700000000000001
aF1.6500000000000021
aF0.0
abag1
(g23
g3
Ntp199
Rp200
(lp201
I0
aI0
aI0
aI1
ababsg27
F7.156
sg28
(lp202
g1
(g70
g3
Ntp203
Rp204
(dp205
g74
g1
(g75
g3
Ntp206
Rp207
(dp208
g79
F21.6
sg80
F20.54
sg81
F19.0
sbsg27
F5.341
sbasg30
I00
sg31
g1
(g8
g3
Ntp209
Rp210
(lp211
I31
aI201000000
absg35
F27.52
sbag1
(g2
g3
Ntp212
Rp213
(dp214
g7
g10
sg12
S'WayPoint8'
p215
sg14
g1
(g15
g3
Ntp216
Rp217
(lp218
g1
(g19
g3
Ntp219
Rp220
(lp221
F0.9000000000000004
aF4.350000000000002
aF0.0
abag1
(g23
g3
Ntp222
Rp223
(lp224
I0
aI0
aI0
aI1
ababsg27
F5.445
sg28
(lp225
sg30
I00
sg31
g1
(g8
g3
Ntp226
Rp227
(lp228
I35
aI200000000
absg35
F20.94
sbag1
(g2
g3
Ntp229
Rp230
(dp231
g7
g1
(g8
g3
Ntp232
Rp233
(lp234
I59
aI600000000
absg12
S'WayPoint9'
p235
sg14
g1
(g15
g3
Ntp236
Rp237
(lp238
g1
(g19
g3
Ntp239
Rp240
(lp241
F5.0
aF4.600000000000002
aF0.0
abag1
(g23
g3
Ntp242
Rp243
(lp244
I0
aI0
aI0
aI1
ababsg27
F0.0
sg28
(lp245
g1
(g70
g3
Ntp246
Rp247
(dp248
g74
g1
(g75
g3
Ntp249
Rp250
(dp251
g79
F59.6
sg80
F35.02
sg81
F57.0
sbsg27
F9.104
sbasg30
I01
sg31
g233
sg35
I0
sba.