(lp0
ccopy_reg
_reconstructor
p1
(cdestination
Destination
p2
c__builtin__
object
p3
Ntp4
Rp5
(dp6
S'_Destination__latest_usage'
p7
g1
(crospy.rostime
Time
p8
g3
Ntp9
Rp10
(lp11
I0
aI0
absS'name'
p12
S'WayPoint1'
p13
sS'pose'
p14
g1
(cgeometry_msgs.msg._Pose
Pose
p15
g3
Ntp16
Rp17
(lp18
g1
(cgeometry_msgs.msg._Point
Point
p19
g3
Ntp20
Rp21
(lp22
F-1.549999999999999
aF-0.8999999999999986
aF0.0
abag1
(cgeometry_msgs.msg._Quaternion
Quaternion
p23
g3
Ntp24
Rp25
(lp26
I0
aI0
aI0
aI1
ababsS'path_len'
p27
F8.719
sS'_Destination__stats'
p28
(lp29
sS'_Destination__available'
p30
I00
sS'_Destination__remaining_idl'
p31
g1
(g8
g3
Ntp32
Rp33
(lp34
I2
aI600000000
absS'estim_idl'
p35
F33.53
sbag1
(g2
g3
Ntp36
Rp37
(dp38
g7
g1
(g8
g3
Ntp39
Rp40
(lp41
I30
aI400000000
absg12
S'WayPoint10'
p42
sg14
g1
(g15
g3
Ntp43
Rp44
(lp45
g1
(g19
g3
Ntp46
Rp47
(lp48
F-2.75
aF4.0500000000000025
aF0.0
abag1
(g23
g3
Ntp49
Rp50
(lp51
I0
aI0
aI0
aI1
ababsg27
F0.0
sg28
(lp52
g1
(cdestination
Observation
p53
g3
Ntp54
Rp55
(dp56
S'idleness'
p57
g1
(cdestination
Idleness
p58
g3
Ntp59
Rp60
(dp61
S'_Idleness__true_idl'
p62
F30.4
sS'_Idleness__estim_idl'
p63
F30.49
sS'_Idleness__remaining_idl'
p64
F27.599
sbsg27
F7.929
sbasg30
I00
sg31
g1
(g8
g3
Ntp65
Rp66
(lp67
I57
aI400000000
absg35
F0.0
sbag1
(g2
g3
Ntp68
Rp69
(dp70
g7
g1
(g8
g3
Ntp71
Rp72
(lp73
I56
aI800000000
absg12
S'WayPoint2'
p74
sg14
g1
(g15
g3
Ntp75
Rp76
(lp77
g1
(g19
g3
Ntp78
Rp79
(lp80
F-5.25
aF-0.04999999999999716
aF0.0
abag1
(g23
g3
Ntp81
Rp82
(lp83
I0
aI0
aI0
aI1
ababsg27
F0.0
sg28
(lp84
g1
(g53
g3
Ntp85
Rp86
(dp87
g57
g1
(g58
g3
Ntp88
Rp89
(dp90
g62
F56.8
sg63
F37.82
sg64
F53.999
sbsg27
F9.833
sbasg30
I01
sg31
g72
sg35
I0
sbag1
(g2
g3
Ntp91
Rp92
(dp93
g7
g1
(g8
g3
Ntp94
Rp95
(lp96
I30
aI800000000
absg12
S'WayPoint3'
p97
sg14
g1
(g15
g3
Ntp98
Rp99
(lp100
g1
(g19
g3
Ntp101
Rp102
(lp103
F-2.6499999999999995
aF-3.8999999999999986
aF0.0
abag1
(g23
g3
Ntp104
Rp105
(lp106
I0
aI0
aI0
aI1
ababsg27
F11.362
sg28
(lp107
g1
(g53
g3
Ntp108
Rp109
(dp110
g57
g1
(g58
g3
Ntp111
Rp112
(dp113
g62
F30.8
sg63
F23.48
sg64
F27.999
sbsg27
F6.104
sbasg30
I00
sg31
g1
(g8
g3
Ntp114
Rp115
(lp116
I41
aI400000000
absg35
F43.7
sbag1
(g2
g3
Ntp117
Rp118
(dp119
g7
g10
sg12
S'WayPoint4'
p120
sg14
g1
(g15
g3
Ntp121
Rp122
(lp123
g1
(g19
g3
Ntp124
Rp125
(lp126
F3.700000000000001
aF-1.3499999999999979
aF0.0
abag1
(g23
g3
Ntp127
Rp128
(lp129
I0
aI0
aI0
aI1
ababsg27
F10.502
sg28
(lp130
sg30
I00
sg31
g1
(g8
g3
Ntp131
Rp132
(lp133
I31
aI401000000
absg35
F40.39
sbag1
(g2
g3
Ntp134
Rp135
(dp136
g7
g1
(g8
g3
Ntp137
Rp138
(lp139
I40
aI400000000
absg12
S'WayPoint5'
p140
sg14
g1
(g15
g3
Ntp141
Rp142
(lp143
g1
(g19
g3
Ntp144
Rp145
(lp146
F7.650000000000002
aF-1.4999999999999982
aF0.0
abag1
(g23
g3
Ntp147
Rp148
(lp149
I0
aI0
aI0
aI1
ababsg27
F0.0
sg28
(lp150
g1
(g53
g3
Ntp151
Rp152
(dp153
g57
g1
(g58
g3
Ntp154
Rp155
(dp156
g62
F40.4
sg63
F15.56
sg64
F37.4
sbsg27
F4.047
sbasg30
I01
sg31
g138
sg35
I0
sbag1
(g2
g3
Ntp157
Rp158
(dp159
g7
g1
(g8
g3
Ntp160
Rp161
(lp162
I15
aI600000000
absg12
S'WayPoint6'
p163
sg14
g1
(g15
g3
Ntp164
Rp165
(lp166
g1
(g19
g3
Ntp167
Rp168
(lp169
F4.350000000000001
aF1.6000000000000023
aF0.0
abag1
(g23
g3
Ntp170
Rp171
(lp172
I0
aI0
aI0
aI1
ababsg27
F9.767
sg28
(lp173
g1
(g53
g3
Ntp174
Rp175
(dp176
g57
g1
(g58
g3
Ntp177
Rp178
(dp179
g62
F15.6
sg63
F18.38
sg64
F13.0
sbsg27
F4.779
sbasg30
I00
sg31
g132
sg35
F37.56
sbag1
(g2
g3
Ntp180
Rp181
(dp182
g7
g10
sg12
S'WayPoint7'
p183
sg14
g1
(g15
g3
Ntp184
Rp185
(lp186
g1
(g19
g3
Ntp187
Rp188
(lp189
F1.700000000000001
aF1.6500000000000021
aF0.0
abag1
(g23
g3
Ntp190
Rp191
(lp192
I0
aI0
aI0
aI1
ababsg27
F2.741
sg28
(lp193
sg30
I00
sg31
g1
(g8
g3
Ntp194
Rp195
(lp196
I16
aI200000000
absg35
F10.54
sbag1
(g2
g3
Ntp197
Rp198
(dp199
g7
g10
sg12
S'WayPoint8'
p200
sg14
g1
(g15
g3
Ntp201
Rp202
(lp203
g1
(g19
g3
Ntp204
Rp205
(lp206
F0.9000000000000004
aF4.350000000000002
aF0.0
abag1
(g23
g3
Ntp207
Rp208
(lp209
I0
aI0
aI0
aI1
ababsg27
F12.445
sg28
(lp210
sg30
I00
sg31
g1
(g8
g3
Ntp211
Rp212
(lp213
I3
aI600000000
absg35
F47.87
sbag1
(g2
g3
Ntp214
Rp215
(dp216
g7
g10
sg12
S'WayPoint9'
p217
sg14
g1
(g15
g3
Ntp218
Rp219
(lp220
g1
(g19
g3
Ntp221
Rp222
(lp223
F5.0
aF4.600000000000002
aF0.0
abag1
(g23
g3
Ntp224
Rp225
(lp226
I0
aI0
aI0
aI1
ababsg27
F9.104
sg28
(lp227
sg30
I00
sg31
g33
sg35
F35.02
sba.