(lp0
ccopy_reg
_reconstructor
p1
(cdestination
Destination
p2
c__builtin__
object
p3
Ntp4
Rp5
(dp6
S'_Destination__latest_usage'
p7
g1
(crospy.rostime
Time
p8
g3
Ntp9
Rp10
(lp11
I48
aI600000000
absS'name'
p12
S'WayPoint1'
p13
sS'pose'
p14
g1
(cgeometry_msgs.msg._Pose
Pose
p15
g3
Ntp16
Rp17
(lp18
g1
(cgeometry_msgs.msg._Point
Point
p19
g3
Ntp20
Rp21
(lp22
F-1.549999999999999
aF-0.8999999999999986
aF0.0
abag1
(cgeometry_msgs.msg._Quaternion
Quaternion
p23
g3
Ntp24
Rp25
(lp26
I0
aI0
aI0
aI1
ababsS'path_len'
p27
F4.412
sS'_Destination__stats'
p28
(lp29
g1
(cdestination
Observation
p30
g3
Ntp31
Rp32
(dp33
S'idleness'
p34
g1
(cdestination
Idleness
p35
g3
Ntp36
Rp37
(dp38
S'_Idleness__true_idl'
p39
F32.201
sS'_Idleness__estim_idl'
p40
F25.57
sS'_Idleness__remaining_idl'
p41
F29.001
sbsg27
F6.649
sbag1
(g30
g3
Ntp42
Rp43
(dp44
g34
g1
(g35
g3
Ntp45
Rp46
(dp47
g39
F16.399
sg40
F13.4
sg41
F13.0
sbsg27
F3.483
sbasS'_Destination__available'
p48
I00
sS'_Destination__remaining_idl'
p49
g1
(g8
g3
Ntp50
Rp51
(lp52
I51
aI201000000
absS'estim_idl'
p53
F16.97
sbag1
(g2
g3
Ntp54
Rp55
(dp56
g7
g1
(g8
g3
Ntp57
Rp58
(lp59
I0
aI0
absg12
S'WayPoint10'
p60
sg14
g1
(g15
g3
Ntp61
Rp62
(lp63
g1
(g19
g3
Ntp64
Rp65
(lp66
F-2.75
aF4.0500000000000025
aF0.0
abag1
(g23
g3
Ntp67
Rp68
(lp69
I0
aI0
aI0
aI1
ababsg27
F11.954
sg28
(lp70
sg48
I00
sg49
g1
(g8
g3
Ntp71
Rp72
(lp73
I3
aI200000000
absg53
F45.98
sbag1
(g2
g3
Ntp74
Rp75
(dp76
g7
g1
(g8
g3
Ntp77
Rp78
(lp79
I54
aI801000000
absg12
S'WayPoint2'
p80
sg14
g1
(g15
g3
Ntp81
Rp82
(lp83
g1
(g19
g3
Ntp84
Rp85
(lp86
F-5.25
aF-0.04999999999999716
aF0.0
abag1
(g23
g3
Ntp87
Rp88
(lp89
I0
aI0
aI0
aI1
ababsg27
F0.0
sg28
(lp90
g1
(g30
g3
Ntp91
Rp92
(dp93
g34
g1
(g35
g3
Ntp94
Rp95
(dp96
g39
F54.801
sg40
F16.0
sg41
F51.997
sbsg27
F4.16
sbasg48
I01
sg49
g78
sg53
I0
sbag1
(g2
g3
Ntp97
Rp98
(dp99
g7
g1
(g8
g3
Ntp100
Rp101
(lp102
I35
aI202000000
absg12
S'WayPoint3'
p103
sg14
g1
(g15
g3
Ntp104
Rp105
(lp106
g1
(g19
g3
Ntp107
Rp108
(lp109
F-2.6499999999999995
aF-3.8999999999999986
aF0.0
abag1
(g23
g3
Ntp110
Rp111
(lp112
I0
aI0
aI0
aI1
ababsg27
F6.104
sg28
(lp113
g1
(g30
g3
Ntp114
Rp115
(dp116
g34
g1
(g35
g3
Ntp117
Rp118
(dp119
g39
F35.202
sg40
F28.32
sg41
F32.002
sbsg27
F7.364
sbasg48
I00
sg49
g1
(g8
g3
Ntp120
Rp121
(lp122
I55
aI201000000
absg53
F23.48
sbag1
(g2
g3
Ntp123
Rp124
(dp125
g7
g58
sg12
S'WayPoint4'
p126
sg14
g1
(g15
g3
Ntp127
Rp128
(lp129
g1
(g19
g3
Ntp130
Rp131
(lp132
F3.700000000000001
aF-1.3499999999999979
aF0.0
abag1
(g23
g3
Ntp133
Rp134
(lp135
I0
aI0
aI0
aI1
ababsg27
F10.525
sg28
(lp136
sg48
I00
sg49
g1
(g8
g3
Ntp137
Rp138
(lp139
I2
aI804000000
absg53
F40.48
sbag1
(g2
g3
Ntp140
Rp141
(dp142
g7
g58
sg12
S'WayPoint5'
p143
sg14
g1
(g15
g3
Ntp144
Rp145
(lp146
g1
(g19
g3
Ntp147
Rp148
(lp149
F7.650000000000002
aF-1.4999999999999982
aF0.0
abag1
(g23
g3
Ntp150
Rp151
(lp152
I0
aI0
aI0
aI1
ababsg27
F12.506
sg28
(lp153
sg48
I00
sg49
g72
sg53
F48.1
sbag1
(g2
g3
Ntp154
Rp155
(dp156
g7
g1
(g8
g3
Ntp157
Rp158
(lp159
I17
aI800000000
absg12
S'WayPoint6'
p160
sg14
g1
(g15
g3
Ntp161
Rp162
(lp163
g1
(g19
g3
Ntp164
Rp165
(lp166
F4.350000000000001
aF1.6000000000000023
aF0.0
abag1
(g23
g3
Ntp167
Rp168
(lp169
I0
aI0
aI0
aI1
ababsg27
F7.012
sg28
(lp170
g1
(g30
g3
Ntp171
Rp172
(dp173
g34
g1
(g35
g3
Ntp174
Rp175
(dp176
g39
F17.8
sg40
F18.38
sg41
F14.996
sbsg27
F4.779
sbasg48
I00
sg49
g1
(g8
g3
Ntp177
Rp178
(lp179
I49
aI600000000
absg53
F26.97
sbag1
(g2
g3
Ntp180
Rp181
(dp182
g7
g1
(g8
g3
Ntp183
Rp184
(lp185
I50
aI200000000
absg12
S'WayPoint7'
p186
sg14
g1
(g15
g3
Ntp187
Rp188
(lp189
g1
(g19
g3
Ntp190
Rp191
(lp192
F1.700000000000001
aF1.6500000000000021
aF0.0
abag1
(g23
g3
Ntp193
Rp194
(lp195
I0
aI0
aI0
aI1
ababsg27
F0.0
sg28
(lp196
g1
(g30
g3
Ntp197
Rp198
(dp199
g34
g1
(g35
g3
Ntp200
Rp201
(dp202
g39
F50.2
sg40
F16.89
sg41
F17.0
sbsg27
F4.392
sbasg48
I01
sg49
g184
sg53
I0
sbag1
(g2
g3
Ntp203
Rp204
(dp205
g7
g58
sg12
S'WayPoint8'
p206
sg14
g1
(g15
g3
Ntp207
Rp208
(lp209
g1
(g19
g3
Ntp210
Rp211
(lp212
F0.9000000000000004
aF4.350000000000002
aF0.0
abag1
(g23
g3
Ntp213
Rp214
(lp215
I0
aI0
aI0
aI1
ababsg27
F5.34
sg28
(lp216
sg48
I00
sg49
g1
(g8
g3
Ntp217
Rp218
(lp219
I18
aI403000000
absg53
F20.54
sbag1
(g2
g3
Ntp220
Rp221
(dp222
g7
g58
sg12
S'WayPoint9'
p223
sg14
g1
(g15
g3
Ntp224
Rp225
(lp226
g1
(g19
g3
Ntp227
Rp228
(lp229
F5.0
aF4.600000000000002
aF0.0
abag1
(g23
g3
Ntp230
Rp231
(lp232
I0
aI0
aI0
aI1
ababsg27
F14.834
sg28
(lp233
sg48
I00
sg49
g72
sg53
F57.05
sba.