(lp0
ccopy_reg
_reconstructor
p1
(cdestination
Destination
p2
c__builtin__
object
p3
Ntp4
Rp5
(dp6
S'_Destination__latest_usage'
p7
g1
(crospy.rostime
Time
p8
g3
Ntp9
Rp10
(lp11
I0
aI0
absS'name'
p12
S'WayPoint1'
p13
sS'pose'
p14
g1
(cgeometry_msgs.msg._Pose
Pose
p15
g3
Ntp16
Rp17
(lp18
g1
(cgeometry_msgs.msg._Point
Point
p19
g3
Ntp20
Rp21
(lp22
F-1.549999999999999
aF-0.8999999999999986
aF0.0
abag1
(cgeometry_msgs.msg._Quaternion
Quaternion
p23
g3
Ntp24
Rp25
(lp26
I0
aI0
aI0
aI1
ababsS'path_len'
p27
F4.171
sS'_Destination__stats'
p28
(lp29
sS'_Destination__available'
p30
I00
sS'_Destination__remaining_idl'
p31
g1
(g8
g3
Ntp32
Rp33
(lp34
I50
aI400000000
absS'estim_idl'
p35
F16.04
sbag1
(g2
g3
Ntp36
Rp37
(dp38
g7
g1
(g8
g3
Ntp39
Rp40
(lp41
I49
aI800000000
absg12
S'WayPoint10'
p42
sg14
g1
(g15
g3
Ntp43
Rp44
(lp45
g1
(g19
g3
Ntp46
Rp47
(lp48
F-2.75
aF4.0500000000000025
aF0.0
abag1
(g23
g3
Ntp49
Rp50
(lp51
I0
aI0
aI0
aI1
ababsg27
F0.0
sg28
(lp52
g1
(cdestination
Observation
p53
g3
Ntp54
Rp55
(dp56
S'idleness'
p57
g1
(cdestination
Idleness
p58
g3
Ntp59
Rp60
(dp61
S'_Idleness__true_idl'
p62
F49.8
sS'_Idleness__estim_idl'
p63
F30.49
sS'_Idleness__remaining_idl'
p64
F47.0
sbsg27
F7.929
sbasg30
I01
sg31
g40
sg35
I0
sbag1
(g2
g3
Ntp65
Rp66
(dp67
g7
g40
sg12
S'WayPoint2'
p68
sg14
g1
(g15
g3
Ntp69
Rp70
(lp71
g1
(g19
g3
Ntp72
Rp73
(lp74
F-5.25
aF-0.04999999999999716
aF0.0
abag1
(g23
g3
Ntp75
Rp76
(lp77
I0
aI0
aI0
aI1
ababsg27
F11.915
sg28
(lp78
g1
(g53
g3
Ntp79
Rp80
(dp81
g57
g1
(g58
g3
Ntp82
Rp83
(dp84
g62
F49.8
sg63
F37.81
sg64
F47.0
sbsg27
F9.83
sbasg30
I00
sg31
g33
sg35
F45.83
sbag1
(g2
g3
Ntp85
Rp86
(dp87
g7
g1
(g8
g3
Ntp88
Rp89
(lp90
I40
aI800000000
absg12
S'WayPoint3'
p91
sg14
g1
(g15
g3
Ntp92
Rp93
(lp94
g1
(g19
g3
Ntp95
Rp96
(lp97
F-2.6499999999999995
aF-3.8999999999999986
aF0.0
abag1
(g23
g3
Ntp98
Rp99
(lp100
I0
aI0
aI0
aI1
ababsg27
F11.15
sg28
(lp101
g1
(g53
g3
Ntp102
Rp103
(dp104
g57
g1
(g58
g3
Ntp105
Rp106
(dp107
g62
F40.8
sg63
F12.63
sg64
F38.0
sbsg27
F3.283
sbasg30
I00
sg31
g1
(g8
g3
Ntp108
Rp109
(lp110
I58
aI409000000
absg35
F42.89
sbag1
(g2
g3
Ntp111
Rp112
(dp113
g7
g10
sg12
S'WayPoint4'
p114
sg14
g1
(g15
g3
Ntp115
Rp116
(lp117
g1
(g19
g3
Ntp118
Rp119
(lp120
F3.700000000000001
aF-1.3499999999999979
aF0.0
abag1
(g23
g3
Ntp121
Rp122
(lp123
I0
aI0
aI0
aI1
ababsg27
F9.38
sg28
(lp124
sg30
I00
sg31
g1
(g8
g3
Ntp125
Rp126
(lp127
I3
aI402000000
absg35
F36.08
sbag1
(g2
g3
Ntp128
Rp129
(dp130
g7
g1
(g8
g3
Ntp131
Rp132
(lp133
I57
aI800000000
absg12
S'WayPoint5'
p134
sg14
g1
(g15
g3
Ntp135
Rp136
(lp137
g1
(g19
g3
Ntp138
Rp139
(lp140
F7.650000000000002
aF-1.4999999999999982
aF0.0
abag1
(g23
g3
Ntp141
Rp142
(lp143
I0
aI0
aI0
aI1
ababsg27
F0.0
sg28
(lp144
g1
(g53
g3
Ntp145
Rp146
(dp147
g57
g1
(g58
g3
Ntp148
Rp149
(dp150
g62
F57.8
sg63
F15.56
sg64
F55.398
sbsg27
F4.047
sbasg30
I01
sg31
g132
sg35
I0
sbag1
(g2
g3
Ntp151
Rp152
(dp153
g7
g10
sg12
S'WayPoint6'
p154
sg14
g1
(g15
g3
Ntp155
Rp156
(lp157
g1
(g19
g3
Ntp158
Rp159
(lp160
F4.350000000000001
aF1.6000000000000023
aF0.0
abag1
(g23
g3
Ntp161
Rp162
(lp163
I0
aI0
aI0
aI1
ababsg27
F12.558
sg28
(lp164
sg30
I00
sg31
g126
sg35
F48.3
sbag1
(g2
g3
Ntp165
Rp166
(dp167
g7
g10
sg12
S'WayPoint7'
p168
sg14
g1
(g15
g3
Ntp169
Rp170
(lp171
g1
(g19
g3
Ntp172
Rp173
(lp174
F1.700000000000001
aF1.6500000000000021
aF0.0
abag1
(g23
g3
Ntp175
Rp176
(lp177
I0
aI0
aI0
aI1
ababsg27
F5.249
sg28
(lp178
sg30
I00
sg31
g1
(g8
g3
Ntp179
Rp180
(lp181
I41
aI200000000
absg35
F20.19
sbag1
(g2
g3
Ntp182
Rp183
(dp184
g7
g10
sg12
S'WayPoint8'
p185
sg14
g1
(g15
g3
Ntp186
Rp187
(lp188
g1
(g19
g3
Ntp189
Rp190
(lp191
F0.9000000000000004
aF4.350000000000002
aF0.0
abag1
(g23
g3
Ntp192
Rp193
(lp194
I0
aI0
aI0
aI1
ababsg27
F7.489
sg28
(lp195
sg30
I00
sg31
g1
(g8
g3
Ntp196
Rp197
(lp198
I2
aI600000000
absg35
F28.8
sbag1
(g2
g3
Ntp199
Rp200
(dp201
g7
g10
sg12
S'WayPoint9'
p202
sg14
g1
(g15
g3
Ntp203
Rp204
(lp205
g1
(g19
g3
Ntp206
Rp207
(lp208
F5.0
aF4.600000000000002
aF0.0
abag1
(g23
g3
Ntp209
Rp210
(lp211
I0
aI0
aI0
aI1
ababsg27
F10.015
sg28
(lp212
sg30
I00
sg31
g197
sg35
F38.52
sba.