(lp0
ccopy_reg
_reconstructor
p1
(cdestination
Destination
p2
c__builtin__
object
p3
Ntp4
Rp5
(dp6
S'_Destination__latest_usage'
p7
g1
(crospy.rostime
Time
p8
g3
Ntp9
Rp10
(lp11
I0
aI0
absS'name'
p12
S'WayPoint1'
p13
sS'pose'
p14
g1
(cgeometry_msgs.msg._Pose
Pose
p15
g3
Ntp16
Rp17
(lp18
g1
(cgeometry_msgs.msg._Point
Point
p19
g3
Ntp20
Rp21
(lp22
F-1.549999999999999
aF-0.8999999999999986
aF0.0
abag1
(cgeometry_msgs.msg._Quaternion
Quaternion
p23
g3
Ntp24
Rp25
(lp26
I0
aI0
aI0
aI1
ababsS'path_len'
p27
F6.66
sS'_Destination__stats'
p28
(lp29
sS'_Destination__available'
p30
I00
sS'_Destination__remaining_idl'
p31
g1
(g8
g3
Ntp32
Rp33
(lp34
I23
aI400000000
absS'estim_idl'
p35
F25.62
sbag1
(g2
g3
Ntp36
Rp37
(dp38
g7
g10
sg12
S'WayPoint10'
p39
sg14
g1
(g15
g3
Ntp40
Rp41
(lp42
g1
(g19
g3
Ntp43
Rp44
(lp45
F-2.75
aF4.0500000000000025
aF0.0
abag1
(g23
g3
Ntp46
Rp47
(lp48
I0
aI0
aI0
aI1
ababsg27
F10.589
sg28
(lp49
sg30
I00
sg31
g1
(g8
g3
Ntp50
Rp51
(lp52
I3
aI803000000
absg35
F40.73
sbag1
(g2
g3
Ntp53
Rp54
(dp55
g7
g1
(g8
g3
Ntp56
Rp57
(lp58
I50
aI200000000
absg12
S'WayPoint2'
p59
sg14
g1
(g15
g3
Ntp60
Rp61
(lp62
g1
(g19
g3
Ntp63
Rp64
(lp65
F-5.25
aF-0.04999999999999716
aF0.0
abag1
(g23
g3
Ntp66
Rp67
(lp68
I0
aI0
aI0
aI1
ababsg27
F0.0
sg28
(lp69
g1
(cdestination
Observation
p70
g3
Ntp71
Rp72
(dp73
S'idleness'
p74
g1
(cdestination
Idleness
p75
g3
Ntp76
Rp77
(dp78
S'_Idleness__true_idl'
p79
F50.2
sS'_Idleness__estim_idl'
p80
F28.66
sS'_Idleness__remaining_idl'
p81
F32.0
sbsg27
F7.451
sbasg30
I01
sg31
g57
sg35
I0
sbag1
(g2
g3
Ntp82
Rp83
(dp84
g7
g10
sg12
S'WayPoint3'
p85
sg14
g1
(g15
g3
Ntp86
Rp87
(lp88
g1
(g19
g3
Ntp89
Rp90
(lp91
F-2.6499999999999995
aF-3.8999999999999986
aF0.0
abag1
(g23
g3
Ntp92
Rp93
(lp94
I0
aI0
aI0
aI1
ababsg27
F12.112
sg28
(lp95
sg30
I00
sg31
g1
(g8
g3
Ntp96
Rp97
(lp98
I4
aI0
absg35
F46.59
sbag1
(g2
g3
Ntp99
Rp100
(dp101
g7
g1
(g8
g3
Ntp102
Rp103
(lp104
I29
aI0
absg12
S'WayPoint4'
p105
sg14
g1
(g15
g3
Ntp106
Rp107
(lp108
g1
(g19
g3
Ntp109
Rp110
(lp111
F3.700000000000001
aF-1.3499999999999979
aF0.0
abag1
(g23
g3
Ntp112
Rp113
(lp114
I0
aI0
aI0
aI1
ababsg27
F0.0
sg28
(lp115
g1
(g70
g3
Ntp116
Rp117
(dp118
g74
g1
(g75
g3
Ntp119
Rp120
(dp121
g79
F29.0
sg80
F20.67
sg81
F25.0
sbsg27
F5.374
sbasg30
I01
sg31
g103
sg35
I0
sbag1
(g2
g3
Ntp122
Rp123
(dp124
g7
g10
sg12
S'WayPoint5'
p125
sg14
g1
(g15
g3
Ntp126
Rp127
(lp128
g1
(g19
g3
Ntp129
Rp130
(lp131
F7.650000000000002
aF-1.4999999999999982
aF0.0
abag1
(g23
g3
Ntp132
Rp133
(lp134
I0
aI0
aI0
aI1
ababsg27
F13.374
sg28
(lp135
sg30
I00
sg31
g1
(g8
g3
Ntp136
Rp137
(lp138
I3
aI200000000
absg35
F51.44
sbag1
(g2
g3
Ntp139
Rp140
(dp141
g7
g10
sg12
S'WayPoint6'
p142
sg14
g1
(g15
g3
Ntp143
Rp144
(lp145
g1
(g19
g3
Ntp146
Rp147
(lp148
F4.350000000000001
aF1.6000000000000023
aF0.0
abag1
(g23
g3
Ntp149
Rp150
(lp151
I0
aI0
aI0
aI1
ababsg27
F7.941
sg28
(lp152
sg30
I00
sg31
g97
sg35
F30.54
sbag1
(g2
g3
Ntp153
Rp154
(dp155
g7
g1
(g8
g3
Ntp156
Rp157
(lp158
I17
aI200000000
absg12
S'WayPoint7'
p159
sg14
g1
(g15
g3
Ntp160
Rp161
(lp162
g1
(g19
g3
Ntp163
Rp164
(lp165
F1.700000000000001
aF1.6500000000000021
aF0.0
abag1
(g23
g3
Ntp166
Rp167
(lp168
I0
aI0
aI0
aI1
ababsg27
F5.979
sg28
(lp169
g1
(g70
g3
Ntp170
Rp171
(dp172
g74
g1
(g75
g3
Ntp173
Rp174
(dp175
g79
F17.2
sg80
F11.39
sg81
F12.999
sbsg27
F2.961
sbasg30
I00
sg31
g1
(g8
g3
Ntp176
Rp177
(lp178
I29
aI400000000
absg35
F23.0
sbag1
(g2
g3
Ntp179
Rp180
(dp181
g7
g1
(g8
g3
Ntp182
Rp183
(lp184
I22
aI403000000
absg12
S'WayPoint8'
p185
sg14
g1
(g15
g3
Ntp186
Rp187
(lp188
g1
(g19
g3
Ntp189
Rp190
(lp191
F0.9000000000000004
aF4.350000000000002
aF0.0
abag1
(g23
g3
Ntp192
Rp193
(lp194
I0
aI0
aI0
aI1
ababsg27
F9.853
sg28
(lp195
g1
(g70
g3
Ntp196
Rp197
(dp198
g74
g1
(g75
g3
Ntp199
Rp200
(dp201
g79
F22.403
sg80
F20.54
sg81
F18.002
sbsg27
F5.34
sbasg30
I00
sg31
g1
(g8
g3
Ntp202
Rp203
(lp204
I51
aI205000000
absg35
F37.89
sbag1
(g2
g3
Ntp205
Rp206
(dp207
g7
g10
sg12
S'WayPoint9'
p208
sg14
g1
(g15
g3
Ntp209
Rp210
(lp211
g1
(g19
g3
Ntp212
Rp213
(lp214
F5.0
aF4.600000000000002
aF0.0
abag1
(g23
g3
Ntp215
Rp216
(lp217
I0
aI0
aI0
aI1
ababsg27
F14.834
sg28
(lp218
sg30
I00
sg31
g51
sg35
F57.05
sba.