(lp0
ccopy_reg
_reconstructor
p1
(cdestination
Destination
p2
c__builtin__
object
p3
Ntp4
Rp5
(dp6
S'_Destination__latest_usage'
p7
g1
(crospy.rostime
Time
p8
g3
Ntp9
Rp10
(lp11
I0
aI0
absS'name'
p12
S'WayPoint1'
p13
sS'pose'
p14
g1
(cgeometry_msgs.msg._Pose
Pose
p15
g3
Ntp16
Rp17
(lp18
g1
(cgeometry_msgs.msg._Point
Point
p19
g3
Ntp20
Rp21
(lp22
F-2.75
aF1.0500000000000025
aF0.0
abag1
(cgeometry_msgs.msg._Quaternion
Quaternion
p23
g3
Ntp24
Rp25
(lp26
I0
aI0
aI0
aI1
ababsS'path_len'
p27
F8.475
sS'_Destination__stats'
p28
(lp29
sS'_Destination__available'
p30
I00
sS'_Destination__remaining_idl'
p31
g1
(g8
g3
Ntp32
Rp33
(lp34
I2
aI600000000
absS'estim_idl'
p35
F32.6
sbag1
(g2
g3
Ntp36
Rp37
(dp38
g7
g1
(g8
g3
Ntp39
Rp40
(lp41
I58
aI200000000
absg12
S'WayPoint2'
p42
sg14
g1
(g15
g3
Ntp43
Rp44
(lp45
g1
(g19
g3
Ntp46
Rp47
(lp48
F5.15
aF0.9000000000000021
aF0.0
abag1
(g23
g3
Ntp49
Rp50
(lp51
I0
aI0
aI0
aI1
ababsg27
F0.0
sg28
(lp52
g1
(cdestination
Observation
p53
g3
Ntp54
Rp55
(dp56
S'idleness'
p57
g1
(cdestination
Idleness
p58
g3
Ntp59
Rp60
(dp61
S'_Idleness__true_idl'
p62
F58.2
sS'_Idleness__estim_idl'
p63
F28.68
sS'_Idleness__remaining_idl'
p64
F25.994
sbsg27
F7.458
sbasg30
I01
sg31
g40
sg35
I0
sbag1
(g2
g3
Ntp65
Rp66
(dp67
g7
g1
(g8
g3
Ntp68
Rp69
(lp70
I32
aI600000000
absg12
S'WayPoint3'
p71
sg14
g1
(g15
g3
Ntp72
Rp73
(lp74
g1
(g19
g3
Ntp75
Rp76
(lp77
F4.850000000000001
aF3.900000000000002
aF0.0
abag1
(g23
g3
Ntp78
Rp79
(lp80
I0
aI0
aI0
aI1
ababsg27
F3.117
sg28
(lp81
g1
(g53
g3
Ntp82
Rp83
(dp84
g57
g1
(g58
g3
Ntp85
Rp86
(dp87
g62
F32.6
sg63
F34.39
sg64
F30.0
sbsg27
F8.942
sbasg30
I00
sg31
g1
(g8
g3
Ntp88
Rp89
(lp90
I59
aI200000000
absg35
F11.99
sbag1
(g2
g3
Ntp91
Rp92
(dp93
g7
g1
(g8
g3
Ntp94
Rp95
(lp96
I31
aI200000000
absg12
S'WayPoint4'
p97
sg14
g1
(g15
g3
Ntp98
Rp99
(lp100
g1
(g19
g3
Ntp101
Rp102
(lp103
F1.200000000000001
aF3.1000000000000023
aF0.0
abag1
(g23
g3
Ntp104
Rp105
(lp106
I0
aI0
aI0
aI1
ababsg27
F4.853
sg28
(lp107
g1
(g53
g3
Ntp108
Rp109
(dp110
g57
g1
(g58
g3
Ntp111
Rp112
(dp113
g62
F31.2
sg63
F29.48
sg64
F28.0
sbsg27
F7.664
sbasg30
I00
sg31
g1
(g8
g3
Ntp114
Rp115
(lp116
I33
aI200000000
absg35
F18.67
sbag1
(g2
g3
Ntp117
Rp118
(dp119
g7
g1
(g8
g3
Ntp120
Rp121
(lp122
I58
aI600000000
absg12
S'WayPoint5'
p123
sg14
g1
(g15
g3
Ntp124
Rp125
(lp126
g1
(g19
g3
Ntp127
Rp128
(lp129
F5.800000000000001
aF-4.349999999999998
aF0.0
abag1
(g23
g3
Ntp130
Rp131
(lp132
I0
aI0
aI0
aI1
ababsg27
F0.0
sg28
(lp133
g1
(g53
g3
Ntp134
Rp135
(dp136
g57
g1
(g58
g3
Ntp137
Rp138
(dp139
g62
F58.6
sg63
F53.79
sg64
F56.0
sbsg27
F13.986
sbasg30
I01
sg31
g121
sg35
I0
sbag1
(g2
g3
Ntp140
Rp141
(dp142
g7
g10
sg12
S'WayPoint6'
p143
sg14
g1
(g15
g3
Ntp144
Rp145
(lp146
g1
(g19
g3
Ntp147
Rp148
(lp149
F-6.15
aF3.150000000000002
aF0.0
abag1
(g23
g3
Ntp150
Rp151
(lp152
I0
aI0
aI0
aI1
ababsg27
F18.177
sg28
(lp153
sg30
I00
sg31
g89
sg35
F69.91
sbag1
(g2
g3
Ntp154
Rp155
(dp156
g7
g10
sg12
S'WayPoint7'
p157
sg14
g1
(g15
g3
Ntp158
Rp159
(lp160
g1
(g19
g3
Ntp161
Rp162
(lp163
F-6.3
aF-1.8999999999999986
aF0.0
abag1
(g23
g3
Ntp164
Rp165
(lp166
I0
aI0
aI0
aI1
ababsg27
F5.146
sg28
(lp167
sg30
I00
sg31
g33
sg35
F19.79
sba.