(lp0
ccopy_reg
_reconstructor
p1
(cdestination
Destination
p2
c__builtin__
object
p3
Ntp4
Rp5
(dp6
S'_Destination__latest_usage'
p7
g1
(crospy.rostime
Time
p8
g3
Ntp9
Rp10
(lp11
I19
aI7000000
absS'name'
p12
S'WayPoint1'
p13
sS'pose'
p14
g1
(cgeometry_msgs.msg._Pose
Pose
p15
g3
Ntp16
Rp17
(lp18
g1
(cgeometry_msgs.msg._Point
Point
p19
g3
Ntp20
Rp21
(lp22
F-1.549999999999999
aF-0.8999999999999986
aF0.0
abag1
(cgeometry_msgs.msg._Quaternion
Quaternion
p23
g3
Ntp24
Rp25
(lp26
I0
aI0
aI0
aI1
ababsS'_Destination__stats'
p27
(lp28
g1
(cdestination
Idleness
p29
g3
Ntp30
Rp31
(dp32
S'_Idleness__true_idl'
p33
F19.007
sS'_Idleness__estim_idl'
p34
F16.0
sS'_Idleness__remaining_idl'
p35
F15.006
sbasS'_Destination__available'
p36
I00
sS'_Destination__remaining_idl'
p37
g1
(g8
g3
Ntp38
Rp39
(lp40
I48
aI400000000
absS'estim_idl'
p41
F12.64
sbag1
(g2
g3
Ntp42
Rp43
(dp44
g7
g1
(g8
g3
Ntp45
Rp46
(lp47
I0
aI0
absg12
S'WayPoint10'
p48
sg14
g1
(g15
g3
Ntp49
Rp50
(lp51
g1
(g19
g3
Ntp52
Rp53
(lp54
F-2.75
aF4.0500000000000025
aF0.0
abag1
(g23
g3
Ntp55
Rp56
(lp57
I0
aI0
aI0
aI1
ababsg27
(lp58
sg36
I00
sg37
g1
(g8
g3
Ntp59
Rp60
(lp61
I4
aI1000000
absg41
F40.73
sbag1
(g2
g3
Ntp62
Rp63
(dp64
g7
g1
(g8
g3
Ntp65
Rp66
(lp67
I35
aI0
absg12
S'WayPoint2'
p68
sg14
g1
(g15
g3
Ntp69
Rp70
(lp71
g1
(g19
g3
Ntp72
Rp73
(lp74
F-5.25
aF-0.04999999999999716
aF0.0
abag1
(g23
g3
Ntp75
Rp76
(lp77
I0
aI0
aI0
aI1
ababsg27
(lp78
g1
(g29
g3
Ntp79
Rp80
(dp81
g33
F35.0
sg34
F16.0
sg35
F15.0
sbasg36
I01
sg37
g66
sg41
I0
sbag1
(g2
g3
Ntp82
Rp83
(dp84
g7
g1
(g8
g3
Ntp85
Rp86
(lp87
I47
aI800000000
absg12
S'WayPoint3'
p88
sg14
g1
(g15
g3
Ntp89
Rp90
(lp91
g1
(g19
g3
Ntp92
Rp93
(lp94
F-2.6499999999999995
aF-3.8999999999999986
aF0.0
abag1
(g23
g3
Ntp95
Rp96
(lp97
I0
aI0
aI0
aI1
ababsg27
(lp98
g1
(g29
g3
Ntp99
Rp100
(dp101
g33
F47.8
sg34
F12.63
sg35
F44.4
sbasg36
I01
sg37
g86
sg41
I0
sbag1
(g2
g3
Ntp102
Rp103
(dp104
g7
g46
sg12
S'WayPoint4'
p105
sg14
g1
(g15
g3
Ntp106
Rp107
(lp108
g1
(g19
g3
Ntp109
Rp110
(lp111
F3.700000000000001
aF-1.3499999999999979
aF0.0
abag1
(g23
g3
Ntp112
Rp113
(lp114
I0
aI0
aI0
aI1
ababsg27
(lp115
sg36
I00
sg37
g1
(g8
g3
Ntp116
Rp117
(lp118
I4
aI200000000
absg41
F32.47
sbag1
(g2
g3
Ntp119
Rp120
(dp121
g7
g46
sg12
S'WayPoint5'
p122
sg14
g1
(g15
g3
Ntp123
Rp124
(lp125
g1
(g19
g3
Ntp126
Rp127
(lp128
F7.650000000000002
aF-1.4999999999999982
aF0.0
abag1
(g23
g3
Ntp129
Rp130
(lp131
I0
aI0
aI0
aI1
ababsg27
(lp132
sg36
I00
sg37
g60
sg41
F48.11
sbag1
(g2
g3
Ntp133
Rp134
(dp135
g7
g46
sg12
S'WayPoint6'
p136
sg14
g1
(g15
g3
Ntp137
Rp138
(lp139
g1
(g19
g3
Ntp140
Rp141
(lp142
F4.350000000000001
aF1.6000000000000023
aF0.0
abag1
(g23
g3
Ntp143
Rp144
(lp145
I0
aI0
aI0
aI1
ababsg27
(lp146
sg36
I00
sg37
g1
(g8
g3
Ntp147
Rp148
(lp149
I36
aI2000000
absg41
F38.78
sbag1
(g2
g3
Ntp150
Rp151
(dp152
g7
g46
sg12
S'WayPoint7'
p153
sg14
g1
(g15
g3
Ntp154
Rp155
(lp156
g1
(g19
g3
Ntp157
Rp158
(lp159
F1.700000000000001
aF1.6500000000000021
aF0.0
abag1
(g23
g3
Ntp160
Rp161
(lp162
I0
aI0
aI0
aI1
ababsg27
(lp163
sg36
I01
sg37
g46
sg41
I0
sbag1
(g2
g3
Ntp164
Rp165
(dp166
g7
g46
sg12
S'WayPoint8'
p167
sg14
g1
(g15
g3
Ntp168
Rp169
(lp170
g1
(g19
g3
Ntp171
Rp172
(lp173
F0.9000000000000004
aF4.350000000000002
aF0.0
abag1
(g23
g3
Ntp174
Rp175
(lp176
I0
aI0
aI0
aI1
ababsg27
(lp177
sg36
I00
sg37
g60
sg41
F28.72
sbag1
(g2
g3
Ntp178
Rp179
(dp180
g7
g46
sg12
S'WayPoint9'
p181
sg14
g1
(g15
g3
Ntp182
Rp183
(lp184
g1
(g19
g3
Ntp185
Rp186
(lp187
F5.0
aF4.600000000000002
aF0.0
abag1
(g23
g3
Ntp188
Rp189
(lp190
I0
aI0
aI0
aI1
ababsg27
(lp191
sg36
I00
sg37
g1
(g8
g3
Ntp192
Rp193
(lp194
I3
aI800000000
absg41
F38.52
sba.