(lp0
ccopy_reg
_reconstructor
p1
(cdestination
Destination
p2
c__builtin__
object
p3
Ntp4
Rp5
(dp6
S'_Destination__latest_usage'
p7
g1
(crospy.rostime
Time
p8
g3
Ntp9
Rp10
(lp11
I0
aI0
absS'name'
p12
S'WayPoint1'
p13
sS'pose'
p14
g1
(cgeometry_msgs.msg._Pose
Pose
p15
g3
Ntp16
Rp17
(lp18
g1
(cgeometry_msgs.msg._Point
Point
p19
g3
Ntp20
Rp21
(lp22
F-1.549999999999999
aF-0.8999999999999986
aF0.0
abag1
(cgeometry_msgs.msg._Quaternion
Quaternion
p23
g3
Ntp24
Rp25
(lp26
I0
aI0
aI0
aI1
ababsS'_Destination__stats'
p27
(lp28
sS'_Destination__available'
p29
I00
sS'_Destination__remaining_idl'
p30
g1
(g8
g3
Ntp31
Rp32
(lp33
I44
aI400000000
absS'estim_idl'
p34
F34.91
sbag1
(g2
g3
Ntp35
Rp36
(dp37
g7
g1
(g8
g3
Ntp38
Rp39
(lp40
I56
aI1000000
absg12
S'WayPoint10'
p41
sg14
g1
(g15
g3
Ntp42
Rp43
(lp44
g1
(g19
g3
Ntp45
Rp46
(lp47
F-2.75
aF4.0500000000000025
aF0.0
abag1
(g23
g3
Ntp48
Rp49
(lp50
I0
aI0
aI0
aI1
ababsg27
(lp51
g1
(cdestination
Idleness
p52
g3
Ntp53
Rp54
(dp55
S'_Idleness__true_idl'
p56
F56.001
sS'_Idleness__estim_idl'
p57
F45.98
sS'_Idleness__remaining_idl'
p58
F52.001
sbasg29
I01
sg30
g39
sg34
I0
sbag1
(g2
g3
Ntp59
Rp60
(dp61
g7
g1
(g8
g3
Ntp62
Rp63
(lp64
I50
aI1000000
absg12
S'WayPoint2'
p65
sg14
g1
(g15
g3
Ntp66
Rp67
(lp68
g1
(g19
g3
Ntp69
Rp70
(lp71
F-5.25
aF-0.04999999999999716
aF0.0
abag1
(g23
g3
Ntp72
Rp73
(lp74
I0
aI0
aI0
aI1
ababsg27
(lp75
g1
(g52
g3
Ntp76
Rp77
(dp78
g56
F50.001
sg57
F36.28
sg58
F46.001
sbasg29
I00
sg30
g1
(g8
g3
Ntp79
Rp80
(lp81
I53
aI0
absg34
F36.3
sbag1
(g2
g3
Ntp82
Rp83
(dp84
g7
g1
(g8
g3
Ntp85
Rp86
(lp87
I42
aI1000000
absg12
S'WayPoint3'
p88
sg14
g1
(g15
g3
Ntp89
Rp90
(lp91
g1
(g19
g3
Ntp92
Rp93
(lp94
F-2.6499999999999995
aF-3.8999999999999986
aF0.0
abag1
(g23
g3
Ntp95
Rp96
(lp97
I0
aI0
aI0
aI1
ababsg27
(lp98
g1
(g52
g3
Ntp99
Rp100
(dp101
g56
F40.4
sg57
F12.63
sg58
F37.998
sbag1
(g52
g3
Ntp102
Rp103
(dp104
g56
F1.601
sg57
F0.0
sg58
F1.001
sbasg29
I00
sg30
g1
(g8
g3
Ntp105
Rp106
(lp107
I57
aI0
absg34
F45.29
sbag1
(g2
g3
Ntp108
Rp109
(dp110
g7
g1
(g8
g3
Ntp111
Rp112
(lp113
I52
aI0
absg12
S'WayPoint4'
p114
sg14
g1
(g15
g3
Ntp115
Rp116
(lp117
g1
(g19
g3
Ntp118
Rp119
(lp120
F3.700000000000001
aF-1.3499999999999979
aF0.0
abag1
(g23
g3
Ntp121
Rp122
(lp123
I0
aI0
aI0
aI1
ababsg27
(lp124
g1
(g52
g3
Ntp125
Rp126
(dp127
g56
F52.0
sg57
F32.83
sg58
F48.0
sbasg29
I01
sg30
g112
sg34
I0
sbag1
(g2
g3
Ntp128
Rp129
(dp130
g7
g10
sg12
S'WayPoint5'
p131
sg14
g1
(g15
g3
Ntp132
Rp133
(lp134
g1
(g19
g3
Ntp135
Rp136
(lp137
F7.650000000000002
aF-1.4999999999999982
aF0.0
abag1
(g23
g3
Ntp138
Rp139
(lp140
I0
aI0
aI0
aI1
ababsg27
(lp141
sg29
I00
sg30
g1
(g8
g3
Ntp142
Rp143
(lp144
I37
aI1000000
absg34
F47.8
sbag1
(g2
g3
Ntp145
Rp146
(dp147
g7
g10
sg12
S'WayPoint6'
p148
sg14
g1
(g15
g3
Ntp149
Rp150
(lp151
g1
(g19
g3
Ntp152
Rp153
(lp154
F4.350000000000001
aF1.6000000000000023
aF0.0
abag1
(g23
g3
Ntp155
Rp156
(lp157
I0
aI0
aI0
aI1
ababsg27
(lp158
sg29
I00
sg30
g1
(g8
g3
Ntp159
Rp160
(lp161
I43
aI0
absg34
F0.0
sbag1
(g2
g3
Ntp162
Rp163
(dp164
g7
g10
sg12
S'WayPoint7'
p165
sg14
g1
(g15
g3
Ntp166
Rp167
(lp168
g1
(g19
g3
Ntp169
Rp170
(lp171
F1.700000000000001
aF1.6500000000000021
aF0.0
abag1
(g23
g3
Ntp172
Rp173
(lp174
I0
aI0
aI0
aI1
ababsg27
(lp175
sg29
I00
sg30
g1
(g8
g3
Ntp176
Rp177
(lp178
I2
aI402000000
absg34
F19.44
sbag1
(g2
g3
Ntp179
Rp180
(dp181
g7
g1
(g8
g3
Ntp182
Rp183
(lp184
I36
aI0
absg12
S'WayPoint8'
p185
sg14
g1
(g15
g3
Ntp186
Rp187
(lp188
g1
(g19
g3
Ntp189
Rp190
(lp191
F0.9000000000000004
aF4.350000000000002
aF0.0
abag1
(g23
g3
Ntp192
Rp193
(lp194
I0
aI0
aI0
aI1
ababsg27
(lp195
g1
(g52
g3
Ntp196
Rp197
(dp198
g56
F36.0
sg57
F26.0
sg58
F32.0
sbasg29
I00
sg30
g1
(g8
g3
Ntp199
Rp200
(lp201
I51
aI0
absg34
F38.07
sbag1
(g2
g3
Ntp202
Rp203
(dp204
g7
g1
(g8
g3
Ntp205
Rp206
(lp207
I43
aI806000000
absg12
S'WayPoint9'
p208
sg14
g1
(g15
g3
Ntp209
Rp210
(lp211
g1
(g19
g3
Ntp212
Rp213
(lp214
F5.0
aF4.600000000000002
aF0.0
abag1
(g23
g3
Ntp215
Rp216
(lp217
I0
aI0
aI0
aI1
ababsg27
(lp218
g1
(g52
g3
Ntp219
Rp220
(dp221
g56
F43.806
sg57
F28.54
sg58
F40.006
sbasg29
I01
sg30
g206
sg34
I0
sba.