(lp0
ccopy_reg
_reconstructor
p1
(cdestination
Destination
p2
c__builtin__
object
p3
Ntp4
Rp5
(dp6
S'_Destination__latest_usage'
p7
g1
(crospy.rostime
Time
p8
g3
Ntp9
Rp10
(lp11
I29
aI800000000
absS'name'
p12
S'WayPoint1'
p13
sS'pose'
p14
g1
(cgeometry_msgs.msg._Pose
Pose
p15
g3
Ntp16
Rp17
(lp18
g1
(cgeometry_msgs.msg._Point
Point
p19
g3
Ntp20
Rp21
(lp22
F-2.75
aF1.0500000000000025
aF0.0
abag1
(cgeometry_msgs.msg._Quaternion
Quaternion
p23
g3
Ntp24
Rp25
(lp26
I0
aI0
aI0
aI1
ababsS'path_len'
p27
F0.0
sS'_Destination__stats'
p28
(lp29
g1
(cdestination
Observation
p30
g3
Ntp31
Rp32
(dp33
S'idleness'
p34
g1
(cdestination
Idleness
p35
g3
Ntp36
Rp37
(dp38
S'_Idleness__true_idl'
p39
F29.8
sS'_Idleness__estim_idl'
p40
F16.4
sS'_Idleness__remaining_idl'
p41
F27.0
sbsg27
F4.264
sbasS'_Destination__available'
p42
I01
sS'_Destination__remaining_idl'
p43
g10
sS'estim_idl'
p44
I0
sbag1
(g2
g3
Ntp45
Rp46
(dp47
g7
g1
(g8
g3
Ntp48
Rp49
(lp50
I0
aI0
absg12
S'WayPoint2'
p51
sg14
g1
(g15
g3
Ntp52
Rp53
(lp54
g1
(g19
g3
Ntp55
Rp56
(lp57
F5.15
aF0.9000000000000021
aF0.0
abag1
(g23
g3
Ntp58
Rp59
(lp60
I0
aI0
aI0
aI1
ababsg27
F13.703
sg28
(lp61
sg42
I00
sg43
g1
(g8
g3
Ntp62
Rp63
(lp64
I34
aI203000000
absg44
F52.7
sbag1
(g2
g3
Ntp65
Rp66
(dp67
g7
g1
(g8
g3
Ntp68
Rp69
(lp70
I15
aI600000000
absg12
S'WayPoint3'
p71
sg14
g1
(g15
g3
Ntp72
Rp73
(lp74
g1
(g19
g3
Ntp75
Rp76
(lp77
F4.850000000000001
aF3.900000000000002
aF0.0
abag1
(g23
g3
Ntp78
Rp79
(lp80
I0
aI0
aI0
aI1
ababsg27
F0.0
sg28
(lp81
g1
(g30
g3
Ntp82
Rp83
(dp84
g34
g1
(g35
g3
Ntp85
Rp86
(dp87
g39
F15.6
sg40
F11.98
sg41
F12.998
sbsg27
F3.116
sbasg42
I01
sg43
g69
sg44
I0
sbag1
(g2
g3
Ntp88
Rp89
(dp90
g7
g49
sg12
S'WayPoint4'
p91
sg14
g1
(g15
g3
Ntp92
Rp93
(lp94
g1
(g19
g3
Ntp95
Rp96
(lp97
F1.200000000000001
aF3.1000000000000023
aF0.0
abag1
(g23
g3
Ntp98
Rp99
(lp100
I0
aI0
aI0
aI1
ababsg27
F20.913
sg28
(lp101
sg42
I00
sg43
g1
(g8
g3
Ntp102
Rp103
(lp104
I2
aI602000000
absg44
F80.43
sbag1
(g2
g3
Ntp105
Rp106
(dp107
g7
g49
sg12
S'WayPoint5'
p108
sg14
g1
(g15
g3
Ntp109
Rp110
(lp111
g1
(g19
g3
Ntp112
Rp113
(lp114
F5.800000000000001
aF-4.349999999999998
aF0.0
abag1
(g23
g3
Ntp115
Rp116
(lp117
I0
aI0
aI0
aI1
ababsg27
F8.903
sg28
(lp118
sg42
I00
sg43
g1
(g8
g3
Ntp119
Rp120
(lp121
I16
aI200000000
absg44
F34.24
sbag1
(g2
g3
Ntp122
Rp123
(dp124
g7
g1
(g8
g3
Ntp125
Rp126
(lp127
I33
aI600000000
absg12
S'WayPoint6'
p128
sg14
g1
(g15
g3
Ntp129
Rp130
(lp131
g1
(g19
g3
Ntp132
Rp133
(lp134
F-6.15
aF3.150000000000002
aF0.0
abag1
(g23
g3
Ntp135
Rp136
(lp137
I0
aI0
aI0
aI1
ababsg27
F0.0
sg28
(lp138
g1
(g30
g3
Ntp139
Rp140
(dp141
g34
g1
(g35
g3
Ntp142
Rp143
(dp144
g39
F33.6
sg40
F16.38
sg41
F30.998
sbsg27
F4.258
sbasg42
I01
sg43
g126
sg44
I0
sbag1
(g2
g3
Ntp145
Rp146
(dp147
g7
g49
sg12
S'WayPoint7'
p148
sg14
g1
(g15
g3
Ntp149
Rp150
(lp151
g1
(g19
g3
Ntp152
Rp153
(lp154
F-6.3
aF-1.8999999999999986
aF0.0
abag1
(g23
g3
Ntp155
Rp156
(lp157
I0
aI0
aI0
aI1
ababsg27
F8.454
sg28
(lp158
sg42
I00
sg43
g1
(g8
g3
Ntp159
Rp160
(lp161
I30
aI800000000
absg44
F32.52
sba.