(lp0
ccopy_reg
_reconstructor
p1
(cdestination
Destination
p2
c__builtin__
object
p3
Ntp4
Rp5
(dp6
S'_Destination__latest_usage'
p7
g1
(crospy.rostime
Time
p8
g3
Ntp9
Rp10
(lp11
I0
aI0
absS'name'
p12
S'WayPoint1'
p13
sS'pose'
p14
g1
(cgeometry_msgs.msg._Pose
Pose
p15
g3
Ntp16
Rp17
(lp18
g1
(cgeometry_msgs.msg._Point
Point
p19
g3
Ntp20
Rp21
(lp22
F-2.75
aF1.0500000000000025
aF0.0
abag1
(cgeometry_msgs.msg._Quaternion
Quaternion
p23
g3
Ntp24
Rp25
(lp26
I0
aI0
aI0
aI1
ababsS'path_len'
p27
F0.0
sS'_Destination__stats'
p28
(lp29
sS'_Destination__available'
p30
I01
sS'_Destination__remaining_idl'
p31
g10
sS'estim_idl'
p32
I0
sbag1
(g2
g3
Ntp33
Rp34
(dp35
g7
g10
sg12
S'WayPoint2'
p36
sg14
g1
(g15
g3
Ntp37
Rp38
(lp39
g1
(g19
g3
Ntp40
Rp41
(lp42
F5.15
aF0.9000000000000021
aF0.0
abag1
(g23
g3
Ntp43
Rp44
(lp45
I0
aI0
aI0
aI1
ababsg27
F16.566
sg28
(lp46
sg30
I00
sg31
g1
(g8
g3
Ntp47
Rp48
(lp49
I2
aI800000000
absg32
F63.72
sbag1
(g2
g3
Ntp50
Rp51
(dp52
g7
g1
(g8
g3
Ntp53
Rp54
(lp55
I16
aI800000000
absg12
S'WayPoint3'
p56
sg14
g1
(g15
g3
Ntp57
Rp58
(lp59
g1
(g19
g3
Ntp60
Rp61
(lp62
F4.850000000000001
aF3.900000000000002
aF0.0
abag1
(g23
g3
Ntp63
Rp64
(lp65
I0
aI0
aI0
aI1
ababsg27
F0.0
sg28
(lp66
g1
(cdestination
Observation
p67
g3
Ntp68
Rp69
(dp70
S'idleness'
p71
g1
(cdestination
Idleness
p72
g3
Ntp73
Rp74
(dp75
S'_Idleness__true_idl'
p76
F16.8
sS'_Idleness__estim_idl'
p77
F11.98
sS'_Idleness__remaining_idl'
p78
F14.0
sbsg27
F3.116
sbasg30
I01
sg31
g54
sg32
I0
sbag1
(g2
g3
Ntp79
Rp80
(dp81
g7
g10
sg12
S'WayPoint4'
p82
sg14
g1
(g15
g3
Ntp83
Rp84
(lp85
g1
(g19
g3
Ntp86
Rp87
(lp88
F1.200000000000001
aF3.1000000000000023
aF0.0
abag1
(g23
g3
Ntp89
Rp90
(lp91
I0
aI0
aI0
aI1
ababsg27
F12.546
sg28
(lp92
sg30
I00
sg31
g1
(g8
g3
Ntp93
Rp94
(lp95
I2
aI600000000
absg32
F48.25
sbag1
(g2
g3
Ntp96
Rp97
(dp98
g7
g10
sg12
S'WayPoint5'
p99
sg14
g1
(g15
g3
Ntp100
Rp101
(lp102
g1
(g19
g3
Ntp103
Rp104
(lp105
F5.800000000000001
aF-4.349999999999998
aF0.0
abag1
(g23
g3
Ntp106
Rp107
(lp108
I0
aI0
aI0
aI1
ababsg27
F22.322
sg28
(lp109
sg30
I00
sg31
g1
(g8
g3
Ntp110
Rp111
(lp112
I39
aI200000000
absg32
F85.85
sbag1
(g2
g3
Ntp113
Rp114
(dp115
g7
g10
sg12
S'WayPoint6'
p116
sg14
g1
(g15
g3
Ntp117
Rp118
(lp119
g1
(g19
g3
Ntp120
Rp121
(lp122
F-6.15
aF3.150000000000002
aF0.0
abag1
(g23
g3
Ntp123
Rp124
(lp125
I0
aI0
aI0
aI1
ababsg27
F14.387
sg28
(lp126
sg30
I00
sg31
g1
(g8
g3
Ntp127
Rp128
(lp129
I17
aI800000000
absg32
F55.33
sbag1
(g2
g3
Ntp130
Rp131
(dp132
g7
g1
(g8
g3
Ntp133
Rp134
(lp135
I37
aI601000000
absg12
S'WayPoint7'
p136
sg14
g1
(g15
g3
Ntp137
Rp138
(lp139
g1
(g19
g3
Ntp140
Rp141
(lp142
F-6.3
aF-1.8999999999999986
aF0.0
abag1
(g23
g3
Ntp143
Rp144
(lp145
I0
aI0
aI0
aI1
ababsg27
F0.0
sg28
(lp146
g1
(g67
g3
Ntp147
Rp148
(dp149
g71
g1
(g72
g3
Ntp150
Rp151
(dp152
g76
F37.601
sg77
F19.79
sg78
F35.001
sbsg27
F5.146
sbasg30
I01
sg31
g134
sg32
I0
sba.