(lp0
ccopy_reg
_reconstructor
p1
(cdestination
Destination
p2
c__builtin__
object
p3
Ntp4
Rp5
(dp6
S'_Destination__latest_usage'
p7
g1
(crospy.rostime
Time
p8
g3
Ntp9
Rp10
(lp11
I0
aI0
absS'name'
p12
S'WayPoint1'
p13
sS'pose'
p14
g1
(cgeometry_msgs.msg._Pose
Pose
p15
g3
Ntp16
Rp17
(lp18
g1
(cgeometry_msgs.msg._Point
Point
p19
g3
Ntp20
Rp21
(lp22
F-2.75
aF1.0500000000000025
aF0.0
abag1
(cgeometry_msgs.msg._Quaternion
Quaternion
p23
g3
Ntp24
Rp25
(lp26
I0
aI0
aI0
aI1
ababsS'path_len'
p27
F8.184
sS'_Destination__stats'
p28
(lp29
sS'_Destination__available'
p30
I00
sS'_Destination__remaining_idl'
p31
g1
(g8
g3
Ntp32
Rp33
(lp34
I29
aI600000000
absS'estim_idl'
p35
F31.48
sbag1
(g2
g3
Ntp36
Rp37
(dp38
g7
g1
(g8
g3
Ntp39
Rp40
(lp41
I28
aI600000000
absg12
S'WayPoint2'
p42
sg14
g1
(g15
g3
Ntp43
Rp44
(lp45
g1
(g19
g3
Ntp46
Rp47
(lp48
F5.15
aF0.9000000000000021
aF0.0
abag1
(g23
g3
Ntp49
Rp50
(lp51
I0
aI0
aI0
aI1
ababsg27
F16.559
sg28
(lp52
g1
(cdestination
Observation
p53
g3
Ntp54
Rp55
(dp56
S'idleness'
p57
g1
(cdestination
Idleness
p58
g3
Ntp59
Rp60
(dp61
S'_Idleness__true_idl'
p62
F28.6
sS'_Idleness__estim_idl'
p63
F11.96
sS'_Idleness__remaining_idl'
p64
F12.0
sbsg27
F3.108
sbasg30
I00
sg31
g1
(g8
g3
Ntp65
Rp66
(lp67
I42
aI600000000
absg35
F63.69
sbag1
(g2
g3
Ntp68
Rp69
(dp70
g7
g1
(g8
g3
Ntp71
Rp72
(lp73
I15
aI600000000
absg12
S'WayPoint3'
p74
sg14
g1
(g15
g3
Ntp75
Rp76
(lp77
g1
(g19
g3
Ntp78
Rp79
(lp80
F4.850000000000001
aF3.900000000000002
aF0.0
abag1
(g23
g3
Ntp81
Rp82
(lp83
I0
aI0
aI0
aI1
ababsg27
F14.369
sg28
(lp84
g1
(g53
g3
Ntp85
Rp86
(dp87
g57
g1
(g58
g3
Ntp88
Rp89
(dp90
g62
F15.6
sg63
F11.98
sg64
F13.0
sbsg27
F3.116
sbasg30
I00
sg31
g1
(g8
g3
Ntp91
Rp92
(lp93
I47
aI800000000
absg35
F55.27
sbag1
(g2
g3
Ntp94
Rp95
(dp96
g7
g10
sg12
S'WayPoint4'
p97
sg14
g1
(g15
g3
Ntp98
Rp99
(lp100
g1
(g19
g3
Ntp101
Rp102
(lp103
F1.200000000000001
aF3.1000000000000023
aF0.0
abag1
(g23
g3
Ntp104
Rp105
(lp106
I0
aI0
aI0
aI1
ababsg27
F16.698
sg28
(lp107
sg30
I00
sg31
g1
(g8
g3
Ntp108
Rp109
(lp110
I2
aI600000000
absg35
F64.22
sbag1
(g2
g3
Ntp111
Rp112
(dp113
g7
g10
sg12
S'WayPoint5'
p114
sg14
g1
(g15
g3
Ntp115
Rp116
(lp117
g1
(g19
g3
Ntp118
Rp119
(lp120
F5.800000000000001
aF-4.349999999999998
aF0.0
abag1
(g23
g3
Ntp121
Rp122
(lp123
I0
aI0
aI0
aI1
ababsg27
F0.0
sg28
(lp124
sg30
I01
sg31
g10
sg35
I0
sbag1
(g2
g3
Ntp125
Rp126
(dp127
g7
g1
(g8
g3
Ntp128
Rp129
(lp130
I46
aI800000000
absg12
S'WayPoint6'
p131
sg14
g1
(g15
g3
Ntp132
Rp133
(lp134
g1
(g19
g3
Ntp135
Rp136
(lp137
F-6.15
aF3.150000000000002
aF0.0
abag1
(g23
g3
Ntp138
Rp139
(lp140
I0
aI0
aI0
aI1
ababsg27
F0.0
sg28
(lp141
g1
(g53
g3
Ntp142
Rp143
(dp144
g57
g1
(g58
g3
Ntp145
Rp146
(dp147
g62
F46.8
sg63
F19.9
sg64
F44.0
sbsg27
F5.173
sbasg30
I01
sg31
g129
sg35
I0
sbag1
(g2
g3
Ntp148
Rp149
(dp150
g7
g1
(g8
g3
Ntp151
Rp152
(lp153
I41
aI600000000
absg12
S'WayPoint7'
p154
sg14
g1
(g15
g3
Ntp155
Rp156
(lp157
g1
(g19
g3
Ntp158
Rp159
(lp160
F-6.3
aF-1.8999999999999986
aF0.0
abag1
(g23
g3
Ntp161
Rp162
(lp163
I0
aI0
aI0
aI1
ababsg27
F0.0
sg28
(lp164
g1
(g53
g3
Ntp165
Rp166
(dp167
g57
g1
(g58
g3
Ntp168
Rp169
(dp170
g62
F41.6
sg63
F32.43
sg64
F39.0
sbsg27
F8.431
sbasg30
I01
sg31
g152
sg35
I0
sba.