(lp0
ccopy_reg
_reconstructor
p1
(cdestination
Destination
p2
c__builtin__
object
p3
Ntp4
Rp5
(dp6
S'_Destination__latest_usage'
p7
g1
(crospy.rostime
Time
p8
g3
Ntp9
Rp10
(lp11
I0
aI0
absS'name'
p12
S'WayPoint1'
p13
sS'pose'
p14
g1
(cgeometry_msgs.msg._Pose
Pose
p15
g3
Ntp16
Rp17
(lp18
g1
(cgeometry_msgs.msg._Point
Point
p19
g3
Ntp20
Rp21
(lp22
F-1.549999999999999
aF-0.8999999999999986
aF0.0
abag1
(cgeometry_msgs.msg._Quaternion
Quaternion
p23
g3
Ntp24
Rp25
(lp26
I0
aI0
aI0
aI1
ababsS'_Destination__stats'
p27
(lp28
sS'_Destination__available'
p29
I00
sS'_Destination__remaining_idl'
p30
g1
(g8
g3
Ntp31
Rp32
(lp33
I4
aI200000000
absS'estim_idl'
p34
F20.84
sbag1
(g2
g3
Ntp35
Rp36
(dp37
g7
g10
sg12
S'WayPoint10'
p38
sg14
g1
(g15
g3
Ntp39
Rp40
(lp41
g1
(g19
g3
Ntp42
Rp43
(lp44
F-2.75
aF4.0500000000000025
aF0.0
abag1
(g23
g3
Ntp45
Rp46
(lp47
I0
aI0
aI0
aI1
ababsg27
(lp48
sg29
I00
sg30
g1
(g8
g3
Ntp49
Rp50
(lp51
I3
aI401000000
absg34
F38.76
sbag1
(g2
g3
Ntp52
Rp53
(dp54
g7
g10
sg12
S'WayPoint2'
p55
sg14
g1
(g15
g3
Ntp56
Rp57
(lp58
g1
(g19
g3
Ntp59
Rp60
(lp61
F-5.25
aF-0.04999999999999716
aF0.0
abag1
(g23
g3
Ntp62
Rp63
(lp64
I0
aI0
aI0
aI1
ababsg27
(lp65
sg29
I00
sg30
g1
(g8
g3
Ntp66
Rp67
(lp68
I3
aI601000000
absg34
F38.44
sbag1
(g2
g3
Ntp69
Rp70
(dp71
g7
g10
sg12
S'WayPoint3'
p72
sg14
g1
(g15
g3
Ntp73
Rp74
(lp75
g1
(g19
g3
Ntp76
Rp77
(lp78
F-2.6499999999999995
aF-3.8999999999999986
aF0.0
abag1
(g23
g3
Ntp79
Rp80
(lp81
I0
aI0
aI0
aI1
ababsg27
(lp82
sg29
I00
sg30
g1
(g8
g3
Ntp83
Rp84
(lp85
I35
aI400000000
absg34
F28.54
sbag1
(g2
g3
Ntp86
Rp87
(dp88
g7
g10
sg12
S'WayPoint4'
p89
sg14
g1
(g15
g3
Ntp90
Rp91
(lp92
g1
(g19
g3
Ntp93
Rp94
(lp95
F3.700000000000001
aF-1.3499999999999979
aF0.0
abag1
(g23
g3
Ntp96
Rp97
(lp98
I0
aI0
aI0
aI1
ababsg27
(lp99
sg29
I00
sg30
g32
sg34
F32.47
sbag1
(g2
g3
Ntp100
Rp101
(dp102
g7
g10
sg12
S'WayPoint5'
p103
sg14
g1
(g15
g3
Ntp104
Rp105
(lp106
g1
(g19
g3
Ntp107
Rp108
(lp109
F7.650000000000002
aF-1.4999999999999982
aF0.0
abag1
(g23
g3
Ntp110
Rp111
(lp112
I0
aI0
aI0
aI1
ababsg27
(lp113
sg29
I01
sg30
g10
sg34
I0
sbag1
(g2
g3
Ntp114
Rp115
(dp116
g7
g10
sg12
S'WayPoint6'
p117
sg14
g1
(g15
g3
Ntp118
Rp119
(lp120
g1
(g19
g3
Ntp121
Rp122
(lp123
F4.350000000000001
aF1.6000000000000023
aF0.0
abag1
(g23
g3
Ntp124
Rp125
(lp126
I0
aI0
aI0
aI1
ababsg27
(lp127
sg29
I00
sg30
g1
(g8
g3
Ntp128
Rp129
(lp130
I4
aI0
absg34
F38.7
sbag1
(g2
g3
Ntp131
Rp132
(dp133
g7
g1
(g8
g3
Ntp134
Rp135
(lp136
I34
aI401000000
absg12
S'WayPoint7'
p137
sg14
g1
(g15
g3
Ntp138
Rp139
(lp140
g1
(g19
g3
Ntp141
Rp142
(lp143
F1.700000000000001
aF1.6500000000000021
aF0.0
abag1
(g23
g3
Ntp144
Rp145
(lp146
I0
aI0
aI0
aI1
ababsg27
(lp147
g1
(cdestination
Idleness
p148
g3
Ntp149
Rp150
(dp151
S'_Idleness__true_idl'
p152
F34.401
sS'_Idleness__estim_idl'
p153
F16.19
sS'_Idleness__remaining_idl'
p154
F31.0
sbasg29
I01
sg30
g135
sg34
I0
sbag1
(g2
g3
Ntp155
Rp156
(dp157
g7
g10
sg12
S'WayPoint8'
p158
sg14
g1
(g15
g3
Ntp159
Rp160
(lp161
g1
(g19
g3
Ntp162
Rp163
(lp164
F0.9000000000000004
aF4.350000000000002
aF0.0
abag1
(g23
g3
Ntp165
Rp166
(lp167
I0
aI0
aI0
aI1
ababsg27
(lp168
sg29
I01
sg30
g10
sg34
I0
sbag1
(g2
g3
Ntp169
Rp170
(dp171
g7
g1
(g8
g3
Ntp172
Rp173
(lp174
I60
aI0
absg12
S'WayPoint9'
p175
sg14
g1
(g15
g3
Ntp176
Rp177
(lp178
g1
(g19
g3
Ntp179
Rp180
(lp181
F5.0
aF4.600000000000002
aF0.0
abag1
(g23
g3
Ntp182
Rp183
(lp184
I0
aI0
aI0
aI1
ababsg27
(lp185
g1
(g148
g3
Ntp186
Rp187
(dp188
g152
F60.0
sg153
F38.52
sg154
F56.0
sbasg29
I01
sg30
g173
sg34
I0
sba.