(lp0
ccopy_reg
_reconstructor
p1
(cdestination
Destination
p2
c__builtin__
object
p3
Ntp4
Rp5
(dp6
S'_Destination__latest_usage'
p7
g1
(crospy.rostime
Time
p8
g3
Ntp9
Rp10
(lp11
I53
aI0
absS'name'
p12
S'WayPoint1'
p13
sS'pose'
p14
g1
(cgeometry_msgs.msg._Pose
Pose
p15
g3
Ntp16
Rp17
(lp18
g1
(cgeometry_msgs.msg._Point
Point
p19
g3
Ntp20
Rp21
(lp22
F-1.549999999999999
aF-0.8999999999999986
aF0.0
abag1
(cgeometry_msgs.msg._Quaternion
Quaternion
p23
g3
Ntp24
Rp25
(lp26
I0
aI0
aI0
aI1
ababsS'_Destination__stats'
p27
(lp28
g1
(cdestination
Idleness
p29
g3
Ntp30
Rp31
(dp32
S'_Idleness__true_idl'
p33
F53.0
sS'_Idleness__estim_idl'
p34
F25.63
sS'_Idleness__remaining_idl'
p35
F29.0
sbasS'_Destination__available'
p36
I01
sS'_Destination__remaining_idl'
p37
g10
sS'estim_idl'
p38
I0
sbag1
(g2
g3
Ntp39
Rp40
(dp41
g7
g1
(g8
g3
Ntp42
Rp43
(lp44
I0
aI0
absg12
S'WayPoint10'
p45
sg14
g1
(g15
g3
Ntp46
Rp47
(lp48
g1
(g19
g3
Ntp49
Rp50
(lp51
F-2.75
aF4.0500000000000025
aF0.0
abag1
(g23
g3
Ntp52
Rp53
(lp54
I0
aI0
aI0
aI1
ababsg27
(lp55
sg36
I00
sg37
g1
(g8
g3
Ntp56
Rp57
(lp58
I3
aI800000000
absg38
F38.76
sbag1
(g2
g3
Ntp59
Rp60
(dp61
g7
g43
sg12
S'WayPoint2'
p62
sg14
g1
(g15
g3
Ntp63
Rp64
(lp65
g1
(g19
g3
Ntp66
Rp67
(lp68
F-5.25
aF-0.04999999999999716
aF0.0
abag1
(g23
g3
Ntp69
Rp70
(lp71
I0
aI0
aI0
aI1
ababsg27
(lp72
sg36
I00
sg37
g1
(g8
g3
Ntp73
Rp74
(lp75
I29
aI0
absg38
F29.27
sbag1
(g2
g3
Ntp76
Rp77
(dp78
g7
g1
(g8
g3
Ntp79
Rp80
(lp81
I43
aI802000000
absg12
S'WayPoint3'
p82
sg14
g1
(g15
g3
Ntp83
Rp84
(lp85
g1
(g19
g3
Ntp86
Rp87
(lp88
F-2.6499999999999995
aF-3.8999999999999986
aF0.0
abag1
(g23
g3
Ntp89
Rp90
(lp91
I0
aI0
aI0
aI1
ababsg27
(lp92
g1
(g29
g3
Ntp93
Rp94
(dp95
g33
F43.802
sg34
F12.63
sg35
F40.002
sbasg36
I00
sg37
g1
(g8
g3
Ntp96
Rp97
(lp98
I56
aI200000000
absg38
F13.58
sbag1
(g2
g3
Ntp99
Rp100
(dp101
g7
g43
sg12
S'WayPoint4'
p102
sg14
g1
(g15
g3
Ntp103
Rp104
(lp105
g1
(g19
g3
Ntp106
Rp107
(lp108
F3.700000000000001
aF-1.3499999999999979
aF0.0
abag1
(g23
g3
Ntp109
Rp110
(lp111
I0
aI0
aI0
aI1
ababsg27
(lp112
sg36
I00
sg37
g1
(g8
g3
Ntp113
Rp114
(lp115
I44
aI207000000
absg38
F28.26
sbag1
(g2
g3
Ntp116
Rp117
(dp118
g7
g1
(g8
g3
Ntp119
Rp120
(lp121
I55
aI800000000
absg12
S'WayPoint5'
p122
sg14
g1
(g15
g3
Ntp123
Rp124
(lp125
g1
(g19
g3
Ntp126
Rp127
(lp128
F7.650000000000002
aF-1.4999999999999982
aF0.0
abag1
(g23
g3
Ntp129
Rp130
(lp131
I0
aI0
aI0
aI1
ababsg27
(lp132
g1
(g29
g3
Ntp133
Rp134
(dp135
g33
F55.8
sg34
F51.44
sg35
F52.0
sbasg36
I01
sg37
g120
sg38
I0
sbag1
(g2
g3
Ntp136
Rp137
(dp138
g7
g1
(g8
g3
Ntp139
Rp140
(lp141
I28
aI0
absg12
S'WayPoint6'
p142
sg14
g1
(g15
g3
Ntp143
Rp144
(lp145
g1
(g19
g3
Ntp146
Rp147
(lp148
F4.350000000000001
aF1.6000000000000023
aF0.0
abag1
(g23
g3
Ntp149
Rp150
(lp151
I0
aI0
aI0
aI1
ababsg27
(lp152
g1
(g29
g3
Ntp153
Rp154
(dp155
g33
F28.0
sg34
F20.48
sg35
F24.0
sbasg36
I01
sg37
g140
sg38
I0
sbag1
(g2
g3
Ntp156
Rp157
(dp158
g7
g43
sg12
S'WayPoint7'
p159
sg14
g1
(g15
g3
Ntp160
Rp161
(lp162
g1
(g19
g3
Ntp163
Rp164
(lp165
F1.700000000000001
aF1.6500000000000021
aF0.0
abag1
(g23
g3
Ntp166
Rp167
(lp168
I0
aI0
aI0
aI1
ababsg27
(lp169
sg36
I00
sg37
g57
sg38
F23.09
sbag1
(g2
g3
Ntp170
Rp171
(dp172
g7
g1
(g8
g3
Ntp173
Rp174
(lp175
I23
aI0
absg12
S'WayPoint8'
p176
sg14
g1
(g15
g3
Ntp177
Rp178
(lp179
g1
(g19
g3
Ntp180
Rp181
(lp182
F0.9000000000000004
aF4.350000000000002
aF0.0
abag1
(g23
g3
Ntp183
Rp184
(lp185
I0
aI0
aI0
aI1
ababsg27
(lp186
g1
(g29
g3
Ntp187
Rp188
(dp189
g33
F23.0
sg34
F20.54
sg35
F19.0
sbasg36
I00
sg37
g1
(g8
g3
Ntp190
Rp191
(lp192
I54
aI2000000
absg38
F25.65
sbag1
(g2
g3
Ntp193
Rp194
(dp195
g7
g43
sg12
S'WayPoint9'
p196
sg14
g1
(g15
g3
Ntp197
Rp198
(lp199
g1
(g19
g3
Ntp200
Rp201
(lp202
F5.0
aF4.600000000000002
aF0.0
abag1
(g23
g3
Ntp203
Rp204
(lp205
I0
aI0
aI0
aI1
ababsg27
(lp206
sg36
I00
sg37
g57
sg38
F38.52
sba.