(lp0
ccopy_reg
_reconstructor
p1
(cdestination
Destination
p2
c__builtin__
object
p3
Ntp4
Rp5
(dp6
S'_Destination__latest_usage'
p7
g1
(crospy.rostime
Time
p8
g3
Ntp9
Rp10
(lp11
I0
aI0
absS'name'
p12
S'WayPoint1'
p13
sS'pose'
p14
g1
(cgeometry_msgs.msg._Pose
Pose
p15
g3
Ntp16
Rp17
(lp18
g1
(cgeometry_msgs.msg._Point
Point
p19
g3
Ntp20
Rp21
(lp22
F-1.549999999999999
aF-0.8999999999999986
aF0.0
abag1
(cgeometry_msgs.msg._Quaternion
Quaternion
p23
g3
Ntp24
Rp25
(lp26
I0
aI0
aI0
aI1
ababsS'_Destination__stats'
p27
(lp28
sS'_Destination__available'
p29
I00
sS'_Destination__remaining_idl'
p30
g1
(g8
g3
Ntp31
Rp32
(lp33
I2
aI803000000
absS'estim_idl'
p34
F35.28
sbag1
(g2
g3
Ntp35
Rp36
(dp37
g7
g10
sg12
S'WayPoint10'
p38
sg14
g1
(g15
g3
Ntp39
Rp40
(lp41
g1
(g19
g3
Ntp42
Rp43
(lp44
F-2.75
aF4.0500000000000025
aF0.0
abag1
(g23
g3
Ntp45
Rp46
(lp47
I0
aI0
aI0
aI1
ababsg27
(lp48
sg29
I01
sg30
g10
sg34
I0
sbag1
(g2
g3
Ntp49
Rp50
(dp51
g7
g10
sg12
S'WayPoint2'
p52
sg14
g1
(g15
g3
Ntp53
Rp54
(lp55
g1
(g19
g3
Ntp56
Rp57
(lp58
F-5.25
aF-0.04999999999999716
aF0.0
abag1
(g23
g3
Ntp59
Rp60
(lp61
I0
aI0
aI0
aI1
ababsg27
(lp62
sg29
I01
sg30
g10
sg34
I0
sbag1
(g2
g3
Ntp63
Rp64
(dp65
g7
g10
sg12
S'WayPoint3'
p66
sg14
g1
(g15
g3
Ntp67
Rp68
(lp69
g1
(g19
g3
Ntp70
Rp71
(lp72
F-2.6499999999999995
aF-3.8999999999999986
aF0.0
abag1
(g23
g3
Ntp73
Rp74
(lp75
I0
aI0
aI0
aI1
ababsg27
(lp76
sg29
I00
sg30
g1
(g8
g3
Ntp77
Rp78
(lp79
I2
aI600000000
absg34
F12.63
sbag1
(g2
g3
Ntp80
Rp81
(dp82
g7
g10
sg12
S'WayPoint4'
p83
sg14
g1
(g15
g3
Ntp84
Rp85
(lp86
g1
(g19
g3
Ntp87
Rp88
(lp89
F3.700000000000001
aF-1.3499999999999979
aF0.0
abag1
(g23
g3
Ntp90
Rp91
(lp92
I0
aI0
aI0
aI1
ababsg27
(lp93
sg29
I00
sg30
g1
(g8
g3
Ntp94
Rp95
(lp96
I8
aI800000000
absg34
F22.93
sbag1
(g2
g3
Ntp97
Rp98
(dp99
g7
g10
sg12
S'WayPoint5'
p100
sg14
g1
(g15
g3
Ntp101
Rp102
(lp103
g1
(g19
g3
Ntp104
Rp105
(lp106
F7.650000000000002
aF-1.4999999999999982
aF0.0
abag1
(g23
g3
Ntp107
Rp108
(lp109
I0
aI0
aI0
aI1
ababsg27
(lp110
sg29
I00
sg30
g32
sg34
F55.75
sbag1
(g2
g3
Ntp111
Rp112
(dp113
g7
g10
sg12
S'WayPoint6'
p114
sg14
g1
(g15
g3
Ntp115
Rp116
(lp117
g1
(g19
g3
Ntp118
Rp119
(lp120
F4.350000000000001
aF1.6000000000000023
aF0.0
abag1
(g23
g3
Ntp121
Rp122
(lp123
I0
aI0
aI0
aI1
ababsg27
(lp124
sg29
I00
sg30
g78
sg34
F33.08
sbag1
(g2
g3
Ntp125
Rp126
(dp127
g7
g1
(g8
g3
Ntp128
Rp129
(lp130
I7
aI800000000
absg12
S'WayPoint7'
p131
sg14
g1
(g15
g3
Ntp132
Rp133
(lp134
g1
(g19
g3
Ntp135
Rp136
(lp137
F1.700000000000001
aF1.6500000000000021
aF0.0
abag1
(g23
g3
Ntp138
Rp139
(lp140
I0
aI0
aI0
aI1
ababsg27
(lp141
g1
(cdestination
Idleness
p142
g3
Ntp143
Rp144
(dp145
S'_Idleness__true_idl'
p146
F7.8
sS'_Idleness__estim_idl'
p147
F10.54
sS'_Idleness__remaining_idl'
p148
F4.997
sbasg29
I01
sg30
g129
sg34
I0
sbag1
(g2
g3
Ntp149
Rp150
(dp151
g7
g10
sg12
S'WayPoint8'
p152
sg14
g1
(g15
g3
Ntp153
Rp154
(lp155
g1
(g19
g3
Ntp156
Rp157
(lp158
F0.9000000000000004
aF4.350000000000002
aF0.0
abag1
(g23
g3
Ntp159
Rp160
(lp161
I0
aI0
aI0
aI1
ababsg27
(lp162
sg29
I01
sg30
g10
sg34
I0
sbag1
(g2
g3
Ntp163
Rp164
(dp165
g7
g10
sg12
S'WayPoint9'
p166
sg14
g1
(g15
g3
Ntp167
Rp168
(lp169
g1
(g19
g3
Ntp170
Rp171
(lp172
F5.0
aF4.600000000000002
aF0.0
abag1
(g23
g3
Ntp173
Rp174
(lp175
I0
aI0
aI0
aI1
ababsg27
(lp176
sg29
I01
sg30
g10
sg34
I0
sba.