(lp0
ccopy_reg
_reconstructor
p1
(cdestination
Destination
p2
c__builtin__
object
p3
Ntp4
Rp5
(dp6
S'_Destination__latest_usage'
p7
g1
(crospy.rostime
Time
p8
g3
Ntp9
Rp10
(lp11
I37
aI0
absS'name'
p12
S'WayPoint1'
p13
sS'pose'
p14
g1
(cgeometry_msgs.msg._Pose
Pose
p15
g3
Ntp16
Rp17
(lp18
g1
(cgeometry_msgs.msg._Point
Point
p19
g3
Ntp20
Rp21
(lp22
F-1.549999999999999
aF-0.8999999999999986
aF0.0
abag1
(cgeometry_msgs.msg._Quaternion
Quaternion
p23
g3
Ntp24
Rp25
(lp26
I0
aI0
aI0
aI1
ababsS'_Destination__stats'
p27
(lp28
g1
(cdestination
Idleness
p29
g3
Ntp30
Rp31
(dp32
S'_Idleness__true_idl'
p33
F37.0
sS'_Idleness__estim_idl'
p34
F33.53
sS'_Idleness__remaining_idl'
p35
F33.998
sbasS'_Destination__available'
p36
I00
sS'_Destination__remaining_idl'
p37
g1
(g8
g3
Ntp38
Rp39
(lp40
I39
aI401000000
absS'estim_idl'
p41
F16.02
sbag1
(g2
g3
Ntp42
Rp43
(dp44
g7
g1
(g8
g3
Ntp45
Rp46
(lp47
I0
aI0
absg12
S'WayPoint10'
p48
sg14
g1
(g15
g3
Ntp49
Rp50
(lp51
g1
(g19
g3
Ntp52
Rp53
(lp54
F-2.75
aF4.0500000000000025
aF0.0
abag1
(g23
g3
Ntp55
Rp56
(lp57
I0
aI0
aI0
aI1
ababsg27
(lp58
sg36
I00
sg37
g1
(g8
g3
Ntp59
Rp60
(lp61
I38
aI0
absg41
F34.53
sbag1
(g2
g3
Ntp62
Rp63
(dp64
g7
g1
(g8
g3
Ntp65
Rp66
(lp67
I38
aI400000000
absg12
S'WayPoint2'
p68
sg14
g1
(g15
g3
Ntp69
Rp70
(lp71
g1
(g19
g3
Ntp72
Rp73
(lp74
F-5.25
aF-0.04999999999999716
aF0.0
abag1
(g23
g3
Ntp75
Rp76
(lp77
I0
aI0
aI0
aI1
ababsg27
(lp78
g1
(g29
g3
Ntp79
Rp80
(dp81
g33
F38.4
sg34
F36.28
sg35
F34.0
sbasg36
I00
sg37
g1
(g8
g3
Ntp82
Rp83
(lp84
I47
aI0
absg41
F47.86
sbag1
(g2
g3
Ntp85
Rp86
(dp87
g7
g46
sg12
S'WayPoint3'
p88
sg14
g1
(g15
g3
Ntp89
Rp90
(lp91
g1
(g19
g3
Ntp92
Rp93
(lp94
F-2.6499999999999995
aF-3.8999999999999986
aF0.0
abag1
(g23
g3
Ntp95
Rp96
(lp97
I0
aI0
aI0
aI1
ababsg27
(lp98
sg36
I00
sg37
g1
(g8
g3
Ntp99
Rp100
(lp101
I19
aI800000000
absg41
F37.44
sbag1
(g2
g3
Ntp102
Rp103
(dp104
g7
g46
sg12
S'WayPoint4'
p105
sg14
g1
(g15
g3
Ntp106
Rp107
(lp108
g1
(g19
g3
Ntp109
Rp110
(lp111
F3.700000000000001
aF-1.3499999999999979
aF0.0
abag1
(g23
g3
Ntp112
Rp113
(lp114
I0
aI0
aI0
aI1
ababsg27
(lp115
sg36
I01
sg37
g46
sg41
I0
sbag1
(g2
g3
Ntp116
Rp117
(dp118
g7
g46
sg12
S'WayPoint5'
p119
sg14
g1
(g15
g3
Ntp120
Rp121
(lp122
g1
(g19
g3
Ntp123
Rp124
(lp125
F7.650000000000002
aF-1.4999999999999982
aF0.0
abag1
(g23
g3
Ntp126
Rp127
(lp128
I0
aI0
aI0
aI1
ababsg27
(lp129
sg36
I00
sg37
g1
(g8
g3
Ntp130
Rp131
(lp132
I8
aI3000000
absg41
F38.21
sbag1
(g2
g3
Ntp133
Rp134
(dp135
g7
g1
(g8
g3
Ntp136
Rp137
(lp138
I18
aI800000000
absg12
S'WayPoint6'
p139
sg14
g1
(g15
g3
Ntp140
Rp141
(lp142
g1
(g19
g3
Ntp143
Rp144
(lp145
F4.350000000000001
aF1.6000000000000023
aF0.0
abag1
(g23
g3
Ntp146
Rp147
(lp148
I0
aI0
aI0
aI1
ababsg27
(lp149
g1
(g29
g3
Ntp150
Rp151
(dp152
g33
F18.8
sg34
F18.38
sg35
F16.0
sbasg36
I01
sg37
g137
sg41
I0
sbag1
(g2
g3
Ntp153
Rp154
(dp155
g7
g1
(g8
g3
Ntp156
Rp157
(lp158
I7
aI0
absg12
S'WayPoint7'
p159
sg14
g1
(g15
g3
Ntp160
Rp161
(lp162
g1
(g19
g3
Ntp163
Rp164
(lp165
F1.700000000000001
aF1.6500000000000021
aF0.0
abag1
(g23
g3
Ntp166
Rp167
(lp168
I0
aI0
aI0
aI1
ababsg27
(lp169
g1
(g29
g3
Ntp170
Rp171
(dp172
g33
F7.0
sg34
F10.54
sg35
F3.998
sbasg36
I01
sg37
g157
sg41
I0
sbag1
(g2
g3
Ntp173
Rp174
(dp175
g7
g46
sg12
S'WayPoint8'
p176
sg14
g1
(g15
g3
Ntp177
Rp178
(lp179
g1
(g19
g3
Ntp180
Rp181
(lp182
F0.9000000000000004
aF4.350000000000002
aF0.0
abag1
(g23
g3
Ntp183
Rp184
(lp185
I0
aI0
aI0
aI1
ababsg27
(lp186
sg36
I01
sg37
g46
sg41
I0
sbag1
(g2
g3
Ntp187
Rp188
(dp189
g7
g1
(g8
g3
Ntp190
Rp191
(lp192
I46
aI400000000
absg12
S'WayPoint9'
p193
sg14
g1
(g15
g3
Ntp194
Rp195
(lp196
g1
(g19
g3
Ntp197
Rp198
(lp199
F5.0
aF4.600000000000002
aF0.0
abag1
(g23
g3
Ntp200
Rp201
(lp202
I0
aI0
aI0
aI1
ababsg27
(lp203
g1
(g29
g3
Ntp204
Rp205
(dp206
g33
F46.4
sg34
F35.02
sg35
F44.0
sbasg36
I01
sg37
g191
sg41
I0
sba.