(lp0
ccopy_reg
_reconstructor
p1
(cdestination
Destination
p2
c__builtin__
object
p3
Ntp4
Rp5
(dp6
S'_Destination__latest_usage'
p7
g1
(crospy.rostime
Time
p8
g3
Ntp9
Rp10
(lp11
I0
aI0
absS'name'
p12
S'WayPoint1'
p13
sS'pose'
p14
g1
(cgeometry_msgs.msg._Pose
Pose
p15
g3
Ntp16
Rp17
(lp18
g1
(cgeometry_msgs.msg._Point
Point
p19
g3
Ntp20
Rp21
(lp22
F-1.549999999999999
aF-0.8999999999999986
aF0.0
abag1
(cgeometry_msgs.msg._Quaternion
Quaternion
p23
g3
Ntp24
Rp25
(lp26
I0
aI0
aI0
aI1
ababsS'_Destination__stats'
p27
(lp28
sS'_Destination__available'
p29
I01
sS'_Destination__remaining_idl'
p30
g10
sS'estim_idl'
p31
I0
sbag1
(g2
g3
Ntp32
Rp33
(dp34
g7
g10
sg12
S'WayPoint10'
p35
sg14
g1
(g15
g3
Ntp36
Rp37
(lp38
g1
(g19
g3
Ntp39
Rp40
(lp41
F-2.75
aF4.0500000000000025
aF0.0
abag1
(g23
g3
Ntp42
Rp43
(lp44
I0
aI0
aI0
aI1
ababsg27
(lp45
sg29
I00
sg30
g1
(g8
g3
Ntp46
Rp47
(lp48
I20
aI801000000
absg31
F41.14
sbag1
(g2
g3
Ntp49
Rp50
(dp51
g7
g1
(g8
g3
Ntp52
Rp53
(lp54
I38
aI400000000
absg12
S'WayPoint2'
p55
sg14
g1
(g15
g3
Ntp56
Rp57
(lp58
g1
(g19
g3
Ntp59
Rp60
(lp61
F-5.25
aF-0.04999999999999716
aF0.0
abag1
(g23
g3
Ntp62
Rp63
(lp64
I0
aI0
aI0
aI1
ababsg27
(lp65
g1
(cdestination
Idleness
p66
g3
Ntp67
Rp68
(dp69
S'_Idleness__true_idl'
p70
F38.4
sS'_Idleness__estim_idl'
p71
F36.28
sS'_Idleness__remaining_idl'
p72
F35.999
sbasg29
I00
sg30
g1
(g8
g3
Ntp73
Rp74
(lp75
I46
aI0
absg31
F0.0
sbag1
(g2
g3
Ntp76
Rp77
(dp78
g7
g1
(g8
g3
Ntp79
Rp80
(lp81
I45
aI600000000
absg12
S'WayPoint3'
p82
sg14
g1
(g15
g3
Ntp83
Rp84
(lp85
g1
(g19
g3
Ntp86
Rp87
(lp88
F-2.6499999999999995
aF-3.8999999999999986
aF0.0
abag1
(g23
g3
Ntp89
Rp90
(lp91
I0
aI0
aI0
aI1
ababsg27
(lp92
g1
(g66
g3
Ntp93
Rp94
(dp95
g70
F45.6
sg71
F12.63
sg72
F43.0
sbasg29
I01
sg30
g80
sg31
I0
sbag1
(g2
g3
Ntp96
Rp97
(dp98
g7
g10
sg12
S'WayPoint4'
p99
sg14
g1
(g15
g3
Ntp100
Rp101
(lp102
g1
(g19
g3
Ntp103
Rp104
(lp105
F3.700000000000001
aF-1.3499999999999979
aF0.0
abag1
(g23
g3
Ntp106
Rp107
(lp108
I0
aI0
aI0
aI1
ababsg27
(lp109
sg29
I00
sg30
g47
sg31
F22.93
sbag1
(g2
g3
Ntp110
Rp111
(dp112
g7
g10
sg12
S'WayPoint5'
p113
sg14
g1
(g15
g3
Ntp114
Rp115
(lp116
g1
(g19
g3
Ntp117
Rp118
(lp119
F7.650000000000002
aF-1.4999999999999982
aF0.0
abag1
(g23
g3
Ntp120
Rp121
(lp122
I0
aI0
aI0
aI1
ababsg27
(lp123
sg29
I00
sg30
g1
(g8
g3
Ntp124
Rp125
(lp126
I38
aI803000000
absg31
F51.42
sbag1
(g2
g3
Ntp127
Rp128
(dp129
g7
g1
(g8
g3
Ntp130
Rp131
(lp132
I19
aI800000000
absg12
S'WayPoint6'
p133
sg14
g1
(g15
g3
Ntp134
Rp135
(lp136
g1
(g19
g3
Ntp137
Rp138
(lp139
F4.350000000000001
aF1.6000000000000023
aF0.0
abag1
(g23
g3
Ntp140
Rp141
(lp142
I0
aI0
aI0
aI1
ababsg27
(lp143
g1
(g66
g3
Ntp144
Rp145
(dp146
g70
F19.8
sg71
F18.38
sg72
F17.0
sbasg29
I01
sg30
g131
sg31
I0
sbag1
(g2
g3
Ntp147
Rp148
(dp149
g7
g131
sg12
S'WayPoint7'
p150
sg14
g1
(g15
g3
Ntp151
Rp152
(lp153
g1
(g19
g3
Ntp154
Rp155
(lp156
F1.700000000000001
aF1.6500000000000021
aF0.0
abag1
(g23
g3
Ntp157
Rp158
(lp159
I0
aI0
aI0
aI1
ababsg27
(lp160
g1
(g66
g3
Ntp161
Rp162
(dp163
g70
F19.8
sg71
F20.54
sg72
F17.0
sbasg29
I01
sg30
g131
sg31
I0
sbag1
(g2
g3
Ntp164
Rp165
(dp166
g7
g10
sg12
S'WayPoint8'
p167
sg14
g1
(g15
g3
Ntp168
Rp169
(lp170
g1
(g19
g3
Ntp171
Rp172
(lp173
F0.9000000000000004
aF4.350000000000002
aF0.0
abag1
(g23
g3
Ntp174
Rp175
(lp176
I0
aI0
aI0
aI1
ababsg27
(lp177
sg29
I00
sg30
g47
sg31
F20.52
sbag1
(g2
g3
Ntp178
Rp179
(dp180
g7
g131
sg12
S'WayPoint9'
p181
sg14
g1
(g15
g3
Ntp182
Rp183
(lp184
g1
(g19
g3
Ntp185
Rp186
(lp187
F5.0
aF4.600000000000002
aF0.0
abag1
(g23
g3
Ntp188
Rp189
(lp190
I0
aI0
aI0
aI1
ababsg27
(lp191
g1
(g66
g3
Ntp192
Rp193
(dp194
g70
F19.8
sg71
F18.22
sg72
F17.0
sbasg29
I01
sg30
g131
sg31
I0
sba.