(lp0
ccopy_reg
_reconstructor
p1
(cdestination
Destination
p2
c__builtin__
object
p3
Ntp4
Rp5
(dp6
S'_Destination__latest_usage'
p7
g1
(crospy.rostime
Time
p8
g3
Ntp9
Rp10
(lp11
I56
aI800000000
absS'name'
p12
S'WayPoint1'
p13
sS'pose'
p14
g1
(cgeometry_msgs.msg._Pose
Pose
p15
g3
Ntp16
Rp17
(lp18
g1
(cgeometry_msgs.msg._Point
Point
p19
g3
Ntp20
Rp21
(lp22
F-1.549999999999999
aF-0.8999999999999986
aF0.0
abag1
(cgeometry_msgs.msg._Quaternion
Quaternion
p23
g3
Ntp24
Rp25
(lp26
I0
aI0
aI0
aI1
ababsS'path_len'
p27
F0.0
sS'_Destination__stats'
p28
(lp29
g1
(cdestination
Observation
p30
g3
Ntp31
Rp32
(dp33
S'idleness'
p34
g1
(cdestination
Idleness
p35
g3
Ntp36
Rp37
(dp38
S'_Idleness__true_idl'
p39
F56.8
sS'_Idleness__estim_idl'
p40
F16.02
sS'_Idleness__remaining_idl'
p41
F17.0
sbsg27
F4.165
sbasS'_Destination__available'
p42
I01
sS'_Destination__remaining_idl'
p43
g10
sS'estim_idl'
p44
I0
sbag1
(g2
g3
Ntp45
Rp46
(dp47
g7
g1
(g8
g3
Ntp48
Rp49
(lp50
I0
aI0
absg12
S'WayPoint10'
p51
sg14
g1
(g15
g3
Ntp52
Rp53
(lp54
g1
(g19
g3
Ntp55
Rp56
(lp57
F-2.75
aF4.0500000000000025
aF0.0
abag1
(g23
g3
Ntp58
Rp59
(lp60
I0
aI0
aI0
aI1
ababsg27
F10.562
sg28
(lp61
sg42
I00
sg43
g1
(g8
g3
Ntp62
Rp63
(lp64
I54
aI800000000
absg44
F40.62
sbag1
(g2
g3
Ntp65
Rp66
(dp67
g7
g1
(g8
g3
Ntp68
Rp69
(lp70
I38
aI800000000
absg12
S'WayPoint2'
p71
sg14
g1
(g15
g3
Ntp72
Rp73
(lp74
g1
(g19
g3
Ntp75
Rp76
(lp77
F-5.25
aF-0.04999999999999716
aF0.0
abag1
(g23
g3
Ntp78
Rp79
(lp80
I0
aI0
aI0
aI1
ababsg27
F4.163
sg28
(lp81
g1
(g30
g3
Ntp82
Rp83
(dp84
g34
g1
(g35
g3
Ntp85
Rp86
(dp87
g39
F38.8
sg40
F36.28
sg41
F34.999
sbsg27
F9.432
sbasg42
I00
sg43
g1
(g8
g3
Ntp88
Rp89
(lp90
I57
aI802000000
absg44
F16.01
sbag1
(g2
g3
Ntp91
Rp92
(dp93
g7
g1
(g8
g3
Ntp94
Rp95
(lp96
I17
aI800000000
absg12
S'WayPoint3'
p97
sg14
g1
(g15
g3
Ntp98
Rp99
(lp100
g1
(g19
g3
Ntp101
Rp102
(lp103
F-2.6499999999999995
aF-3.8999999999999986
aF0.0
abag1
(g23
g3
Ntp104
Rp105
(lp106
I0
aI0
aI0
aI1
ababsg27
F0.0
sg28
(lp107
g1
(g30
g3
Ntp108
Rp109
(dp110
g34
g1
(g35
g3
Ntp111
Rp112
(dp113
g39
F17.8
sg40
F12.63
sg41
F13.999
sbsg27
F3.283
sbasg42
I01
sg43
g95
sg44
I0
sbag1
(g2
g3
Ntp114
Rp115
(dp116
g7
g1
(g8
g3
Ntp117
Rp118
(lp119
I53
aI800000000
absg12
S'WayPoint4'
p120
sg14
g1
(g15
g3
Ntp121
Rp122
(lp123
g1
(g19
g3
Ntp124
Rp125
(lp126
F3.700000000000001
aF-1.3499999999999979
aF0.0
abag1
(g23
g3
Ntp127
Rp128
(lp129
I0
aI0
aI0
aI1
ababsg27
F0.0
sg28
(lp130
g1
(g30
g3
Ntp131
Rp132
(dp133
g34
g1
(g35
g3
Ntp134
Rp135
(dp136
g39
F53.8
sg40
F28.26
sg41
F35.0
sbsg27
F7.348
sbasg42
I01
sg43
g118
sg44
I0
sbag1
(g2
g3
Ntp137
Rp138
(dp139
g7
g49
sg12
S'WayPoint5'
p140
sg14
g1
(g15
g3
Ntp141
Rp142
(lp143
g1
(g19
g3
Ntp144
Rp145
(lp146
F7.650000000000002
aF-1.4999999999999982
aF0.0
abag1
(g23
g3
Ntp147
Rp148
(lp149
I0
aI0
aI0
aI1
ababsg27
F14.496
sg28
(lp150
sg42
I00
sg43
g1
(g8
g3
Ntp151
Rp152
(lp153
I4
aI200000000
absg44
F55.75
sbag1
(g2
g3
Ntp154
Rp155
(dp156
g7
g49
sg12
S'WayPoint6'
p157
sg14
g1
(g15
g3
Ntp158
Rp159
(lp160
g1
(g19
g3
Ntp161
Rp162
(lp163
F4.350000000000001
aF1.6000000000000023
aF0.0
abag1
(g23
g3
Ntp164
Rp165
(lp166
I0
aI0
aI0
aI1
ababsg27
F0.0
sg28
(lp167
sg42
I01
sg43
g49
sg44
I0
sbag1
(g2
g3
Ntp168
Rp169
(dp170
g7
g49
sg12
S'WayPoint7'
p171
sg14
g1
(g15
g3
Ntp172
Rp173
(lp174
g1
(g19
g3
Ntp175
Rp176
(lp177
F1.700000000000001
aF1.6500000000000021
aF0.0
abag1
(g23
g3
Ntp178
Rp179
(lp180
I0
aI0
aI0
aI1
ababsg27
F5.054
sg28
(lp181
sg42
I00
sg43
g1
(g8
g3
Ntp182
Rp183
(lp184
I3
aI801000000
absg44
F19.44
sbag1
(g2
g3
Ntp185
Rp186
(dp187
g7
g49
sg12
S'WayPoint8'
p188
sg14
g1
(g15
g3
Ntp189
Rp190
(lp191
g1
(g19
g3
Ntp192
Rp193
(lp194
F0.9000000000000004
aF4.350000000000002
aF0.0
abag1
(g23
g3
Ntp195
Rp196
(lp197
I0
aI0
aI0
aI1
ababsg27
F7.416
sg28
(lp198
sg42
I00
sg43
g1
(g8
g3
Ntp199
Rp200
(lp201
I22
aI0
absg44
F28.52
sbag1
(g2
g3
Ntp202
Rp203
(dp204
g7
g1
(g8
g3
Ntp205
Rp206
(lp207
I21
aI0
absg12
S'WayPoint9'
p208
sg14
g1
(g15
g3
Ntp209
Rp210
(lp211
g1
(g19
g3
Ntp212
Rp213
(lp214
F5.0
aF4.600000000000002
aF0.0
abag1
(g23
g3
Ntp215
Rp216
(lp217
I0
aI0
aI0
aI1
ababsg27
F0.0
sg28
(lp218
g1
(g30
g3
Ntp219
Rp220
(dp221
g34
g1
(g35
g3
Ntp222
Rp223
(dp224
g39
F21.0
sg40
F18.22
sg41
F17.0
sbsg27
F4.738
sbasg42
I01
sg43
g206
sg44
I0
sba.