(lp0
ccopy_reg
_reconstructor
p1
(cdestination
Destination
p2
c__builtin__
object
p3
Ntp4
Rp5
(dp6
S'_Destination__latest_usage'
p7
g1
(crospy.rostime
Time
p8
g3
Ntp9
Rp10
(lp11
I0
aI0
absS'name'
p12
S'WayPoint1'
p13
sS'pose'
p14
g1
(cgeometry_msgs.msg._Pose
Pose
p15
g3
Ntp16
Rp17
(lp18
g1
(cgeometry_msgs.msg._Point
Point
p19
g3
Ntp20
Rp21
(lp22
F-1.549999999999999
aF-0.8999999999999986
aF0.0
abag1
(cgeometry_msgs.msg._Quaternion
Quaternion
p23
g3
Ntp24
Rp25
(lp26
I0
aI0
aI0
aI1
ababsS'path_len'
p27
F6.716
sS'_Destination__stats'
p28
(lp29
sS'_Destination__available'
p30
I00
sS'_Destination__remaining_idl'
p31
g1
(g8
g3
Ntp32
Rp33
(lp34
I32
aI800000000
absS'estim_idl'
p35
F25.83
sbag1
(g2
g3
Ntp36
Rp37
(dp38
g7
g10
sg12
S'WayPoint10'
p39
sg14
g1
(g15
g3
Ntp40
Rp41
(lp42
g1
(g19
g3
Ntp43
Rp44
(lp45
F-2.75
aF4.0500000000000025
aF0.0
abag1
(g23
g3
Ntp46
Rp47
(lp48
I0
aI0
aI0
aI1
ababsg27
F11.711
sg28
(lp49
sg30
I00
sg31
g1
(g8
g3
Ntp50
Rp51
(lp52
I53
aI0
absg35
F45.04
sbag1
(g2
g3
Ntp53
Rp54
(dp55
g7
g10
sg12
S'WayPoint2'
p56
sg14
g1
(g15
g3
Ntp57
Rp58
(lp59
g1
(g19
g3
Ntp60
Rp61
(lp62
F-5.25
aF-0.04999999999999716
aF0.0
abag1
(g23
g3
Ntp63
Rp64
(lp65
I0
aI0
aI0
aI1
ababsg27
F10.004
sg28
(lp66
sg30
I00
sg31
g1
(g8
g3
Ntp67
Rp68
(lp69
I3
aI0
absg35
F38.48
sbag1
(g2
g3
Ntp70
Rp71
(dp72
g7
g1
(g8
g3
Ntp73
Rp74
(lp75
I52
aI0
absg12
S'WayPoint3'
p76
sg14
g1
(g15
g3
Ntp77
Rp78
(lp79
g1
(g19
g3
Ntp80
Rp81
(lp82
F-2.6499999999999995
aF-3.8999999999999986
aF0.0
abag1
(g23
g3
Ntp83
Rp84
(lp85
I0
aI0
aI0
aI1
ababsg27
F0.0
sg28
(lp86
g1
(cdestination
Observation
p87
g3
Ntp88
Rp89
(dp90
S'idleness'
p91
g1
(cdestination
Idleness
p92
g3
Ntp93
Rp94
(dp95
S'_Idleness__true_idl'
p96
F52.0
sS'_Idleness__estim_idl'
p97
F44.94
sS'_Idleness__remaining_idl'
p98
F49.0
sbsg27
F11.686
sbasg30
I01
sg31
g74
sg35
I0
sbag1
(g2
g3
Ntp99
Rp100
(dp101
g7
g10
sg12
S'WayPoint4'
p102
sg14
g1
(g15
g3
Ntp103
Rp104
(lp105
g1
(g19
g3
Ntp106
Rp107
(lp108
F3.700000000000001
aF-1.3499999999999979
aF0.0
abag1
(g23
g3
Ntp109
Rp110
(lp111
I0
aI0
aI0
aI1
ababsg27
F0.0
sg28
(lp112
sg30
I01
sg31
g10
sg35
I0
sbag1
(g2
g3
Ntp113
Rp114
(dp115
g7
g10
sg12
S'WayPoint5'
p116
sg14
g1
(g15
g3
Ntp117
Rp118
(lp119
g1
(g19
g3
Ntp120
Rp121
(lp122
F7.650000000000002
aF-1.4999999999999982
aF0.0
abag1
(g23
g3
Ntp123
Rp124
(lp125
I0
aI0
aI0
aI1
ababsg27
F14.896
sg28
(lp126
sg30
I00
sg31
g1
(g8
g3
Ntp127
Rp128
(lp129
I2
aI600000000
absg35
F57.29
sbag1
(g2
g3
Ntp130
Rp131
(dp132
g7
g1
(g8
g3
Ntp133
Rp134
(lp135
I31
aI800000000
absg12
S'WayPoint6'
p136
sg14
g1
(g15
g3
Ntp137
Rp138
(lp139
g1
(g19
g3
Ntp140
Rp141
(lp142
F4.350000000000001
aF1.6000000000000023
aF0.0
abag1
(g23
g3
Ntp143
Rp144
(lp145
I0
aI0
aI0
aI1
ababsg27
F0.0
sg28
(lp146
g1
(g87
g3
Ntp147
Rp148
(dp149
g91
g1
(g92
g3
Ntp150
Rp151
(dp152
g96
F31.8
sg97
F10.48
sg98
F10.0
sbsg27
F2.726
sbasg30
I01
sg31
g134
sg35
I0
sbag1
(g2
g3
Ntp153
Rp154
(dp155
g7
g1
(g8
g3
Ntp156
Rp157
(lp158
I20
aI800000000
absg12
S'WayPoint7'
p159
sg14
g1
(g15
g3
Ntp160
Rp161
(lp162
g1
(g19
g3
Ntp163
Rp164
(lp165
F1.700000000000001
aF1.6500000000000021
aF0.0
abag1
(g23
g3
Ntp166
Rp167
(lp168
I0
aI0
aI0
aI1
ababsg27
F0.0
sg28
(lp169
g1
(g87
g3
Ntp170
Rp171
(dp172
g91
g1
(g92
g3
Ntp173
Rp174
(dp175
g96
F20.8
sg97
F16.19
sg98
F17.999
sbsg27
F4.209
sbasg30
I01
sg31
g157
sg35
I0
sbag1
(g2
g3
Ntp176
Rp177
(dp178
g7
g10
sg12
S'WayPoint8'
p179
sg14
g1
(g15
g3
Ntp180
Rp181
(lp182
g1
(g19
g3
Ntp183
Rp184
(lp185
F0.9000000000000004
aF4.350000000000002
aF0.0
abag1
(g23
g3
Ntp186
Rp187
(lp188
I0
aI0
aI0
aI1
ababsg27
F8.501
sg28
(lp189
sg30
I00
sg31
g128
sg35
F32.7
sbag1
(g2
g3
Ntp190
Rp191
(dp192
g7
g10
sg12
S'WayPoint9'
p193
sg14
g1
(g15
g3
Ntp194
Rp195
(lp196
g1
(g19
g3
Ntp197
Rp198
(lp199
F5.0
aF4.600000000000002
aF0.0
abag1
(g23
g3
Ntp200
Rp201
(lp202
I0
aI0
aI0
aI1
ababsg27
F0.0
sg28
(lp203
sg30
I01
sg31
g10
sg35
I0
sba.