(lp0
ccopy_reg
_reconstructor
p1
(cdestination
Destination
p2
c__builtin__
object
p3
Ntp4
Rp5
(dp6
S'_Destination__latest_usage'
p7
g1
(crospy.rostime
Time
p8
g3
Ntp9
Rp10
(lp11
I20
aI800000000
absS'name'
p12
S'WayPoint1'
p13
sS'pose'
p14
g1
(cgeometry_msgs.msg._Pose
Pose
p15
g3
Ntp16
Rp17
(lp18
g1
(cgeometry_msgs.msg._Point
Point
p19
g3
Ntp20
Rp21
(lp22
F-1.549999999999999
aF-0.8999999999999986
aF0.0
abag1
(cgeometry_msgs.msg._Quaternion
Quaternion
p23
g3
Ntp24
Rp25
(lp26
I0
aI0
aI0
aI1
ababsS'path_len'
p27
F9.153
sS'_Destination__stats'
p28
(lp29
g1
(cdestination
Observation
p30
g3
Ntp31
Rp32
(dp33
S'idleness'
p34
g1
(cdestination
Idleness
p35
g3
Ntp36
Rp37
(dp38
S'_Idleness__true_idl'
p39
F20.8
sS'_Idleness__estim_idl'
p40
F20.84
sS'_Idleness__remaining_idl'
p41
F17.999
sbsg27
F5.418
sbasS'_Destination__available'
p42
I00
sS'_Destination__remaining_idl'
p43
g1
(g8
g3
Ntp44
Rp45
(lp46
I51
aI0
absS'estim_idl'
p47
F35.2
sbag1
(g2
g3
Ntp48
Rp49
(dp50
g7
g1
(g8
g3
Ntp51
Rp52
(lp53
I0
aI0
absg12
S'WayPoint10'
p54
sg14
g1
(g15
g3
Ntp55
Rp56
(lp57
g1
(g19
g3
Ntp58
Rp59
(lp60
F-2.75
aF4.0500000000000025
aF0.0
abag1
(g23
g3
Ntp61
Rp62
(lp63
I0
aI0
aI0
aI1
ababsg27
F7.929
sg28
(lp64
sg42
I00
sg43
g1
(g8
g3
Ntp65
Rp66
(lp67
I50
aI800000000
absg47
F30.49
sbag1
(g2
g3
Ntp68
Rp69
(dp70
g7
g52
sg12
S'WayPoint2'
p71
sg14
g1
(g15
g3
Ntp72
Rp73
(lp74
g1
(g19
g3
Ntp75
Rp76
(lp77
F-5.25
aF-0.04999999999999716
aF0.0
abag1
(g23
g3
Ntp78
Rp79
(lp80
I0
aI0
aI0
aI1
ababsg27
F0.0
sg28
(lp81
sg42
I01
sg43
g52
sg47
I0
sbag1
(g2
g3
Ntp82
Rp83
(dp84
g7
g1
(g8
g3
Ntp85
Rp86
(lp87
I16
aI802000000
absg12
S'WayPoint3'
p88
sg14
g1
(g15
g3
Ntp89
Rp90
(lp91
g1
(g19
g3
Ntp92
Rp93
(lp94
F-2.6499999999999995
aF-3.8999999999999986
aF0.0
abag1
(g23
g3
Ntp95
Rp96
(lp97
I0
aI0
aI0
aI1
ababsg27
F0.0
sg28
(lp98
g1
(g30
g3
Ntp99
Rp100
(dp101
g34
g1
(g35
g3
Ntp102
Rp103
(dp104
g39
F16.802
sg40
F12.63
sg41
F14.001
sbsg27
F3.283
sbasg42
I01
sg43
g86
sg47
I0
sbag1
(g2
g3
Ntp105
Rp106
(dp107
g7
g52
sg12
S'WayPoint4'
p108
sg14
g1
(g15
g3
Ntp109
Rp110
(lp111
g1
(g19
g3
Ntp112
Rp113
(lp114
F3.700000000000001
aF-1.3499999999999979
aF0.0
abag1
(g23
g3
Ntp115
Rp116
(lp117
I0
aI0
aI0
aI1
ababsg27
F8.538
sg28
(lp118
sg42
I00
sg43
g1
(g8
g3
Ntp119
Rp120
(lp121
I2
aI801000000
absg47
F32.84
sbag1
(g2
g3
Ntp122
Rp123
(dp124
g7
g52
sg12
S'WayPoint5'
p125
sg14
g1
(g15
g3
Ntp126
Rp127
(lp128
g1
(g19
g3
Ntp129
Rp130
(lp131
F7.650000000000002
aF-1.4999999999999982
aF0.0
abag1
(g23
g3
Ntp132
Rp133
(lp134
I0
aI0
aI0
aI1
ababsg27
F0.0
sg28
(lp135
sg42
I01
sg43
g52
sg47
I0
sbag1
(g2
g3
Ntp136
Rp137
(dp138
g7
g1
(g8
g3
Ntp139
Rp140
(lp141
I49
aI800000000
absg12
S'WayPoint6'
p142
sg14
g1
(g15
g3
Ntp143
Rp144
(lp145
g1
(g19
g3
Ntp146
Rp147
(lp148
F4.350000000000001
aF1.6000000000000023
aF0.0
abag1
(g23
g3
Ntp149
Rp150
(lp151
I0
aI0
aI0
aI1
ababsg27
F0.0
sg28
(lp152
g1
(g30
g3
Ntp153
Rp154
(dp155
g34
g1
(g35
g3
Ntp156
Rp157
(dp158
g39
F49.8
sg40
F27.39
sg41
F28.0
sbsg27
F7.12
sbasg42
I01
sg43
g140
sg47
I0
sbag1
(g2
g3
Ntp159
Rp160
(dp161
g7
g52
sg12
S'WayPoint7'
p162
sg14
g1
(g15
g3
Ntp163
Rp164
(lp165
g1
(g19
g3
Ntp166
Rp167
(lp168
F1.700000000000001
aF1.6500000000000021
aF0.0
abag1
(g23
g3
Ntp169
Rp170
(lp171
I0
aI0
aI0
aI1
ababsg27
F5.054
sg28
(lp172
sg42
I00
sg43
g1
(g8
g3
Ntp173
Rp174
(lp175
I2
aI402000000
absg47
F19.44
sbag1
(g2
g3
Ntp176
Rp177
(dp178
g7
g52
sg12
S'WayPoint8'
p179
sg14
g1
(g15
g3
Ntp180
Rp181
(lp182
g1
(g19
g3
Ntp183
Rp184
(lp185
F0.9000000000000004
aF4.350000000000002
aF0.0
abag1
(g23
g3
Ntp186
Rp187
(lp188
I0
aI0
aI0
aI1
ababsg27
F9.62
sg28
(lp189
sg42
I00
sg43
g1
(g8
g3
Ntp190
Rp191
(lp192
I17
aI800000000
absg47
F37.0
sbag1
(g2
g3
Ntp193
Rp194
(dp195
g7
g1
(g8
g3
Ntp196
Rp197
(lp198
I50
aI400000000
absg12
S'WayPoint9'
p199
sg14
g1
(g15
g3
Ntp200
Rp201
(lp202
g1
(g19
g3
Ntp203
Rp204
(lp205
F5.0
aF4.600000000000002
aF0.0
abag1
(g23
g3
Ntp206
Rp207
(lp208
I0
aI0
aI0
aI1
ababsg27
F0.0
sg28
(lp209
g1
(g30
g3
Ntp210
Rp211
(dp212
g34
g1
(g35
g3
Ntp213
Rp214
(dp215
g39
F50.4
sg40
F38.52
sg41
F47.998
sbsg27
F10.015
sbasg42
I01
sg43
g197
sg47
I0
sba.