(lp0
ccopy_reg
_reconstructor
p1
(cdestination
Destination
p2
c__builtin__
object
p3
Ntp4
Rp5
(dp6
S'_Destination__latest_usage'
p7
g1
(crospy.rostime
Time
p8
g3
Ntp9
Rp10
(lp11
I0
aI0
absS'name'
p12
S'WayPoint1'
p13
sS'pose'
p14
g1
(cgeometry_msgs.msg._Pose
Pose
p15
g3
Ntp16
Rp17
(lp18
g1
(cgeometry_msgs.msg._Point
Point
p19
g3
Ntp20
Rp21
(lp22
F-1.549999999999999
aF-0.8999999999999986
aF0.0
abag1
(cgeometry_msgs.msg._Quaternion
Quaternion
p23
g3
Ntp24
Rp25
(lp26
I0
aI0
aI0
aI1
ababsS'path_len'
p27
F9.173
sS'_Destination__stats'
p28
(lp29
sS'_Destination__available'
p30
I00
sS'_Destination__remaining_idl'
p31
g1
(g8
g3
Ntp32
Rp33
(lp34
I2
aI600000000
absS'estim_idl'
p35
F35.28
sbag1
(g2
g3
Ntp36
Rp37
(dp38
g7
g10
sg12
S'WayPoint10'
p39
sg14
g1
(g15
g3
Ntp40
Rp41
(lp42
g1
(g19
g3
Ntp43
Rp44
(lp45
F-2.75
aF4.0500000000000025
aF0.0
abag1
(g23
g3
Ntp46
Rp47
(lp48
I0
aI0
aI0
aI1
ababsg27
F11.349
sg28
(lp49
sg30
I00
sg31
g1
(g8
g3
Ntp50
Rp51
(lp52
I51
aI1000000
absg35
F43.65
sbag1
(g2
g3
Ntp53
Rp54
(dp55
g7
g10
sg12
S'WayPoint2'
p56
sg14
g1
(g15
g3
Ntp57
Rp58
(lp59
g1
(g19
g3
Ntp60
Rp61
(lp62
F-5.25
aF-0.04999999999999716
aF0.0
abag1
(g23
g3
Ntp63
Rp64
(lp65
I0
aI0
aI0
aI1
ababsg27
F9.42
sg28
(lp66
sg30
I00
sg31
g1
(g8
g3
Ntp67
Rp68
(lp69
I27
aI401000000
absg35
F36.23
sbag1
(g2
g3
Ntp70
Rp71
(dp72
g7
g1
(g8
g3
Ntp73
Rp74
(lp75
I50
aI602000000
absg12
S'WayPoint3'
p76
sg14
g1
(g15
g3
Ntp77
Rp78
(lp79
g1
(g19
g3
Ntp80
Rp81
(lp82
F-2.6499999999999995
aF-3.8999999999999986
aF0.0
abag1
(g23
g3
Ntp83
Rp84
(lp85
I0
aI0
aI0
aI1
ababsg27
F0.0
sg28
(lp86
g1
(cdestination
Observation
p87
g3
Ntp88
Rp89
(dp90
S'idleness'
p91
g1
(cdestination
Idleness
p92
g3
Ntp93
Rp94
(dp95
S'_Idleness__true_idl'
p96
F50.602
sS'_Idleness__estim_idl'
p97
F44.94
sS'_Idleness__remaining_idl'
p98
F48.002
sbsg27
F11.686
sbasg30
I01
sg31
g74
sg35
I0
sbag1
(g2
g3
Ntp99
Rp100
(dp101
g7
g1
(g8
g3
Ntp102
Rp103
(lp104
I26
aI401000000
absg12
S'WayPoint4'
p105
sg14
g1
(g15
g3
Ntp106
Rp107
(lp108
g1
(g19
g3
Ntp109
Rp110
(lp111
F3.700000000000001
aF-1.3499999999999979
aF0.0
abag1
(g23
g3
Ntp112
Rp113
(lp114
I0
aI0
aI0
aI1
ababsg27
F0.0
sg28
(lp115
g1
(g87
g3
Ntp116
Rp117
(dp118
g91
g1
(g92
g3
Ntp119
Rp120
(dp121
g96
F26.401
sg97
F20.67
sg98
F23.6
sbsg27
F5.374
sbasg30
I01
sg31
g103
sg35
I0
sbag1
(g2
g3
Ntp122
Rp123
(dp124
g7
g10
sg12
S'WayPoint5'
p125
sg14
g1
(g15
g3
Ntp126
Rp127
(lp128
g1
(g19
g3
Ntp129
Rp130
(lp131
F7.650000000000002
aF-1.4999999999999982
aF0.0
abag1
(g23
g3
Ntp132
Rp133
(lp134
I0
aI0
aI0
aI1
ababsg27
F12.514
sg28
(lp135
sg30
I00
sg31
g1
(g8
g3
Ntp136
Rp137
(lp138
I47
aI200000000
absg35
F48.13
sbag1
(g2
g3
Ntp139
Rp140
(dp141
g7
g10
sg12
S'WayPoint6'
p142
sg14
g1
(g15
g3
Ntp143
Rp144
(lp145
g1
(g19
g3
Ntp146
Rp147
(lp148
F4.350000000000001
aF1.6000000000000023
aF0.0
abag1
(g23
g3
Ntp149
Rp150
(lp151
I0
aI0
aI0
aI1
ababsg27
F0.0
sg28
(lp152
sg30
I01
sg31
g10
sg35
I0
sbag1
(g2
g3
Ntp153
Rp154
(dp155
g7
g10
sg12
S'WayPoint7'
p156
sg14
g1
(g15
g3
Ntp157
Rp158
(lp159
g1
(g19
g3
Ntp160
Rp161
(lp162
F1.700000000000001
aF1.6500000000000021
aF0.0
abag1
(g23
g3
Ntp163
Rp164
(lp165
I0
aI0
aI0
aI1
ababsg27
F0.0
sg28
(lp166
sg30
I01
sg31
g10
sg35
I0
sbag1
(g2
g3
Ntp167
Rp168
(dp169
g7
g10
sg12
S'WayPoint8'
p170
sg14
g1
(g15
g3
Ntp171
Rp172
(lp173
g1
(g19
g3
Ntp174
Rp175
(lp176
F0.9000000000000004
aF4.350000000000002
aF0.0
abag1
(g23
g3
Ntp177
Rp178
(lp179
I0
aI0
aI0
aI1
ababsg27
F8.501
sg28
(lp180
sg30
I00
sg31
g1
(g8
g3
Ntp181
Rp182
(lp183
I3
aI0
absg35
F32.7
sbag1
(g2
g3
Ntp184
Rp185
(dp186
g7
g137
sg12
S'WayPoint9'
p187
sg14
g1
(g15
g3
Ntp188
Rp189
(lp190
g1
(g19
g3
Ntp191
Rp192
(lp193
F5.0
aF4.600000000000002
aF0.0
abag1
(g23
g3
Ntp194
Rp195
(lp196
I0
aI0
aI0
aI1
ababsg27
F0.0
sg28
(lp197
g1
(g87
g3
Ntp198
Rp199
(dp200
g91
g1
(g92
g3
Ntp201
Rp202
(dp203
g96
F47.2
sg97
F18.31
sg98
F44.0
sbsg27
F4.762
sbasg30
I01
sg31
g137
sg35
I0
sba.