(lp0
ccopy_reg
_reconstructor
p1
(cdestination
Destination
p2
c__builtin__
object
p3
Ntp4
Rp5
(dp6
S'_Destination__latest_usage'
p7
g1
(crospy.rostime
Time
p8
g3
Ntp9
Rp10
(lp11
I0
aI0
absS'name'
p12
S'WayPoint1'
p13
sS'pose'
p14
g1
(cgeometry_msgs.msg._Pose
Pose
p15
g3
Ntp16
Rp17
(lp18
g1
(cgeometry_msgs.msg._Point
Point
p19
g3
Ntp20
Rp21
(lp22
F-6.75
aF-2.6999999999999975
aF0.0
abag1
(cgeometry_msgs.msg._Quaternion
Quaternion
p23
g3
Ntp24
Rp25
(lp26
I0
aI0
aI0
aI1
ababsS'path_len'
p27
F0.0
sS'_Destination__stats'
p28
(lp29
sS'_Destination__available'
p30
I01
sS'_Destination__remaining_idl'
p31
g10
sS'estim_idl'
p32
I0
sbag1
(g2
g3
Ntp33
Rp34
(dp35
g7
g10
sg12
S'WayPoint10'
p36
sg14
g1
(g15
g3
Ntp37
Rp38
(lp39
g1
(g19
g3
Ntp40
Rp41
(lp42
F1.8500000000000014
aF2.8500000000000023
aF0.0
abag1
(g23
g3
Ntp43
Rp44
(lp45
I0
aI0
aI0
aI1
ababsg27
F0.0
sg28
(lp46
sg30
I01
sg31
g10
sg32
I0
sbag1
(g2
g3
Ntp47
Rp48
(dp49
g7
g10
sg12
S'WayPoint11'
p50
sg14
g1
(g15
g3
Ntp51
Rp52
(lp53
g1
(g19
g3
Ntp54
Rp55
(lp56
F6.600000000000001
aF3.450000000000003
aF0.0
abag1
(g23
g3
Ntp57
Rp58
(lp59
I0
aI0
aI0
aI1
ababsg27
F0.0
sg28
(lp60
sg30
I01
sg31
g10
sg32
I0
sbag1
(g2
g3
Ntp61
Rp62
(dp63
g7
g10
sg12
S'WayPoint2'
p64
sg14
g1
(g15
g3
Ntp65
Rp66
(lp67
g1
(g19
g3
Ntp68
Rp69
(lp70
F-3.1999999999999993
aF-3.349999999999998
aF0.0
abag1
(g23
g3
Ntp71
Rp72
(lp73
I0
aI0
aI0
aI1
ababsg27
F0.0
sg28
(lp74
sg30
I01
sg31
g10
sg32
I0
sbag1
(g2
g3
Ntp75
Rp76
(dp77
g7
g10
sg12
S'WayPoint3'
p78
sg14
g1
(g15
g3
Ntp79
Rp80
(lp81
g1
(g19
g3
Ntp82
Rp83
(lp84
F0.0
aF-3.349999999999998
aF0.0
abag1
(g23
g3
Ntp85
Rp86
(lp87
I0
aI0
aI0
aI1
ababsg27
F0.0
sg28
(lp88
sg30
I01
sg31
g10
sg32
I0
sbag1
(g2
g3
Ntp89
Rp90
(dp91
g7
g1
(g8
g3
Ntp92
Rp93
(lp94
I60
aI200000000
absg12
S'WayPoint4'
p95
sg14
g1
(g15
g3
Ntp96
Rp97
(lp98
g1
(g19
g3
Ntp99
Rp100
(lp101
F2.3500000000000014
aF-3.2499999999999982
aF0.0
abag1
(g23
g3
Ntp102
Rp103
(lp104
I0
aI0
aI0
aI1
ababsg27
F0.0
sg28
(lp105
g1
(cdestination
Observation
p106
g3
Ntp107
Rp108
(dp109
S'idleness'
p110
g1
(cdestination
Idleness
p111
g3
Ntp112
Rp113
(dp114
S'_Idleness__true_idl'
p115
F60.2
sS'_Idleness__estim_idl'
p116
F35.29
sS'_Idleness__remaining_idl'
p117
F57.0
sbsg27
F9.176
sbasg30
I01
sg31
g93
sg32
I0
sbag1
(g2
g3
Ntp118
Rp119
(dp120
g7
g1
(g8
g3
Ntp121
Rp122
(lp123
I53
aI200000000
absg12
S'WayPoint5'
p124
sg14
g1
(g15
g3
Ntp125
Rp126
(lp127
g1
(g19
g3
Ntp128
Rp129
(lp130
F5.4
aF-3.4499999999999975
aF0.0
abag1
(g23
g3
Ntp131
Rp132
(lp133
I0
aI0
aI0
aI1
ababsg27
F0.0
sg28
(lp134
g1
(g106
g3
Ntp135
Rp136
(dp137
g110
g1
(g111
g3
Ntp138
Rp139
(dp140
g115
F53.2
sg116
F39.92
sg117
F50.0
sbsg27
F10.38
sbasg30
I01
sg31
g122
sg32
I0
sbag1
(g2
g3
Ntp141
Rp142
(dp143
g7
g10
sg12
S'WayPoint6'
p144
sg14
g1
(g15
g3
Ntp145
Rp146
(lp147
g1
(g19
g3
Ntp148
Rp149
(lp150
F4.850000000000001
aF-0.7499999999999982
aF0.0
abag1
(g23
g3
Ntp151
Rp152
(lp153
I0
aI0
aI0
aI1
ababsg27
F10.804
sg28
(lp154
sg30
I00
sg31
g1
(g8
g3
Ntp155
Rp156
(lp157
I3
aI200000000
absg32
F41.55
sbag1
(g2
g3
Ntp158
Rp159
(dp160
g7
g10
sg12
S'WayPoint7'
p161
sg14
g1
(g15
g3
Ntp162
Rp163
(lp164
g1
(g19
g3
Ntp165
Rp166
(lp167
F1.0500000000000007
aF-0.6999999999999975
aF0.0
abag1
(g23
g3
Ntp168
Rp169
(lp170
I0
aI0
aI0
aI1
ababsg27
F0.0
sg28
(lp171
sg30
I01
sg31
g10
sg32
I0
sbag1
(g2
g3
Ntp172
Rp173
(dp174
g7
g10
sg12
S'WayPoint8'
p175
sg14
g1
(g15
g3
Ntp176
Rp177
(lp178
g1
(g19
g3
Ntp179
Rp180
(lp181
F-3.05
aF-0.5999999999999979
aF0.0
abag1
(g23
g3
Ntp182
Rp183
(lp184
I0
aI0
aI0
aI1
ababsg27
F0.0
sg28
(lp185
sg30
I01
sg31
g10
sg32
I0
sbag1
(g2
g3
Ntp186
Rp187
(dp188
g7
g10
sg12
S'WayPoint9'
p189
sg14
g1
(g15
g3
Ntp190
Rp191
(lp192
g1
(g19
g3
Ntp193
Rp194
(lp195
F-1.5
aF2.700000000000003
aF0.0
abag1
(g23
g3
Ntp196
Rp197
(lp198
I0
aI0
aI0
aI1
ababsg27
F13.578
sg28
(lp199
sg30
I00
sg31
g1
(g8
g3
Ntp200
Rp201
(lp202
I54
aI200000000
absg32
F52.22
sba.