(lp0
ccopy_reg
_reconstructor
p1
(cdestination
Destination
p2
c__builtin__
object
p3
Ntp4
Rp5
(dp6
S'_Destination__latest_usage'
p7
g1
(crospy.rostime
Time
p8
g3
Ntp9
Rp10
(lp11
I0
aI0
absS'name'
p12
S'WayPoint1'
p13
sS'pose'
p14
g1
(cgeometry_msgs.msg._Pose
Pose
p15
g3
Ntp16
Rp17
(lp18
g1
(cgeometry_msgs.msg._Point
Point
p19
g3
Ntp20
Rp21
(lp22
F-6.75
aF-2.6999999999999975
aF0.0
abag1
(cgeometry_msgs.msg._Quaternion
Quaternion
p23
g3
Ntp24
Rp25
(lp26
I0
aI0
aI0
aI1
ababsS'path_len'
p27
F0.0
sS'_Destination__stats'
p28
(lp29
sS'_Destination__available'
p30
I01
sS'_Destination__remaining_idl'
p31
g10
sS'estim_idl'
p32
I0
sbag1
(g2
g3
Ntp33
Rp34
(dp35
g7
g10
sg12
S'WayPoint10'
p36
sg14
g1
(g15
g3
Ntp37
Rp38
(lp39
g1
(g19
g3
Ntp40
Rp41
(lp42
F1.8500000000000014
aF2.8500000000000023
aF0.0
abag1
(g23
g3
Ntp43
Rp44
(lp45
I0
aI0
aI0
aI1
ababsg27
F0.0
sg28
(lp46
sg30
I01
sg31
g10
sg32
I0
sbag1
(g2
g3
Ntp47
Rp48
(dp49
g7
g10
sg12
S'WayPoint11'
p50
sg14
g1
(g15
g3
Ntp51
Rp52
(lp53
g1
(g19
g3
Ntp54
Rp55
(lp56
F6.600000000000001
aF3.450000000000003
aF0.0
abag1
(g23
g3
Ntp57
Rp58
(lp59
I0
aI0
aI0
aI1
ababsg27
F0.0
sg28
(lp60
sg30
I01
sg31
g10
sg32
I0
sbag1
(g2
g3
Ntp61
Rp62
(dp63
g7
g10
sg12
S'WayPoint2'
p64
sg14
g1
(g15
g3
Ntp65
Rp66
(lp67
g1
(g19
g3
Ntp68
Rp69
(lp70
F-3.1999999999999993
aF-3.349999999999998
aF0.0
abag1
(g23
g3
Ntp71
Rp72
(lp73
I0
aI0
aI0
aI1
ababsg27
F0.0
sg28
(lp74
sg30
I01
sg31
g10
sg32
I0
sbag1
(g2
g3
Ntp75
Rp76
(dp77
g7
g10
sg12
S'WayPoint3'
p78
sg14
g1
(g15
g3
Ntp79
Rp80
(lp81
g1
(g19
g3
Ntp82
Rp83
(lp84
F0.0
aF-3.349999999999998
aF0.0
abag1
(g23
g3
Ntp85
Rp86
(lp87
I0
aI0
aI0
aI1
ababsg27
F0.0
sg28
(lp88
sg30
I01
sg31
g10
sg32
I0
sbag1
(g2
g3
Ntp89
Rp90
(dp91
g7
g10
sg12
S'WayPoint4'
p92
sg14
g1
(g15
g3
Ntp93
Rp94
(lp95
g1
(g19
g3
Ntp96
Rp97
(lp98
F2.3500000000000014
aF-3.2499999999999982
aF0.0
abag1
(g23
g3
Ntp99
Rp100
(lp101
I0
aI0
aI0
aI1
ababsg27
F10.684
sg28
(lp102
sg30
I00
sg31
g1
(g8
g3
Ntp103
Rp104
(lp105
I2
aI400000000
absg32
F41.09
sbag1
(g2
g3
Ntp106
Rp107
(dp108
g7
g10
sg12
S'WayPoint5'
p109
sg14
g1
(g15
g3
Ntp110
Rp111
(lp112
g1
(g19
g3
Ntp113
Rp114
(lp115
F5.4
aF-3.4499999999999975
aF0.0
abag1
(g23
g3
Ntp116
Rp117
(lp118
I0
aI0
aI0
aI1
ababsg27
F8.783
sg28
(lp119
sg30
I00
sg31
g104
sg32
F33.78
sbag1
(g2
g3
Ntp120
Rp121
(dp122
g7
g10
sg12
S'WayPoint6'
p123
sg14
g1
(g15
g3
Ntp124
Rp125
(lp126
g1
(g19
g3
Ntp127
Rp128
(lp129
F4.850000000000001
aF-0.7499999999999982
aF0.0
abag1
(g23
g3
Ntp130
Rp131
(lp132
I0
aI0
aI0
aI1
ababsg27
F0.0
sg28
(lp133
sg30
I01
sg31
g10
sg32
I0
sbag1
(g2
g3
Ntp134
Rp135
(dp136
g7
g10
sg12
S'WayPoint7'
p137
sg14
g1
(g15
g3
Ntp138
Rp139
(lp140
g1
(g19
g3
Ntp141
Rp142
(lp143
F1.0500000000000007
aF-0.6999999999999975
aF0.0
abag1
(g23
g3
Ntp144
Rp145
(lp146
I0
aI0
aI0
aI1
ababsg27
F0.0
sg28
(lp147
sg30
I01
sg31
g10
sg32
I0
sbag1
(g2
g3
Ntp148
Rp149
(dp150
g7
g10
sg12
S'WayPoint8'
p151
sg14
g1
(g15
g3
Ntp152
Rp153
(lp154
g1
(g19
g3
Ntp155
Rp156
(lp157
F-3.05
aF-0.5999999999999979
aF0.0
abag1
(g23
g3
Ntp158
Rp159
(lp160
I0
aI0
aI0
aI1
ababsg27
F7.214
sg28
(lp161
sg30
I00
sg31
g1
(g8
g3
Ntp162
Rp163
(lp164
I2
aI800000000
absg32
F27.75
sbag1
(g2
g3
Ntp165
Rp166
(dp167
g7
g10
sg12
S'WayPoint9'
p168
sg14
g1
(g15
g3
Ntp169
Rp170
(lp171
g1
(g19
g3
Ntp172
Rp173
(lp174
F-1.5
aF2.700000000000003
aF0.0
abag1
(g23
g3
Ntp175
Rp176
(lp177
I0
aI0
aI0
aI1
ababsg27
F0.0
sg28
(lp178
sg30
I01
sg31
g10
sg32
I0
sba.