(lp0
ccopy_reg
_reconstructor
p1
(cdestination
Destination
p2
c__builtin__
object
p3
Ntp4
Rp5
(dp6
S'_Destination__latest_usage'
p7
g1
(crospy.rostime
Time
p8
g3
Ntp9
Rp10
(lp11
I0
aI0
absS'name'
p12
S'WayPoint1'
p13
sS'pose'
p14
g1
(cgeometry_msgs.msg._Pose
Pose
p15
g3
Ntp16
Rp17
(lp18
g1
(cgeometry_msgs.msg._Point
Point
p19
g3
Ntp20
Rp21
(lp22
F-6.75
aF-2.6999999999999975
aF0.0
abag1
(cgeometry_msgs.msg._Quaternion
Quaternion
p23
g3
Ntp24
Rp25
(lp26
I0
aI0
aI0
aI1
ababsS'path_len'
p27
F16.729
sS'_Destination__stats'
p28
(lp29
sS'_Destination__available'
p30
I00
sS'_Destination__remaining_idl'
p31
g1
(g8
g3
Ntp32
Rp33
(lp34
I60
aI0
absS'estim_idl'
p35
F64.34
sbag1
(g2
g3
Ntp36
Rp37
(dp38
g7
g10
sg12
S'WayPoint10'
p39
sg14
g1
(g15
g3
Ntp40
Rp41
(lp42
g1
(g19
g3
Ntp43
Rp44
(lp45
F1.8500000000000014
aF2.8500000000000023
aF0.0
abag1
(g23
g3
Ntp46
Rp47
(lp48
I0
aI0
aI0
aI1
ababsg27
F11.292
sg28
(lp49
sg30
I00
sg31
g1
(g8
g3
Ntp50
Rp51
(lp52
I2
aI400000000
absg35
F43.43
sbag1
(g2
g3
Ntp53
Rp54
(dp55
g7
g1
(g8
g3
Ntp56
Rp57
(lp58
I59
aI0
absg12
S'WayPoint11'
p59
sg14
g1
(g15
g3
Ntp60
Rp61
(lp62
g1
(g19
g3
Ntp63
Rp64
(lp65
F6.600000000000001
aF3.450000000000003
aF0.0
abag1
(g23
g3
Ntp66
Rp67
(lp68
I0
aI0
aI0
aI1
ababsg27
F0.0
sg28
(lp69
g1
(cdestination
Observation
p70
g3
Ntp71
Rp72
(dp73
S'idleness'
p74
g1
(cdestination
Idleness
p75
g3
Ntp76
Rp77
(dp78
S'_Idleness__true_idl'
p79
F59.0
sS'_Idleness__estim_idl'
p80
F43.59
sS'_Idleness__remaining_idl'
p81
F55.999
sbsg27
F11.334
sbasg30
I01
sg31
g57
sg35
I0
sbag1
(g2
g3
Ntp82
Rp83
(dp84
g7
g10
sg12
S'WayPoint2'
p85
sg14
g1
(g15
g3
Ntp86
Rp87
(lp88
g1
(g19
g3
Ntp89
Rp90
(lp91
F-3.1999999999999993
aF-3.349999999999998
aF0.0
abag1
(g23
g3
Ntp92
Rp93
(lp94
I0
aI0
aI0
aI1
ababsg27
F0.0
sg28
(lp95
sg30
I01
sg31
g10
sg35
I0
sbag1
(g2
g3
Ntp96
Rp97
(dp98
g7
g10
sg12
S'WayPoint3'
p99
sg14
g1
(g15
g3
Ntp100
Rp101
(lp102
g1
(g19
g3
Ntp103
Rp104
(lp105
F0.0
aF-3.349999999999998
aF0.0
abag1
(g23
g3
Ntp106
Rp107
(lp108
I0
aI0
aI0
aI1
ababsg27
F0.0
sg28
(lp109
sg30
I01
sg31
g10
sg35
I0
sbag1
(g2
g3
Ntp110
Rp111
(dp112
g7
g10
sg12
S'WayPoint4'
p113
sg14
g1
(g15
g3
Ntp114
Rp115
(lp116
g1
(g19
g3
Ntp117
Rp118
(lp119
F2.3500000000000014
aF-3.2499999999999982
aF0.0
abag1
(g23
g3
Ntp120
Rp121
(lp122
I0
aI0
aI0
aI1
ababsg27
F10.684
sg28
(lp123
sg30
I00
sg31
g51
sg35
F41.09
sbag1
(g2
g3
Ntp124
Rp125
(dp126
g7
g10
sg12
S'WayPoint5'
p127
sg14
g1
(g15
g3
Ntp128
Rp129
(lp130
g1
(g19
g3
Ntp131
Rp132
(lp133
F5.4
aF-3.4499999999999975
aF0.0
abag1
(g23
g3
Ntp134
Rp135
(lp136
I0
aI0
aI0
aI1
ababsg27
F0.0
sg28
(lp137
sg30
I01
sg31
g10
sg35
I0
sbag1
(g2
g3
Ntp138
Rp139
(dp140
g7
g10
sg12
S'WayPoint6'
p141
sg14
g1
(g15
g3
Ntp142
Rp143
(lp144
g1
(g19
g3
Ntp145
Rp146
(lp147
F4.850000000000001
aF-0.7499999999999982
aF0.0
abag1
(g23
g3
Ntp148
Rp149
(lp150
I0
aI0
aI0
aI1
ababsg27
F0.0
sg28
(lp151
sg30
I01
sg31
g10
sg35
I0
sbag1
(g2
g3
Ntp152
Rp153
(dp154
g7
g10
sg12
S'WayPoint7'
p155
sg14
g1
(g15
g3
Ntp156
Rp157
(lp158
g1
(g19
g3
Ntp159
Rp160
(lp161
F1.0500000000000007
aF-0.6999999999999975
aF0.0
abag1
(g23
g3
Ntp162
Rp163
(lp164
I0
aI0
aI0
aI1
ababsg27
F0.0
sg28
(lp165
sg30
I01
sg31
g10
sg35
I0
sbag1
(g2
g3
Ntp166
Rp167
(dp168
g7
g10
sg12
S'WayPoint8'
p169
sg14
g1
(g15
g3
Ntp170
Rp171
(lp172
g1
(g19
g3
Ntp173
Rp174
(lp175
F-3.05
aF-0.5999999999999979
aF0.0
abag1
(g23
g3
Ntp176
Rp177
(lp178
I0
aI0
aI0
aI1
ababsg27
F0.0
sg28
(lp179
sg30
I01
sg31
g10
sg35
I0
sbag1
(g2
g3
Ntp180
Rp181
(dp182
g7
g10
sg12
S'WayPoint9'
p183
sg14
g1
(g15
g3
Ntp184
Rp185
(lp186
g1
(g19
g3
Ntp187
Rp188
(lp189
F-1.5
aF2.700000000000003
aF0.0
abag1
(g23
g3
Ntp190
Rp191
(lp192
I0
aI0
aI0
aI1
ababsg27
F0.0
sg28
(lp193
sg30
I01
sg31
g10
sg35
I0
sba.