(lp0
ccopy_reg
_reconstructor
p1
(cdestination
Destination
p2
c__builtin__
object
p3
Ntp4
Rp5
(dp6
S'_Destination__latest_usage'
p7
g1
(crospy.rostime
Time
p8
g3
Ntp9
Rp10
(lp11
I0
aI0
absS'name'
p12
S'WayPoint1'
p13
sS'pose'
p14
g1
(cgeometry_msgs.msg._Pose
Pose
p15
g3
Ntp16
Rp17
(lp18
g1
(cgeometry_msgs.msg._Point
Point
p19
g3
Ntp20
Rp21
(lp22
F-6.75
aF-2.6999999999999975
aF0.0
abag1
(cgeometry_msgs.msg._Quaternion
Quaternion
p23
g3
Ntp24
Rp25
(lp26
I0
aI0
aI0
aI1
ababsS'path_len'
p27
F11.485
sS'_Destination__stats'
p28
(lp29
sS'_Destination__available'
p30
I00
sS'_Destination__remaining_idl'
p31
g1
(g8
g3
Ntp32
Rp33
(lp34
I32
aI801000000
absS'estim_idl'
p35
F44.17
sbag1
(g2
g3
Ntp36
Rp37
(dp38
g7
g10
sg12
S'WayPoint10'
p39
sg14
g1
(g15
g3
Ntp40
Rp41
(lp42
g1
(g19
g3
Ntp43
Rp44
(lp45
F1.8500000000000014
aF2.8500000000000023
aF0.0
abag1
(g23
g3
Ntp46
Rp47
(lp48
I0
aI0
aI0
aI1
ababsg27
F0.0
sg28
(lp49
sg30
I01
sg31
g10
sg35
I0
sbag1
(g2
g3
Ntp50
Rp51
(dp52
g7
g10
sg12
S'WayPoint11'
p53
sg14
g1
(g15
g3
Ntp54
Rp55
(lp56
g1
(g19
g3
Ntp57
Rp58
(lp59
F6.600000000000001
aF3.450000000000003
aF0.0
abag1
(g23
g3
Ntp60
Rp61
(lp62
I0
aI0
aI0
aI1
ababsg27
F8.844
sg28
(lp63
sg30
I00
sg31
g1
(g8
g3
Ntp64
Rp65
(lp66
I40
aI801000000
absg35
F34.02
sbag1
(g2
g3
Ntp67
Rp68
(dp69
g7
g10
sg12
S'WayPoint2'
p70
sg14
g1
(g15
g3
Ntp71
Rp72
(lp73
g1
(g19
g3
Ntp74
Rp75
(lp76
F-3.1999999999999993
aF-3.349999999999998
aF0.0
abag1
(g23
g3
Ntp77
Rp78
(lp79
I0
aI0
aI0
aI1
ababsg27
F0.0
sg28
(lp80
sg30
I01
sg31
g10
sg35
I0
sbag1
(g2
g3
Ntp81
Rp82
(dp83
g7
g1
(g8
g3
Ntp84
Rp85
(lp86
I31
aI807000000
absg12
S'WayPoint3'
p87
sg14
g1
(g15
g3
Ntp88
Rp89
(lp90
g1
(g19
g3
Ntp91
Rp92
(lp93
F0.0
aF-3.349999999999998
aF0.0
abag1
(g23
g3
Ntp94
Rp95
(lp96
I0
aI0
aI0
aI1
ababsg27
F0.0
sg28
(lp97
g1
(cdestination
Observation
p98
g3
Ntp99
Rp100
(dp101
S'idleness'
p102
g1
(cdestination
Idleness
p103
g3
Ntp104
Rp105
(dp106
S'_Idleness__true_idl'
p107
F31.807
sS'_Idleness__estim_idl'
p108
F25.97
sS'_Idleness__remaining_idl'
p109
F29.007
sbsg27
F6.752
sbasg30
I01
sg31
g85
sg35
I0
sbag1
(g2
g3
Ntp110
Rp111
(dp112
g7
g10
sg12
S'WayPoint4'
p113
sg14
g1
(g15
g3
Ntp114
Rp115
(lp116
g1
(g19
g3
Ntp117
Rp118
(lp119
F2.3500000000000014
aF-3.2499999999999982
aF0.0
abag1
(g23
g3
Ntp120
Rp121
(lp122
I0
aI0
aI0
aI1
ababsg27
F0.0
sg28
(lp123
sg30
I01
sg31
g10
sg35
I0
sbag1
(g2
g3
Ntp124
Rp125
(dp126
g7
g1
(g8
g3
Ntp127
Rp128
(lp129
I40
aI403000000
absg12
S'WayPoint5'
p130
sg14
g1
(g15
g3
Ntp131
Rp132
(lp133
g1
(g19
g3
Ntp134
Rp135
(lp136
F5.4
aF-3.4499999999999975
aF0.0
abag1
(g23
g3
Ntp137
Rp138
(lp139
I0
aI0
aI0
aI1
ababsg27
F0.0
sg28
(lp140
g1
(g98
g3
Ntp141
Rp142
(dp143
g102
g1
(g103
g3
Ntp144
Rp145
(dp146
g107
F40.403
sg108
F33.78
sg109
F38.0
sbsg27
F8.783
sbasg30
I01
sg31
g128
sg35
I0
sbag1
(g2
g3
Ntp147
Rp148
(dp149
g7
g10
sg12
S'WayPoint6'
p150
sg14
g1
(g15
g3
Ntp151
Rp152
(lp153
g1
(g19
g3
Ntp154
Rp155
(lp156
F4.850000000000001
aF-0.7499999999999982
aF0.0
abag1
(g23
g3
Ntp157
Rp158
(lp159
I0
aI0
aI0
aI1
ababsg27
F0.0
sg28
(lp160
sg30
I01
sg31
g10
sg35
I0
sbag1
(g2
g3
Ntp161
Rp162
(dp163
g7
g10
sg12
S'WayPoint7'
p164
sg14
g1
(g15
g3
Ntp165
Rp166
(lp167
g1
(g19
g3
Ntp168
Rp169
(lp170
F1.0500000000000007
aF-0.6999999999999975
aF0.0
abag1
(g23
g3
Ntp171
Rp172
(lp173
I0
aI0
aI0
aI1
ababsg27
F0.0
sg28
(lp174
sg30
I01
sg31
g10
sg35
I0
sbag1
(g2
g3
Ntp175
Rp176
(dp177
g7
g10
sg12
S'WayPoint8'
p178
sg14
g1
(g15
g3
Ntp179
Rp180
(lp181
g1
(g19
g3
Ntp182
Rp183
(lp184
F-3.05
aF-0.5999999999999979
aF0.0
abag1
(g23
g3
Ntp185
Rp186
(lp187
I0
aI0
aI0
aI1
ababsg27
F3.797
sg28
(lp188
sg30
I00
sg31
g1
(g8
g3
Ntp189
Rp190
(lp191
I2
aI602000000
absg35
F14.6
sbag1
(g2
g3
Ntp192
Rp193
(dp194
g7
g10
sg12
S'WayPoint9'
p195
sg14
g1
(g15
g3
Ntp196
Rp197
(lp198
g1
(g19
g3
Ntp199
Rp200
(lp201
F-1.5
aF2.700000000000003
aF0.0
abag1
(g23
g3
Ntp202
Rp203
(lp204
I0
aI0
aI0
aI1
ababsg27
F0.0
sg28
(lp205
sg30
I01
sg31
g10
sg35
I0
sba.