(lp0
ccopy_reg
_reconstructor
p1
(cdestination
Destination
p2
c__builtin__
object
p3
Ntp4
Rp5
(dp6
S'_Destination__latest_usage'
p7
g1
(crospy.rostime
Time
p8
g3
Ntp9
Rp10
(lp11
I0
aI0
absS'name'
p12
S'WayPoint1'
p13
sS'pose'
p14
g1
(cgeometry_msgs.msg._Pose
Pose
p15
g3
Ntp16
Rp17
(lp18
g1
(cgeometry_msgs.msg._Point
Point
p19
g3
Ntp20
Rp21
(lp22
F-6.75
aF-2.6999999999999975
aF0.0
abag1
(cgeometry_msgs.msg._Quaternion
Quaternion
p23
g3
Ntp24
Rp25
(lp26
I0
aI0
aI0
aI1
ababsS'path_len'
p27
F0.0
sS'_Destination__stats'
p28
(lp29
sS'_Destination__available'
p30
I01
sS'_Destination__remaining_idl'
p31
g10
sS'estim_idl'
p32
I0
sbag1
(g2
g3
Ntp33
Rp34
(dp35
g7
g10
sg12
S'WayPoint10'
p36
sg14
g1
(g15
g3
Ntp37
Rp38
(lp39
g1
(g19
g3
Ntp40
Rp41
(lp42
F1.8500000000000014
aF2.8500000000000023
aF0.0
abag1
(g23
g3
Ntp43
Rp44
(lp45
I0
aI0
aI0
aI1
ababsg27
F9.902
sg28
(lp46
sg30
I00
sg31
g1
(g8
g3
Ntp47
Rp48
(lp49
I2
aI400000000
absg32
F38.08
sbag1
(g2
g3
Ntp50
Rp51
(dp52
g7
g10
sg12
S'WayPoint11'
p53
sg14
g1
(g15
g3
Ntp54
Rp55
(lp56
g1
(g19
g3
Ntp57
Rp58
(lp59
F6.600000000000001
aF3.450000000000003
aF0.0
abag1
(g23
g3
Ntp60
Rp61
(lp62
I0
aI0
aI0
aI1
ababsg27
F0.0
sg28
(lp63
sg30
I01
sg31
g10
sg32
I0
sbag1
(g2
g3
Ntp64
Rp65
(dp66
g7
g10
sg12
S'WayPoint2'
p67
sg14
g1
(g15
g3
Ntp68
Rp69
(lp70
g1
(g19
g3
Ntp71
Rp72
(lp73
F-3.1999999999999993
aF-3.349999999999998
aF0.0
abag1
(g23
g3
Ntp74
Rp75
(lp76
I0
aI0
aI0
aI1
ababsg27
F15.033
sg28
(lp77
sg30
I00
sg31
g1
(g8
g3
Ntp78
Rp79
(lp80
I4
aI0
absg32
F57.82
sbag1
(g2
g3
Ntp81
Rp82
(dp83
g7
g10
sg12
S'WayPoint3'
p84
sg14
g1
(g15
g3
Ntp85
Rp86
(lp87
g1
(g19
g3
Ntp88
Rp89
(lp90
F0.0
aF-3.349999999999998
aF0.0
abag1
(g23
g3
Ntp91
Rp92
(lp93
I0
aI0
aI0
aI1
ababsg27
F0.0
sg28
(lp94
sg30
I01
sg31
g10
sg32
I0
sbag1
(g2
g3
Ntp95
Rp96
(dp97
g7
g10
sg12
S'WayPoint4'
p98
sg14
g1
(g15
g3
Ntp99
Rp100
(lp101
g1
(g19
g3
Ntp102
Rp103
(lp104
F2.3500000000000014
aF-3.2499999999999982
aF0.0
abag1
(g23
g3
Ntp105
Rp106
(lp107
I0
aI0
aI0
aI1
ababsg27
F0.0
sg28
(lp108
sg30
I01
sg31
g10
sg32
I0
sbag1
(g2
g3
Ntp109
Rp110
(dp111
g7
g1
(g8
g3
Ntp112
Rp113
(lp114
I54
aI400000000
absg12
S'WayPoint5'
p115
sg14
g1
(g15
g3
Ntp116
Rp117
(lp118
g1
(g19
g3
Ntp119
Rp120
(lp121
F5.4
aF-3.4499999999999975
aF0.0
abag1
(g23
g3
Ntp122
Rp123
(lp124
I0
aI0
aI0
aI1
ababsg27
F0.0
sg28
(lp125
g1
(cdestination
Observation
p126
g3
Ntp127
Rp128
(dp129
S'idleness'
p130
g1
(cdestination
Idleness
p131
g3
Ntp132
Rp133
(dp134
S'_Idleness__true_idl'
p135
F54.4
sS'_Idleness__estim_idl'
p136
F39.92
sS'_Idleness__remaining_idl'
p137
F52.0
sbsg27
F10.38
sbasg30
I01
sg31
g113
sg32
I0
sbag1
(g2
g3
Ntp138
Rp139
(dp140
g7
g10
sg12
S'WayPoint6'
p141
sg14
g1
(g15
g3
Ntp142
Rp143
(lp144
g1
(g19
g3
Ntp145
Rp146
(lp147
F4.850000000000001
aF-0.7499999999999982
aF0.0
abag1
(g23
g3
Ntp148
Rp149
(lp150
I0
aI0
aI0
aI1
ababsg27
F0.0
sg28
(lp151
sg30
I01
sg31
g10
sg32
I0
sbag1
(g2
g3
Ntp152
Rp153
(dp154
g7
g10
sg12
S'WayPoint7'
p155
sg14
g1
(g15
g3
Ntp156
Rp157
(lp158
g1
(g19
g3
Ntp159
Rp160
(lp161
F1.0500000000000007
aF-0.6999999999999975
aF0.0
abag1
(g23
g3
Ntp162
Rp163
(lp164
I0
aI0
aI0
aI1
ababsg27
F0.0
sg28
(lp165
sg30
I01
sg31
g10
sg32
I0
sbag1
(g2
g3
Ntp166
Rp167
(dp168
g7
g10
sg12
S'WayPoint8'
p169
sg14
g1
(g15
g3
Ntp170
Rp171
(lp172
g1
(g19
g3
Ntp173
Rp174
(lp175
F-3.05
aF-0.5999999999999979
aF0.0
abag1
(g23
g3
Ntp176
Rp177
(lp178
I0
aI0
aI0
aI1
ababsg27
F10.928
sg28
(lp179
sg30
I00
sg31
g1
(g8
g3
Ntp180
Rp181
(lp182
I55
aI0
absg32
F42.03
sbag1
(g2
g3
Ntp183
Rp184
(dp185
g7
g10
sg12
S'WayPoint9'
p186
sg14
g1
(g15
g3
Ntp187
Rp188
(lp189
g1
(g19
g3
Ntp190
Rp191
(lp192
F-1.5
aF2.700000000000003
aF0.0
abag1
(g23
g3
Ntp193
Rp194
(lp195
I0
aI0
aI0
aI1
ababsg27
F0.0
sg28
(lp196
sg30
I01
sg31
g10
sg32
I0
sba.