(lp0
ccopy_reg
_reconstructor
p1
(cdestination
Destination
p2
c__builtin__
object
p3
Ntp4
Rp5
(dp6
S'_Destination__latest_usage'
p7
g1
(crospy.rostime
Time
p8
g3
Ntp9
Rp10
(lp11
I18
aI600000000
absS'name'
p12
S'WayPoint1'
p13
sS'pose'
p14
g1
(cgeometry_msgs.msg._Pose
Pose
p15
g3
Ntp16
Rp17
(lp18
g1
(cgeometry_msgs.msg._Point
Point
p19
g3
Ntp20
Rp21
(lp22
F-2.75
aF1.0500000000000025
aF0.0
abag1
(cgeometry_msgs.msg._Quaternion
Quaternion
p23
g3
Ntp24
Rp25
(lp26
I0
aI0
aI0
aI1
ababsS'path_len'
p27
F0.0
sS'_Destination__stats'
p28
(lp29
g1
(cdestination
Observation
p30
g3
Ntp31
Rp32
(dp33
S'idleness'
p34
g1
(cdestination
Idleness
p35
g3
Ntp36
Rp37
(dp38
S'_Idleness__true_idl'
p39
F18.6
sS'_Idleness__estim_idl'
p40
F16.4
sS'_Idleness__remaining_idl'
p41
F16.0
sbsg27
F4.264
sbasS'_Destination__available'
p42
I01
sS'_Destination__remaining_idl'
p43
g10
sS'estim_idl'
p44
I0
sbag1
(g2
g3
Ntp45
Rp46
(dp47
g7
g1
(g8
g3
Ntp48
Rp49
(lp50
I0
aI0
absg12
S'WayPoint2'
p51
sg14
g1
(g15
g3
Ntp52
Rp53
(lp54
g1
(g19
g3
Ntp55
Rp56
(lp57
F5.15
aF0.9000000000000021
aF0.0
abag1
(g23
g3
Ntp58
Rp59
(lp60
I0
aI0
aI0
aI1
ababsg27
F12.437
sg28
(lp61
sg42
I00
sg43
g1
(g8
g3
Ntp62
Rp63
(lp64
I38
aI600000000
absg44
F47.84
sbag1
(g2
g3
Ntp65
Rp66
(dp67
g7
g49
sg12
S'WayPoint3'
p68
sg14
g1
(g15
g3
Ntp69
Rp70
(lp71
g1
(g19
g3
Ntp72
Rp73
(lp74
F4.850000000000001
aF3.900000000000002
aF0.0
abag1
(g23
g3
Ntp75
Rp76
(lp77
I0
aI0
aI0
aI1
ababsg27
F18.589
sg28
(lp78
sg42
I00
sg43
g1
(g8
g3
Ntp79
Rp80
(lp81
I2
aI600000000
absg44
F71.5
sbag1
(g2
g3
Ntp82
Rp83
(dp84
g7
g49
sg12
S'WayPoint4'
p85
sg14
g1
(g15
g3
Ntp86
Rp87
(lp88
g1
(g19
g3
Ntp89
Rp90
(lp91
F1.200000000000001
aF3.1000000000000023
aF0.0
abag1
(g23
g3
Ntp92
Rp93
(lp94
I0
aI0
aI0
aI1
ababsg27
F12.546
sg28
(lp95
sg42
I00
sg43
g80
sg44
F48.25
sbag1
(g2
g3
Ntp96
Rp97
(dp98
g7
g1
(g8
g3
Ntp99
Rp100
(lp101
I29
aI600000000
absg12
S'WayPoint5'
p102
sg14
g1
(g15
g3
Ntp103
Rp104
(lp105
g1
(g19
g3
Ntp106
Rp107
(lp108
F5.800000000000001
aF-4.349999999999998
aF0.0
abag1
(g23
g3
Ntp109
Rp110
(lp111
I0
aI0
aI0
aI1
ababsg27
F0.0
sg28
(lp112
g1
(g30
g3
Ntp113
Rp114
(dp115
g34
g1
(g35
g3
Ntp116
Rp117
(dp118
g39
F29.6
sg40
F23.26
sg41
F27.0
sbsg27
F6.047
sbasg42
I01
sg43
g100
sg44
I0
sbag1
(g2
g3
Ntp119
Rp120
(dp121
g7
g1
(g8
g3
Ntp122
Rp123
(lp124
I37
aI601000000
absg12
S'WayPoint6'
p125
sg14
g1
(g15
g3
Ntp126
Rp127
(lp128
g1
(g19
g3
Ntp129
Rp130
(lp131
F-6.15
aF3.150000000000002
aF0.0
abag1
(g23
g3
Ntp132
Rp133
(lp134
I0
aI0
aI0
aI1
ababsg27
F0.0
sg28
(lp135
g1
(g30
g3
Ntp136
Rp137
(dp138
g34
g1
(g35
g3
Ntp139
Rp140
(dp141
g39
F37.601
sg40
F16.52
sg41
F18.0
sbsg27
F4.295
sbasg42
I01
sg43
g123
sg44
I0
sbag1
(g2
g3
Ntp142
Rp143
(dp144
g7
g49
sg12
S'WayPoint7'
p145
sg14
g1
(g15
g3
Ntp146
Rp147
(lp148
g1
(g19
g3
Ntp149
Rp150
(lp151
F-6.3
aF-1.8999999999999986
aF0.0
abag1
(g23
g3
Ntp152
Rp153
(lp154
I0
aI0
aI0
aI1
ababsg27
F22.347
sg28
(lp155
sg42
I00
sg43
g1
(g8
g3
Ntp156
Rp157
(lp158
I30
aI600000000
absg44
F85.95
sba.