(lp0
ccopy_reg
_reconstructor
p1
(cdestination
Destination
p2
c__builtin__
object
p3
Ntp4
Rp5
(dp6
S'_Destination__latest_usage'
p7
g1
(crospy.rostime
Time
p8
g3
Ntp9
Rp10
(lp11
I0
aI0
absS'name'
p12
S'WayPoint1'
p13
sS'pose'
p14
g1
(cgeometry_msgs.msg._Pose
Pose
p15
g3
Ntp16
Rp17
(lp18
g1
(cgeometry_msgs.msg._Point
Point
p19
g3
Ntp20
Rp21
(lp22
F-1.549999999999999
aF-0.8999999999999986
aF0.0
abag1
(cgeometry_msgs.msg._Quaternion
Quaternion
p23
g3
Ntp24
Rp25
(lp26
I0
aI0
aI0
aI1
ababsS'_Destination__stats'
p27
(lp28
sS'_Destination__available'
p29
I00
sS'_Destination__remaining_idl'
p30
g1
(g8
g3
Ntp31
Rp32
(lp33
I43
aI4000000
absS'estim_idl'
p34
F35.99
sbag1
(g2
g3
Ntp35
Rp36
(dp37
g7
g10
sg12
S'WayPoint10'
p38
sg14
g1
(g15
g3
Ntp39
Rp40
(lp41
g1
(g19
g3
Ntp42
Rp43
(lp44
F-2.75
aF4.0500000000000025
aF0.0
abag1
(g23
g3
Ntp45
Rp46
(lp47
I0
aI0
aI0
aI1
ababsg27
(lp48
sg29
I01
sg30
g10
sg34
I0
sbag1
(g2
g3
Ntp49
Rp50
(dp51
g7
g1
(g8
g3
Ntp52
Rp53
(lp54
I39
aI600000000
absg12
S'WayPoint2'
p55
sg14
g1
(g15
g3
Ntp56
Rp57
(lp58
g1
(g19
g3
Ntp59
Rp60
(lp61
F-5.25
aF-0.04999999999999716
aF0.0
abag1
(g23
g3
Ntp62
Rp63
(lp64
I0
aI0
aI0
aI1
ababsg27
(lp65
g1
(cdestination
Idleness
p66
g3
Ntp67
Rp68
(dp69
S'_Idleness__true_idl'
p70
F39.6
sS'_Idleness__estim_idl'
p71
F36.28
sS'_Idleness__remaining_idl'
p72
F37.0
sbasg29
I01
sg30
g53
sg34
I0
sbag1
(g2
g3
Ntp73
Rp74
(dp75
g7
g10
sg12
S'WayPoint3'
p76
sg14
g1
(g15
g3
Ntp77
Rp78
(lp79
g1
(g19
g3
Ntp80
Rp81
(lp82
F-2.6499999999999995
aF-3.8999999999999986
aF0.0
abag1
(g23
g3
Ntp83
Rp84
(lp85
I0
aI0
aI0
aI1
ababsg27
(lp86
sg29
I00
sg30
g1
(g8
g3
Ntp87
Rp88
(lp89
I2
aI402000000
absg34
F46.59
sbag1
(g2
g3
Ntp90
Rp91
(dp92
g7
g10
sg12
S'WayPoint4'
p93
sg14
g1
(g15
g3
Ntp94
Rp95
(lp96
g1
(g19
g3
Ntp97
Rp98
(lp99
F3.700000000000001
aF-1.3499999999999979
aF0.0
abag1
(g23
g3
Ntp100
Rp101
(lp102
I0
aI0
aI0
aI1
ababsg27
(lp103
sg29
I00
sg30
g1
(g8
g3
Ntp104
Rp105
(lp106
I33
aI801000000
absg34
F32.47
sbag1
(g2
g3
Ntp107
Rp108
(dp109
g7
g1
(g8
g3
Ntp110
Rp111
(lp112
I42
aI600000000
absg12
S'WayPoint5'
p113
sg14
g1
(g15
g3
Ntp114
Rp115
(lp116
g1
(g19
g3
Ntp117
Rp118
(lp119
F7.650000000000002
aF-1.4999999999999982
aF0.0
abag1
(g23
g3
Ntp120
Rp121
(lp122
I0
aI0
aI0
aI1
ababsg27
(lp123
g1
(g66
g3
Ntp124
Rp125
(dp126
g70
F42.6
sg71
F35.95
sg72
F40.0
sbasg29
I01
sg30
g111
sg34
I0
sbag1
(g2
g3
Ntp127
Rp128
(dp129
g7
g10
sg12
S'WayPoint6'
p130
sg14
g1
(g15
g3
Ntp131
Rp132
(lp133
g1
(g19
g3
Ntp134
Rp135
(lp136
F4.350000000000001
aF1.6000000000000023
aF0.0
abag1
(g23
g3
Ntp137
Rp138
(lp139
I0
aI0
aI0
aI1
ababsg27
(lp140
sg29
I00
sg30
g1
(g8
g3
Ntp141
Rp142
(lp143
I40
aI200000000
absg34
F38.59
sbag1
(g2
g3
Ntp144
Rp145
(dp146
g7
g10
sg12
S'WayPoint7'
p147
sg14
g1
(g15
g3
Ntp148
Rp149
(lp150
g1
(g19
g3
Ntp151
Rp152
(lp153
F1.700000000000001
aF1.6500000000000021
aF0.0
abag1
(g23
g3
Ntp154
Rp155
(lp156
I0
aI0
aI0
aI1
ababsg27
(lp157
sg29
I01
sg30
g10
sg34
I0
sbag1
(g2
g3
Ntp158
Rp159
(dp160
g7
g1
(g8
g3
Ntp161
Rp162
(lp163
I32
aI804000000
absg12
S'WayPoint8'
p164
sg14
g1
(g15
g3
Ntp165
Rp166
(lp167
g1
(g19
g3
Ntp168
Rp169
(lp170
F0.9000000000000004
aF4.350000000000002
aF0.0
abag1
(g23
g3
Ntp171
Rp172
(lp173
I0
aI0
aI0
aI1
ababsg27
(lp174
g1
(g66
g3
Ntp175
Rp176
(dp177
g70
F32.804
sg71
F26.0
sg72
F30.001
sbasg29
I01
sg30
g162
sg34
I0
sbag1
(g2
g3
Ntp178
Rp179
(dp180
g7
g10
sg12
S'WayPoint9'
p181
sg14
g1
(g15
g3
Ntp182
Rp183
(lp184
g1
(g19
g3
Ntp185
Rp186
(lp187
F5.0
aF4.600000000000002
aF0.0
abag1
(g23
g3
Ntp188
Rp189
(lp190
I0
aI0
aI0
aI1
ababsg27
(lp191
sg29
I01
sg30
g10
sg34
I0
sba.