(lp0
ccopy_reg
_reconstructor
p1
(cdestination
Destination
p2
c__builtin__
object
p3
Ntp4
Rp5
(dp6
S'_Destination__latest_usage'
p7
g1
(crospy.rostime
Time
p8
g3
Ntp9
Rp10
(lp11
I0
aI0
absS'name'
p12
S'WayPoint1'
p13
sS'pose'
p14
g1
(cgeometry_msgs.msg._Pose
Pose
p15
g3
Ntp16
Rp17
(lp18
g1
(cgeometry_msgs.msg._Point
Point
p19
g3
Ntp20
Rp21
(lp22
F-1.549999999999999
aF-0.8999999999999986
aF0.0
abag1
(cgeometry_msgs.msg._Quaternion
Quaternion
p23
g3
Ntp24
Rp25
(lp26
I0
aI0
aI0
aI1
ababsS'_Destination__stats'
p27
(lp28
sS'_Destination__available'
p29
I01
sS'_Destination__remaining_idl'
p30
g10
sS'estim_idl'
p31
I0
sbag1
(g2
g3
Ntp32
Rp33
(dp34
g7
g10
sg12
S'WayPoint10'
p35
sg14
g1
(g15
g3
Ntp36
Rp37
(lp38
g1
(g19
g3
Ntp39
Rp40
(lp41
F-2.75
aF4.0500000000000025
aF0.0
abag1
(g23
g3
Ntp42
Rp43
(lp44
I0
aI0
aI0
aI1
ababsg27
(lp45
sg29
I01
sg30
g10
sg31
I0
sbag1
(g2
g3
Ntp46
Rp47
(dp48
g7
g10
sg12
S'WayPoint2'
p49
sg14
g1
(g15
g3
Ntp50
Rp51
(lp52
g1
(g19
g3
Ntp53
Rp54
(lp55
F-5.25
aF-0.04999999999999716
aF0.0
abag1
(g23
g3
Ntp56
Rp57
(lp58
I0
aI0
aI0
aI1
ababsg27
(lp59
sg29
I00
sg30
g1
(g8
g3
Ntp60
Rp61
(lp62
I3
aI0
absg31
F45.81
sbag1
(g2
g3
Ntp63
Rp64
(dp65
g7
g10
sg12
S'WayPoint3'
p66
sg14
g1
(g15
g3
Ntp67
Rp68
(lp69
g1
(g19
g3
Ntp70
Rp71
(lp72
F-2.6499999999999995
aF-3.8999999999999986
aF0.0
abag1
(g23
g3
Ntp73
Rp74
(lp75
I0
aI0
aI0
aI1
ababsg27
(lp76
sg29
I00
sg30
g1
(g8
g3
Ntp77
Rp78
(lp79
I27
aI2000000
absg31
F28.21
sbag1
(g2
g3
Ntp80
Rp81
(dp82
g7
g1
(g8
g3
Ntp83
Rp84
(lp85
I26
aI0
absg12
S'WayPoint4'
p86
sg14
g1
(g15
g3
Ntp87
Rp88
(lp89
g1
(g19
g3
Ntp90
Rp91
(lp92
F3.700000000000001
aF-1.3499999999999979
aF0.0
abag1
(g23
g3
Ntp93
Rp94
(lp95
I0
aI0
aI0
aI1
ababsg27
(lp96
g1
(cdestination
Idleness
p97
g3
Ntp98
Rp99
(dp100
S'_Idleness__true_idl'
p101
F26.0
sS'_Idleness__estim_idl'
p102
F20.67
sS'_Idleness__remaining_idl'
p103
F23.0
sbasg29
I01
sg30
g84
sg31
I0
sbag1
(g2
g3
Ntp104
Rp105
(dp106
g7
g10
sg12
S'WayPoint5'
p107
sg14
g1
(g15
g3
Ntp108
Rp109
(lp110
g1
(g19
g3
Ntp111
Rp112
(lp113
F7.650000000000002
aF-1.4999999999999982
aF0.0
abag1
(g23
g3
Ntp114
Rp115
(lp116
I0
aI0
aI0
aI1
ababsg27
(lp117
sg29
I01
sg30
g10
sg31
I0
sbag1
(g2
g3
Ntp118
Rp119
(dp120
g7
g10
sg12
S'WayPoint6'
p121
sg14
g1
(g15
g3
Ntp122
Rp123
(lp124
g1
(g19
g3
Ntp125
Rp126
(lp127
F4.350000000000001
aF1.6000000000000023
aF0.0
abag1
(g23
g3
Ntp128
Rp129
(lp130
I0
aI0
aI0
aI1
ababsg27
(lp131
sg29
I01
sg30
g10
sg31
I0
sbag1
(g2
g3
Ntp132
Rp133
(dp134
g7
g10
sg12
S'WayPoint7'
p135
sg14
g1
(g15
g3
Ntp136
Rp137
(lp138
g1
(g19
g3
Ntp139
Rp140
(lp141
F1.700000000000001
aF1.6500000000000021
aF0.0
abag1
(g23
g3
Ntp142
Rp143
(lp144
I0
aI0
aI0
aI1
ababsg27
(lp145
sg29
I00
sg30
g1
(g8
g3
Ntp146
Rp147
(lp148
I2
aI604000000
absg31
F19.44
sbag1
(g2
g3
Ntp149
Rp150
(dp151
g7
g10
sg12
S'WayPoint8'
p152
sg14
g1
(g15
g3
Ntp153
Rp154
(lp155
g1
(g19
g3
Ntp156
Rp157
(lp158
F0.9000000000000004
aF4.350000000000002
aF0.0
abag1
(g23
g3
Ntp159
Rp160
(lp161
I0
aI0
aI0
aI1
ababsg27
(lp162
sg29
I00
sg30
g1
(g8
g3
Ntp163
Rp164
(lp165
I3
aI201000000
absg31
F32.7
sbag1
(g2
g3
Ntp166
Rp167
(dp168
g7
g10
sg12
S'WayPoint9'
p169
sg14
g1
(g15
g3
Ntp170
Rp171
(lp172
g1
(g19
g3
Ntp173
Rp174
(lp175
F5.0
aF4.600000000000002
aF0.0
abag1
(g23
g3
Ntp176
Rp177
(lp178
I0
aI0
aI0
aI1
ababsg27
(lp179
sg29
I01
sg30
g10
sg31
I0
sba.