(lp0
ccopy_reg
_reconstructor
p1
(cdestination
Destination
p2
c__builtin__
object
p3
Ntp4
Rp5
(dp6
S'_Destination__latest_usage'
p7
g1
(crospy.rostime
Time
p8
g3
Ntp9
Rp10
(lp11
I0
aI0
absS'name'
p12
S'WayPoint1'
p13
sS'pose'
p14
g1
(cgeometry_msgs.msg._Pose
Pose
p15
g3
Ntp16
Rp17
(lp18
g1
(cgeometry_msgs.msg._Point
Point
p19
g3
Ntp20
Rp21
(lp22
F-1.549999999999999
aF-0.8999999999999986
aF0.0
abag1
(cgeometry_msgs.msg._Quaternion
Quaternion
p23
g3
Ntp24
Rp25
(lp26
I0
aI0
aI0
aI1
ababsS'_Destination__stats'
p27
(lp28
sS'_Destination__available'
p29
I00
sS'_Destination__remaining_idl'
p30
g1
(g8
g3
Ntp31
Rp32
(lp33
I3
aI1000000
absS'estim_idl'
p34
F35.28
sbag1
(g2
g3
Ntp35
Rp36
(dp37
g7
g1
(g8
g3
Ntp38
Rp39
(lp40
I60
aI405000000
absg12
S'WayPoint10'
p41
sg14
g1
(g15
g3
Ntp42
Rp43
(lp44
g1
(g19
g3
Ntp45
Rp46
(lp47
F-2.75
aF4.0500000000000025
aF0.0
abag1
(g23
g3
Ntp48
Rp49
(lp50
I0
aI0
aI0
aI1
ababsg27
(lp51
g1
(cdestination
Idleness
p52
g3
Ntp53
Rp54
(dp55
S'_Idleness__true_idl'
p56
F60.405
sS'_Idleness__estim_idl'
p57
F20.68
sS'_Idleness__remaining_idl'
p58
F22.005
sbasg29
I01
sg30
g39
sg34
I0
sbag1
(g2
g3
Ntp59
Rp60
(dp61
g7
g1
(g8
g3
Ntp62
Rp63
(lp64
I18
aI0
absg12
S'WayPoint2'
p65
sg14
g1
(g15
g3
Ntp66
Rp67
(lp68
g1
(g19
g3
Ntp69
Rp70
(lp71
F-5.25
aF-0.04999999999999716
aF0.0
abag1
(g23
g3
Ntp72
Rp73
(lp74
I0
aI0
aI0
aI1
ababsg27
(lp75
g1
(g52
g3
Ntp76
Rp77
(dp78
g56
F18.0
sg57
F16.0
sg58
F14.999
sbasg29
I01
sg30
g63
sg34
I0
sbag1
(g2
g3
Ntp79
Rp80
(dp81
g7
g10
sg12
S'WayPoint3'
p82
sg14
g1
(g15
g3
Ntp83
Rp84
(lp85
g1
(g19
g3
Ntp86
Rp87
(lp88
F-2.6499999999999995
aF-3.8999999999999986
aF0.0
abag1
(g23
g3
Ntp89
Rp90
(lp91
I0
aI0
aI0
aI1
ababsg27
(lp92
sg29
I00
sg30
g1
(g8
g3
Ntp93
Rp94
(lp95
I19
aI0
absg34
F23.49
sbag1
(g2
g3
Ntp96
Rp97
(dp98
g7
g10
sg12
S'WayPoint4'
p99
sg14
g1
(g15
g3
Ntp100
Rp101
(lp102
g1
(g19
g3
Ntp103
Rp104
(lp105
F3.700000000000001
aF-1.3499999999999979
aF0.0
abag1
(g23
g3
Ntp106
Rp107
(lp108
I0
aI0
aI0
aI1
ababsg27
(lp109
sg29
I01
sg30
g10
sg34
I0
sbag1
(g2
g3
Ntp110
Rp111
(dp112
g7
g10
sg12
S'WayPoint5'
p113
sg14
g1
(g15
g3
Ntp114
Rp115
(lp116
g1
(g19
g3
Ntp117
Rp118
(lp119
F7.650000000000002
aF-1.4999999999999982
aF0.0
abag1
(g23
g3
Ntp120
Rp121
(lp122
I0
aI0
aI0
aI1
ababsg27
(lp123
sg29
I01
sg30
g10
sg34
I0
sbag1
(g2
g3
Ntp124
Rp125
(dp126
g7
g1
(g8
g3
Ntp127
Rp128
(lp129
I32
aI605000000
absg12
S'WayPoint6'
p130
sg14
g1
(g15
g3
Ntp131
Rp132
(lp133
g1
(g19
g3
Ntp134
Rp135
(lp136
F4.350000000000001
aF1.6000000000000023
aF0.0
abag1
(g23
g3
Ntp137
Rp138
(lp139
I0
aI0
aI0
aI1
ababsg27
(lp140
g1
(g52
g3
Ntp141
Rp142
(dp143
g56
F32.605
sg57
F30.54
sg58
F29.604
sbasg29
I01
sg30
g128
sg34
I0
sbag1
(g2
g3
Ntp144
Rp145
(dp146
g7
g1
(g8
g3
Ntp147
Rp148
(lp149
I37
aI402000000
absg12
S'WayPoint7'
p150
sg14
g1
(g15
g3
Ntp151
Rp152
(lp153
g1
(g19
g3
Ntp154
Rp155
(lp156
F1.700000000000001
aF1.6500000000000021
aF0.0
abag1
(g23
g3
Ntp157
Rp158
(lp159
I0
aI0
aI0
aI1
ababsg27
(lp160
g1
(g52
g3
Ntp161
Rp162
(dp163
g56
F37.402
sg57
F23.09
sg58
F34.002
sbasg29
I01
sg30
g148
sg34
I0
sbag1
(g2
g3
Ntp164
Rp165
(dp166
g7
g10
sg12
S'WayPoint8'
p167
sg14
g1
(g15
g3
Ntp168
Rp169
(lp170
g1
(g19
g3
Ntp171
Rp172
(lp173
F0.9000000000000004
aF4.350000000000002
aF0.0
abag1
(g23
g3
Ntp174
Rp175
(lp176
I0
aI0
aI0
aI1
ababsg27
(lp177
sg29
I00
sg30
g1
(g8
g3
Ntp178
Rp179
(lp180
I33
aI602000000
absg34
F20.54
sbag1
(g2
g3
Ntp181
Rp182
(dp183
g7
g10
sg12
S'WayPoint9'
p184
sg14
g1
(g15
g3
Ntp185
Rp186
(lp187
g1
(g19
g3
Ntp188
Rp189
(lp190
F5.0
aF4.600000000000002
aF0.0
abag1
(g23
g3
Ntp191
Rp192
(lp193
I0
aI0
aI0
aI1
ababsg27
(lp194
sg29
I01
sg30
g10
sg34
I0
sba.