(lp0
ccopy_reg
_reconstructor
p1
(cdestination
Destination
p2
c__builtin__
object
p3
Ntp4
Rp5
(dp6
S'_Destination__latest_usage'
p7
g1
(crospy.rostime
Time
p8
g3
Ntp9
Rp10
(lp11
I0
aI0
absS'name'
p12
S'WayPoint1'
p13
sS'pose'
p14
g1
(cgeometry_msgs.msg._Pose
Pose
p15
g3
Ntp16
Rp17
(lp18
g1
(cgeometry_msgs.msg._Point
Point
p19
g3
Ntp20
Rp21
(lp22
F-1.549999999999999
aF-0.8999999999999986
aF0.0
abag1
(cgeometry_msgs.msg._Quaternion
Quaternion
p23
g3
Ntp24
Rp25
(lp26
I0
aI0
aI0
aI1
ababsS'_Destination__stats'
p27
(lp28
sS'_Destination__available'
p29
I00
sS'_Destination__remaining_idl'
p30
g1
(g8
g3
Ntp31
Rp32
(lp33
I49
aI800000000
absS'estim_idl'
p34
F35.35
sbag1
(g2
g3
Ntp35
Rp36
(dp37
g7
g10
sg12
S'WayPoint10'
p38
sg14
g1
(g15
g3
Ntp39
Rp40
(lp41
g1
(g19
g3
Ntp42
Rp43
(lp44
F-2.75
aF4.0500000000000025
aF0.0
abag1
(g23
g3
Ntp45
Rp46
(lp47
I0
aI0
aI0
aI1
ababsg27
(lp48
sg29
I00
sg30
g1
(g8
g3
Ntp49
Rp50
(lp51
I2
aI600000000
absg34
F38.76
sbag1
(g2
g3
Ntp52
Rp53
(dp54
g7
g10
sg12
S'WayPoint2'
p55
sg14
g1
(g15
g3
Ntp56
Rp57
(lp58
g1
(g19
g3
Ntp59
Rp60
(lp61
F-5.25
aF-0.04999999999999716
aF0.0
abag1
(g23
g3
Ntp62
Rp63
(lp64
I0
aI0
aI0
aI1
ababsg27
(lp65
sg29
I01
sg30
g10
sg34
I0
sbag1
(g2
g3
Ntp66
Rp67
(dp68
g7
g10
sg12
S'WayPoint3'
p69
sg14
g1
(g15
g3
Ntp70
Rp71
(lp72
g1
(g19
g3
Ntp73
Rp74
(lp75
F-2.6499999999999995
aF-3.8999999999999986
aF0.0
abag1
(g23
g3
Ntp76
Rp77
(lp78
I0
aI0
aI0
aI1
ababsg27
(lp79
sg29
I00
sg30
g1
(g8
g3
Ntp80
Rp81
(lp82
I41
aI0
absg34
F43.46
sbag1
(g2
g3
Ntp83
Rp84
(dp85
g7
g10
sg12
S'WayPoint4'
p86
sg14
g1
(g15
g3
Ntp87
Rp88
(lp89
g1
(g19
g3
Ntp90
Rp91
(lp92
F3.700000000000001
aF-1.3499999999999979
aF0.0
abag1
(g23
g3
Ntp93
Rp94
(lp95
I0
aI0
aI0
aI1
ababsg27
(lp96
sg29
I01
sg30
g10
sg34
I0
sbag1
(g2
g3
Ntp97
Rp98
(dp99
g7
g1
(g8
g3
Ntp100
Rp101
(lp102
I40
aI600000000
absg12
S'WayPoint5'
p103
sg14
g1
(g15
g3
Ntp104
Rp105
(lp106
g1
(g19
g3
Ntp107
Rp108
(lp109
F7.650000000000002
aF-1.4999999999999982
aF0.0
abag1
(g23
g3
Ntp110
Rp111
(lp112
I0
aI0
aI0
aI1
ababsg27
(lp113
g1
(cdestination
Idleness
p114
g3
Ntp115
Rp116
(dp117
S'_Idleness__true_idl'
p118
F40.6
sS'_Idleness__estim_idl'
p119
F35.95
sS'_Idleness__remaining_idl'
p120
F38.0
sbasg29
I01
sg30
g101
sg34
I0
sbag1
(g2
g3
Ntp121
Rp122
(dp123
g7
g10
sg12
S'WayPoint6'
p124
sg14
g1
(g15
g3
Ntp125
Rp126
(lp127
g1
(g19
g3
Ntp128
Rp129
(lp130
F4.350000000000001
aF1.6000000000000023
aF0.0
abag1
(g23
g3
Ntp131
Rp132
(lp133
I0
aI0
aI0
aI1
ababsg27
(lp134
sg29
I01
sg30
g10
sg34
I0
sbag1
(g2
g3
Ntp135
Rp136
(dp137
g7
g10
sg12
S'WayPoint7'
p138
sg14
g1
(g15
g3
Ntp139
Rp140
(lp141
g1
(g19
g3
Ntp142
Rp143
(lp144
F1.700000000000001
aF1.6500000000000021
aF0.0
abag1
(g23
g3
Ntp145
Rp146
(lp147
I0
aI0
aI0
aI1
ababsg27
(lp148
sg29
I01
sg30
g10
sg34
I0
sbag1
(g2
g3
Ntp149
Rp150
(dp151
g7
g10
sg12
S'WayPoint8'
p152
sg14
g1
(g15
g3
Ntp153
Rp154
(lp155
g1
(g19
g3
Ntp156
Rp157
(lp158
F0.9000000000000004
aF4.350000000000002
aF0.0
abag1
(g23
g3
Ntp159
Rp160
(lp161
I0
aI0
aI0
aI1
ababsg27
(lp162
sg29
I00
sg30
g50
sg34
F32.7
sbag1
(g2
g3
Ntp163
Rp164
(dp165
g7
g1
(g8
g3
Ntp166
Rp167
(lp168
I48
aI800000000
absg12
S'WayPoint9'
p169
sg14
g1
(g15
g3
Ntp170
Rp171
(lp172
g1
(g19
g3
Ntp173
Rp174
(lp175
F5.0
aF4.600000000000002
aF0.0
abag1
(g23
g3
Ntp176
Rp177
(lp178
I0
aI0
aI0
aI1
ababsg27
(lp179
g1
(g114
g3
Ntp180
Rp181
(dp182
g118
F48.8
sg119
F38.52
sg120
F46.0
sbasg29
I01
sg30
g167
sg34
I0
sba.