(lp0
ccopy_reg
_reconstructor
p1
(cdestination
Destination
p2
c__builtin__
object
p3
Ntp4
Rp5
(dp6
S'_Destination__latest_usage'
p7
g1
(crospy.rostime
Time
p8
g3
Ntp9
Rp10
(lp11
I38
aI201000000
absS'name'
p12
S'WayPoint1'
p13
sS'pose'
p14
g1
(cgeometry_msgs.msg._Pose
Pose
p15
g3
Ntp16
Rp17
(lp18
g1
(cgeometry_msgs.msg._Point
Point
p19
g3
Ntp20
Rp21
(lp22
F-2.75
aF1.0500000000000025
aF0.0
abag1
(cgeometry_msgs.msg._Quaternion
Quaternion
p23
g3
Ntp24
Rp25
(lp26
I0
aI0
aI0
aI1
ababsS'_Destination__stats'
p27
(lp28
g1
(cdestination
Idleness
p29
g3
Ntp30
Rp31
(dp32
S'_Idleness__true_idl'
p33
F38.201
sS'_Idleness__estim_idl'
p34
F31.58
sS'_Idleness__remaining_idl'
p35
F36.001
sbasS'_Destination__available'
p36
I00
sS'_Destination__remaining_idl'
p37
g1
(g8
g3
Ntp38
Rp39
(lp40
I57
aI800000000
absS'estim_idl'
p41
F32.55
sbag1
(g2
g3
Ntp42
Rp43
(dp44
g7
g1
(g8
g3
Ntp45
Rp46
(lp47
I0
aI0
absg12
S'WayPoint2'
p48
sg14
g1
(g15
g3
Ntp49
Rp50
(lp51
g1
(g19
g3
Ntp52
Rp53
(lp54
F5.15
aF0.9000000000000021
aF0.0
abag1
(g23
g3
Ntp55
Rp56
(lp57
I0
aI0
aI0
aI1
ababsg27
(lp58
sg36
I00
sg37
g1
(g8
g3
Ntp59
Rp60
(lp61
I2
aI800000000
absg41
F31.53
sbag1
(g2
g3
Ntp62
Rp63
(dp64
g7
g46
sg12
S'WayPoint3'
p65
sg14
g1
(g15
g3
Ntp66
Rp67
(lp68
g1
(g19
g3
Ntp69
Rp70
(lp71
F4.850000000000001
aF3.900000000000002
aF0.0
abag1
(g23
g3
Ntp72
Rp73
(lp74
I0
aI0
aI0
aI1
ababsg27
(lp75
sg36
I00
sg37
g1
(g8
g3
Ntp76
Rp77
(lp78
I56
aI802000000
absg41
F55.33
sbag1
(g2
g3
Ntp79
Rp80
(dp81
g7
g46
sg12
S'WayPoint4'
p82
sg14
g1
(g15
g3
Ntp83
Rp84
(lp85
g1
(g19
g3
Ntp86
Rp87
(lp88
F1.200000000000001
aF3.1000000000000023
aF0.0
abag1
(g23
g3
Ntp89
Rp90
(lp91
I0
aI0
aI0
aI1
ababsg27
(lp92
sg36
I00
sg37
g60
sg41
F80.4
sbag1
(g2
g3
Ntp93
Rp94
(dp95
g7
g46
sg12
S'WayPoint5'
p96
sg14
g1
(g15
g3
Ntp97
Rp98
(lp99
g1
(g19
g3
Ntp100
Rp101
(lp102
F5.800000000000001
aF-4.349999999999998
aF0.0
abag1
(g23
g3
Ntp103
Rp104
(lp105
I0
aI0
aI0
aI1
ababsg27
(lp106
sg36
I01
sg37
g46
sg41
I0
sbag1
(g2
g3
Ntp107
Rp108
(dp109
g7
g1
(g8
g3
Ntp110
Rp111
(lp112
I55
aI802000000
absg12
S'WayPoint6'
p113
sg14
g1
(g15
g3
Ntp114
Rp115
(lp116
g1
(g19
g3
Ntp117
Rp118
(lp119
F-6.15
aF3.150000000000002
aF0.0
abag1
(g23
g3
Ntp120
Rp121
(lp122
I0
aI0
aI0
aI1
ababsg27
(lp123
g1
(g29
g3
Ntp124
Rp125
(dp126
g33
F55.802
sg34
F16.38
sg35
F17.001
sbasg36
I01
sg37
g111
sg41
I0
sbag1
(g2
g3
Ntp127
Rp128
(dp129
g7
g77
sg12
S'WayPoint7'
p130
sg14
g1
(g15
g3
Ntp131
Rp132
(lp133
g1
(g19
g3
Ntp134
Rp135
(lp136
F-6.3
aF-1.8999999999999986
aF0.0
abag1
(g23
g3
Ntp137
Rp138
(lp139
I0
aI0
aI0
aI1
ababsg27
(lp140
g1
(g29
g3
Ntp141
Rp142
(dp143
g33
F56.802
sg34
F19.79
sg35
F54.002
sbasg36
I01
sg37
g77
sg41
I0
sba.