(lp0
ccopy_reg
_reconstructor
p1
(cdestination
Destination
p2
c__builtin__
object
p3
Ntp4
Rp5
(dp6
S'_Destination__latest_usage'
p7
g1
(crospy.rostime
Time
p8
g3
Ntp9
Rp10
(lp11
I37
aI600000000
absS'name'
p12
S'WayPoint1'
p13
sS'pose'
p14
g1
(cgeometry_msgs.msg._Pose
Pose
p15
g3
Ntp16
Rp17
(lp18
g1
(cgeometry_msgs.msg._Point
Point
p19
g3
Ntp20
Rp21
(lp22
F-1.549999999999999
aF-0.8999999999999986
aF0.0
abag1
(cgeometry_msgs.msg._Quaternion
Quaternion
p23
g3
Ntp24
Rp25
(lp26
I0
aI0
aI0
aI1
ababsS'path_len'
p27
F3.289
sS'_Destination__stats'
p28
(lp29
g1
(cdestination
Observation
p30
g3
Ntp31
Rp32
(dp33
S'idleness'
p34
g1
(cdestination
Idleness
p35
g3
Ntp36
Rp37
(dp38
S'_Idleness__true_idl'
p39
F37.6
sS'_Idleness__estim_idl'
p40
F33.53
sS'_Idleness__remaining_idl'
p41
F35.0
sbsg27
F8.719
sbasS'_Destination__available'
p42
I00
sS'_Destination__remaining_idl'
p43
g1
(g8
g3
Ntp44
Rp45
(lp46
I49
aI801000000
absS'estim_idl'
p47
F12.65
sbag1
(g2
g3
Ntp48
Rp49
(dp50
g7
g1
(g8
g3
Ntp51
Rp52
(lp53
I0
aI0
absg12
S'WayPoint10'
p54
sg14
g1
(g15
g3
Ntp55
Rp56
(lp57
g1
(g19
g3
Ntp58
Rp59
(lp60
F-2.75
aF4.0500000000000025
aF0.0
abag1
(g23
g3
Ntp61
Rp62
(lp63
I0
aI0
aI0
aI1
ababsg27
F0.0
sg28
(lp64
sg42
I01
sg43
g52
sg47
I0
sbag1
(g2
g3
Ntp65
Rp66
(dp67
g7
g1
(g8
g3
Ntp68
Rp69
(lp70
I18
aI800000000
absg12
S'WayPoint2'
p71
sg14
g1
(g15
g3
Ntp72
Rp73
(lp74
g1
(g19
g3
Ntp75
Rp76
(lp77
F-5.25
aF-0.04999999999999716
aF0.0
abag1
(g23
g3
Ntp78
Rp79
(lp80
I0
aI0
aI0
aI1
ababsg27
F0.0
sg28
(lp81
g1
(g30
g3
Ntp82
Rp83
(dp84
g34
g1
(g35
g3
Ntp85
Rp86
(dp87
g39
F18.8
sg40
F16.0
sg41
F16.0
sbsg27
F4.16
sbasg42
I01
sg43
g69
sg47
I0
sbag1
(g2
g3
Ntp88
Rp89
(dp90
g7
g1
(g8
g3
Ntp91
Rp92
(lp93
I48
aI800000000
absg12
S'WayPoint3'
p94
sg14
g1
(g15
g3
Ntp95
Rp96
(lp97
g1
(g19
g3
Ntp98
Rp99
(lp100
F-2.6499999999999995
aF-3.8999999999999986
aF0.0
abag1
(g23
g3
Ntp101
Rp102
(lp103
I0
aI0
aI0
aI1
ababsg27
F0.0
sg28
(lp104
g1
(g30
g3
Ntp105
Rp106
(dp107
g34
g1
(g35
g3
Ntp108
Rp109
(dp110
g39
F48.8
sg40
F23.49
sg41
F29.0
sbsg27
F6.107
sbasg42
I01
sg43
g92
sg47
I0
sbag1
(g2
g3
Ntp111
Rp112
(dp113
g7
g52
sg12
S'WayPoint4'
p114
sg14
g1
(g15
g3
Ntp115
Rp116
(lp117
g1
(g19
g3
Ntp118
Rp119
(lp120
F3.700000000000001
aF-1.3499999999999979
aF0.0
abag1
(g23
g3
Ntp121
Rp122
(lp123
I0
aI0
aI0
aI1
ababsg27
F5.963
sg28
(lp124
sg42
I00
sg43
g1
(g8
g3
Ntp125
Rp126
(lp127
I55
aI0
absg47
F22.93
sbag1
(g2
g3
Ntp128
Rp129
(dp130
g7
g52
sg12
S'WayPoint5'
p131
sg14
g1
(g15
g3
Ntp132
Rp133
(lp134
g1
(g19
g3
Ntp135
Rp136
(lp137
F7.650000000000002
aF-1.4999999999999982
aF0.0
abag1
(g23
g3
Ntp138
Rp139
(lp140
I0
aI0
aI0
aI1
ababsg27
F0.0
sg28
(lp141
sg42
I01
sg43
g52
sg47
I0
sbag1
(g2
g3
Ntp142
Rp143
(dp144
g7
g1
(g8
g3
Ntp145
Rp146
(lp147
I16
aI401000000
absg12
S'WayPoint6'
p148
sg14
g1
(g15
g3
Ntp149
Rp150
(lp151
g1
(g19
g3
Ntp152
Rp153
(lp154
F4.350000000000001
aF1.6000000000000023
aF0.0
abag1
(g23
g3
Ntp155
Rp156
(lp157
I0
aI0
aI0
aI1
ababsg27
F0.0
sg28
(lp158
g1
(g30
g3
Ntp159
Rp160
(dp161
g34
g1
(g35
g3
Ntp162
Rp163
(dp164
g39
F16.401
sg40
F18.38
sg41
F14.001
sbsg27
F4.779
sbasg42
I01
sg43
g146
sg47
I0
sbag1
(g2
g3
Ntp165
Rp166
(dp167
g7
g1
(g8
g3
Ntp168
Rp169
(lp170
I54
aI0
absg12
S'WayPoint7'
p171
sg14
g1
(g15
g3
Ntp172
Rp173
(lp174
g1
(g19
g3
Ntp175
Rp176
(lp177
F1.700000000000001
aF1.6500000000000021
aF0.0
abag1
(g23
g3
Ntp178
Rp179
(lp180
I0
aI0
aI0
aI1
ababsg27
F0.0
sg28
(lp181
g1
(g30
g3
Ntp182
Rp183
(dp184
g34
g1
(g35
g3
Ntp185
Rp186
(dp187
g39
F54.0
sg40
F16.37
sg41
F15.999
sbsg27
F4.256
sbasg42
I01
sg43
g169
sg47
I0
sbag1
(g2
g3
Ntp188
Rp189
(dp190
g7
g52
sg12
S'WayPoint8'
p191
sg14
g1
(g15
g3
Ntp192
Rp193
(lp194
g1
(g19
g3
Ntp195
Rp196
(lp197
F0.9000000000000004
aF4.350000000000002
aF0.0
abag1
(g23
g3
Ntp198
Rp199
(lp200
I0
aI0
aI0
aI1
ababsg27
F8.501
sg28
(lp201
sg42
I00
sg43
g1
(g8
g3
Ntp202
Rp203
(lp204
I2
aI800000000
absg47
F32.7
sbag1
(g2
g3
Ntp205
Rp206
(dp207
g7
g52
sg12
S'WayPoint9'
p208
sg14
g1
(g15
g3
Ntp209
Rp210
(lp211
g1
(g19
g3
Ntp212
Rp213
(lp214
F5.0
aF4.600000000000002
aF0.0
abag1
(g23
g3
Ntp215
Rp216
(lp217
I0
aI0
aI0
aI1
ababsg27
F4.716
sg28
(lp218
sg42
I00
sg43
g1
(g8
g3
Ntp219
Rp220
(lp221
I16
aI800000000
absg47
F18.14
sba.