(lp0
ccopy_reg
_reconstructor
p1
(cdestination
Destination
p2
c__builtin__
object
p3
Ntp4
Rp5
(dp6
S'_Destination__latest_usage'
p7
g1
(crospy.rostime
Time
p8
g3
Ntp9
Rp10
(lp11
I0
aI0
absS'name'
p12
S'WayPoint1'
p13
sS'pose'
p14
g1
(cgeometry_msgs.msg._Pose
Pose
p15
g3
Ntp16
Rp17
(lp18
g1
(cgeometry_msgs.msg._Point
Point
p19
g3
Ntp20
Rp21
(lp22
F-2.75
aF1.0500000000000025
aF0.0
abag1
(cgeometry_msgs.msg._Quaternion
Quaternion
p23
g3
Ntp24
Rp25
(lp26
I0
aI0
aI0
aI1
ababsS'_Destination__stats'
p27
(lp28
sS'_Destination__available'
p29
I01
sS'_Destination__remaining_idl'
p30
g10
sS'estim_idl'
p31
I0
sbag1
(g2
g3
Ntp32
Rp33
(dp34
g7
g10
sg12
S'WayPoint2'
p35
sg14
g1
(g15
g3
Ntp36
Rp37
(lp38
g1
(g19
g3
Ntp39
Rp40
(lp41
F5.15
aF0.9000000000000021
aF0.0
abag1
(g23
g3
Ntp42
Rp43
(lp44
I0
aI0
aI0
aI1
ababsg27
(lp45
sg29
I01
sg30
g10
sg31
I0
sbag1
(g2
g3
Ntp46
Rp47
(dp48
g7
g10
sg12
S'WayPoint3'
p49
sg14
g1
(g15
g3
Ntp50
Rp51
(lp52
g1
(g19
g3
Ntp53
Rp54
(lp55
F4.850000000000001
aF3.900000000000002
aF0.0
abag1
(g23
g3
Ntp56
Rp57
(lp58
I0
aI0
aI0
aI1
ababsg27
(lp59
sg29
I00
sg30
g1
(g8
g3
Ntp60
Rp61
(lp62
I2
aI803000000
absg31
F39.27
sbag1
(g2
g3
Ntp63
Rp64
(dp65
g7
g10
sg12
S'WayPoint4'
p66
sg14
g1
(g15
g3
Ntp67
Rp68
(lp69
g1
(g19
g3
Ntp70
Rp71
(lp72
F1.200000000000001
aF3.1000000000000023
aF0.0
abag1
(g23
g3
Ntp73
Rp74
(lp75
I0
aI0
aI0
aI1
ababsg27
(lp76
sg29
I00
sg30
g1
(g8
g3
Ntp77
Rp78
(lp79
I20
aI802000000
absg31
F80.32
sbag1
(g2
g3
Ntp80
Rp81
(dp82
g7
g10
sg12
S'WayPoint5'
p83
sg14
g1
(g15
g3
Ntp84
Rp85
(lp86
g1
(g19
g3
Ntp87
Rp88
(lp89
F5.800000000000001
aF-4.349999999999998
aF0.0
abag1
(g23
g3
Ntp90
Rp91
(lp92
I0
aI0
aI0
aI1
ababsg27
(lp93
sg29
I00
sg30
g61
sg31
F85.96
sbag1
(g2
g3
Ntp94
Rp95
(dp96
g7
g10
sg12
S'WayPoint6'
p97
sg14
g1
(g15
g3
Ntp98
Rp99
(lp100
g1
(g19
g3
Ntp101
Rp102
(lp103
F-6.15
aF3.150000000000002
aF0.0
abag1
(g23
g3
Ntp104
Rp105
(lp106
I0
aI0
aI0
aI1
ababsg27
(lp107
sg29
I00
sg30
g61
sg31
F47.65
sbag1
(g2
g3
Ntp108
Rp109
(dp110
g7
g1
(g8
g3
Ntp111
Rp112
(lp113
I19
aI800000000
absg12
S'WayPoint7'
p114
sg14
g1
(g15
g3
Ntp115
Rp116
(lp117
g1
(g19
g3
Ntp118
Rp119
(lp120
F-6.3
aF-1.8999999999999986
aF0.0
abag1
(g23
g3
Ntp121
Rp122
(lp123
I0
aI0
aI0
aI1
ababsg27
(lp124
g1
(cdestination
Idleness
p125
g3
Ntp126
Rp127
(dp128
S'_Idleness__true_idl'
p129
F19.8
sS'_Idleness__estim_idl'
p130
F19.79
sS'_Idleness__remaining_idl'
p131
F16.997
sbasg29
I01
sg30
g112
sg31
I0
sba.