(lp0
ccopy_reg
_reconstructor
p1
(cdestination
Destination
p2
c__builtin__
object
p3
Ntp4
Rp5
(dp6
S'_Destination__latest_usage'
p7
g1
(crospy.rostime
Time
p8
g3
Ntp9
Rp10
(lp11
I0
aI0
absS'name'
p12
S'WayPoint1'
p13
sS'pose'
p14
g1
(cgeometry_msgs.msg._Pose
Pose
p15
g3
Ntp16
Rp17
(lp18
g1
(cgeometry_msgs.msg._Point
Point
p19
g3
Ntp20
Rp21
(lp22
F-1.549999999999999
aF-0.8999999999999986
aF0.0
abag1
(cgeometry_msgs.msg._Quaternion
Quaternion
p23
g3
Ntp24
Rp25
(lp26
I0
aI0
aI0
aI1
ababsS'path_len'
p27
F5.391
sS'_Destination__stats'
p28
(lp29
sS'_Destination__available'
p30
I00
sS'_Destination__remaining_idl'
p31
g1
(g8
g3
Ntp32
Rp33
(lp34
I60
aI0
absS'estim_idl'
p35
F20.73
sbag1
(g2
g3
Ntp36
Rp37
(dp38
g7
g10
sg12
S'WayPoint10'
p39
sg14
g1
(g15
g3
Ntp40
Rp41
(lp42
g1
(g19
g3
Ntp43
Rp44
(lp45
F-2.75
aF4.0500000000000025
aF0.0
abag1
(g23
g3
Ntp46
Rp47
(lp48
I0
aI0
aI0
aI1
ababsg27
F11.711
sg28
(lp49
sg30
I00
sg31
g1
(g8
g3
Ntp50
Rp51
(lp52
I36
aI800000000
absg35
F45.04
sbag1
(g2
g3
Ntp53
Rp54
(dp55
g7
g10
sg12
S'WayPoint2'
p56
sg14
g1
(g15
g3
Ntp57
Rp58
(lp59
g1
(g19
g3
Ntp60
Rp61
(lp62
F-5.25
aF-0.04999999999999716
aF0.0
abag1
(g23
g3
Ntp63
Rp64
(lp65
I0
aI0
aI0
aI1
ababsg27
F0.0
sg28
(lp66
sg30
I01
sg31
g10
sg35
I0
sbag1
(g2
g3
Ntp67
Rp68
(dp69
g7
g1
(g8
g3
Ntp70
Rp71
(lp72
I35
aI800000000
absg12
S'WayPoint3'
p73
sg14
g1
(g15
g3
Ntp74
Rp75
(lp76
g1
(g19
g3
Ntp77
Rp78
(lp79
F-2.6499999999999995
aF-3.8999999999999986
aF0.0
abag1
(g23
g3
Ntp80
Rp81
(lp82
I0
aI0
aI0
aI1
ababsg27
F0.0
sg28
(lp83
g1
(cdestination
Observation
p84
g3
Ntp85
Rp86
(dp87
S'idleness'
p88
g1
(cdestination
Idleness
p89
g3
Ntp90
Rp91
(dp92
S'_Idleness__true_idl'
p93
F35.8
sS'_Idleness__estim_idl'
p94
F28.32
sS'_Idleness__remaining_idl'
p95
F33.0
sbsg27
F7.364
sbasg30
I01
sg31
g71
sg35
I0
sbag1
(g2
g3
Ntp96
Rp97
(dp98
g7
g1
(g8
g3
Ntp99
Rp100
(lp101
I59
aI0
absg12
S'WayPoint4'
p102
sg14
g1
(g15
g3
Ntp103
Rp104
(lp105
g1
(g19
g3
Ntp106
Rp107
(lp108
F3.700000000000001
aF-1.3499999999999979
aF0.0
abag1
(g23
g3
Ntp109
Rp110
(lp111
I0
aI0
aI0
aI1
ababsg27
F0.0
sg28
(lp112
g1
(g84
g3
Ntp113
Rp114
(dp115
g88
g1
(g89
g3
Ntp116
Rp117
(dp118
g93
F59.0
sg94
F15.58
sg95
F15.999
sbsg27
F4.052
sbasg30
I01
sg31
g100
sg35
I0
sbag1
(g2
g3
Ntp119
Rp120
(dp121
g7
g1
(g8
g3
Ntp122
Rp123
(lp124
I42
aI1000000
absg12
S'WayPoint5'
p125
sg14
g1
(g15
g3
Ntp126
Rp127
(lp128
g1
(g19
g3
Ntp129
Rp130
(lp131
F7.650000000000002
aF-1.4999999999999982
aF0.0
abag1
(g23
g3
Ntp132
Rp133
(lp134
I0
aI0
aI0
aI1
ababsg27
F0.0
sg28
(lp135
g1
(g84
g3
Ntp136
Rp137
(dp138
g88
g1
(g89
g3
Ntp139
Rp140
(dp141
g93
F42.001
sg94
F35.95
sg95
F39.001
sbsg27
F9.346
sbasg30
I01
sg31
g123
sg35
I0
sbag1
(g2
g3
Ntp142
Rp143
(dp144
g7
g1
(g8
g3
Ntp145
Rp146
(lp147
I30
aI400000000
absg12
S'WayPoint6'
p148
sg14
g1
(g15
g3
Ntp149
Rp150
(lp151
g1
(g19
g3
Ntp152
Rp153
(lp154
F4.350000000000001
aF1.6000000000000023
aF0.0
abag1
(g23
g3
Ntp155
Rp156
(lp157
I0
aI0
aI0
aI1
ababsg27
F0.0
sg28
(lp158
g1
(g84
g3
Ntp159
Rp160
(dp161
g88
g1
(g89
g3
Ntp162
Rp163
(dp164
g93
F30.4
sg94
F30.54
sg95
F28.0
sbsg27
F7.941
sbasg30
I01
sg31
g146
sg35
I0
sbag1
(g2
g3
Ntp165
Rp166
(dp167
g7
g10
sg12
S'WayPoint7'
p168
sg14
g1
(g15
g3
Ntp169
Rp170
(lp171
g1
(g19
g3
Ntp172
Rp173
(lp174
F1.700000000000001
aF1.6500000000000021
aF0.0
abag1
(g23
g3
Ntp175
Rp176
(lp177
I0
aI0
aI0
aI1
ababsg27
F4.958
sg28
(lp178
sg30
I00
sg31
g1
(g8
g3
Ntp179
Rp180
(lp181
I49
aI800000000
absg35
F19.07
sbag1
(g2
g3
Ntp182
Rp183
(dp184
g7
g10
sg12
S'WayPoint8'
p185
sg14
g1
(g15
g3
Ntp186
Rp187
(lp188
g1
(g19
g3
Ntp189
Rp190
(lp191
F0.9000000000000004
aF4.350000000000002
aF0.0
abag1
(g23
g3
Ntp192
Rp193
(lp194
I0
aI0
aI0
aI1
ababsg27
F7.465
sg28
(lp195
sg30
I00
sg31
g1
(g8
g3
Ntp196
Rp197
(lp198
I2
aI800000000
absg35
F28.71
sbag1
(g2
g3
Ntp199
Rp200
(dp201
g7
g1
(g8
g3
Ntp202
Rp203
(lp204
I48
aI800000000
absg12
S'WayPoint9'
p205
sg14
g1
(g15
g3
Ntp206
Rp207
(lp208
g1
(g19
g3
Ntp209
Rp210
(lp211
F5.0
aF4.600000000000002
aF0.0
abag1
(g23
g3
Ntp212
Rp213
(lp214
I0
aI0
aI0
aI1
ababsg27
F0.0
sg28
(lp215
g1
(g84
g3
Ntp216
Rp217
(dp218
g88
g1
(g89
g3
Ntp219
Rp220
(dp221
g93
F48.8
sg94
F18.03
sg95
F18.0
sbsg27
F4.689
sbasg30
I01
sg31
g203
sg35
I0
sba.