(lp0
ccopy_reg
_reconstructor
p1
(cdestination
Destination
p2
c__builtin__
object
p3
Ntp4
Rp5
(dp6
S'_Destination__latest_usage'
p7
g1
(crospy.rostime
Time
p8
g3
Ntp9
Rp10
(lp11
I0
aI0
absS'name'
p12
S'WayPoint1'
p13
sS'pose'
p14
g1
(cgeometry_msgs.msg._Pose
Pose
p15
g3
Ntp16
Rp17
(lp18
g1
(cgeometry_msgs.msg._Point
Point
p19
g3
Ntp20
Rp21
(lp22
F-1.549999999999999
aF-0.8999999999999986
aF0.0
abag1
(cgeometry_msgs.msg._Quaternion
Quaternion
p23
g3
Ntp24
Rp25
(lp26
I0
aI0
aI0
aI1
ababsS'path_len'
p27
F0.0
sS'_Destination__stats'
p28
(lp29
sS'_Destination__available'
p30
I01
sS'_Destination__remaining_idl'
p31
g10
sS'estim_idl'
p32
I0
sbag1
(g2
g3
Ntp33
Rp34
(dp35
g7
g10
sg12
S'WayPoint10'
p36
sg14
g1
(g15
g3
Ntp37
Rp38
(lp39
g1
(g19
g3
Ntp40
Rp41
(lp42
F-2.75
aF4.0500000000000025
aF0.0
abag1
(g23
g3
Ntp43
Rp44
(lp45
I0
aI0
aI0
aI1
ababsg27
F0.0
sg28
(lp46
sg30
I01
sg31
g10
sg32
I0
sbag1
(g2
g3
Ntp47
Rp48
(dp49
g7
g10
sg12
S'WayPoint2'
p50
sg14
g1
(g15
g3
Ntp51
Rp52
(lp53
g1
(g19
g3
Ntp54
Rp55
(lp56
F-5.25
aF-0.04999999999999716
aF0.0
abag1
(g23
g3
Ntp57
Rp58
(lp59
I0
aI0
aI0
aI1
ababsg27
F0.0
sg28
(lp60
sg30
I01
sg31
g10
sg32
I0
sbag1
(g2
g3
Ntp61
Rp62
(dp63
g7
g10
sg12
S'WayPoint3'
p64
sg14
g1
(g15
g3
Ntp65
Rp66
(lp67
g1
(g19
g3
Ntp68
Rp69
(lp70
F-2.6499999999999995
aF-3.8999999999999986
aF0.0
abag1
(g23
g3
Ntp71
Rp72
(lp73
I0
aI0
aI0
aI1
ababsg27
F10.362
sg28
(lp74
sg30
I00
sg31
g1
(g8
g3
Ntp75
Rp76
(lp77
I34
aI0
absg32
F39.85
sbag1
(g2
g3
Ntp78
Rp79
(dp80
g7
g10
sg12
S'WayPoint4'
p81
sg14
g1
(g15
g3
Ntp82
Rp83
(lp84
g1
(g19
g3
Ntp85
Rp86
(lp87
F3.700000000000001
aF-1.3499999999999979
aF0.0
abag1
(g23
g3
Ntp88
Rp89
(lp90
I0
aI0
aI0
aI1
ababsg27
F0.0
sg28
(lp91
sg30
I01
sg31
g10
sg32
I0
sbag1
(g2
g3
Ntp92
Rp93
(dp94
g7
g10
sg12
S'WayPoint5'
p95
sg14
g1
(g15
g3
Ntp96
Rp97
(lp98
g1
(g19
g3
Ntp99
Rp100
(lp101
F7.650000000000002
aF-1.4999999999999982
aF0.0
abag1
(g23
g3
Ntp102
Rp103
(lp104
I0
aI0
aI0
aI1
ababsg27
F14.872
sg28
(lp105
sg30
I00
sg31
g1
(g8
g3
Ntp106
Rp107
(lp108
I3
aI200000000
absg32
F57.2
sbag1
(g2
g3
Ntp109
Rp110
(dp111
g7
g10
sg12
S'WayPoint6'
p112
sg14
g1
(g15
g3
Ntp113
Rp114
(lp115
g1
(g19
g3
Ntp116
Rp117
(lp118
F4.350000000000001
aF1.6000000000000023
aF0.0
abag1
(g23
g3
Ntp119
Rp120
(lp121
I0
aI0
aI0
aI1
ababsg27
F7.941
sg28
(lp122
sg30
I00
sg31
g107
sg32
F30.54
sbag1
(g2
g3
Ntp123
Rp124
(dp125
g7
g10
sg12
S'WayPoint7'
p126
sg14
g1
(g15
g3
Ntp127
Rp128
(lp129
g1
(g19
g3
Ntp130
Rp131
(lp132
F1.700000000000001
aF1.6500000000000021
aF0.0
abag1
(g23
g3
Ntp133
Rp134
(lp135
I0
aI0
aI0
aI1
ababsg27
F6.004
sg28
(lp136
sg30
I00
sg31
g1
(g8
g3
Ntp137
Rp138
(lp139
I2
aI800000000
absg32
F23.09
sbag1
(g2
g3
Ntp140
Rp141
(dp142
g7
g1
(g8
g3
Ntp143
Rp144
(lp145
I33
aI1000000
absg12
S'WayPoint8'
p146
sg14
g1
(g15
g3
Ntp147
Rp148
(lp149
g1
(g19
g3
Ntp150
Rp151
(lp152
F0.9000000000000004
aF4.350000000000002
aF0.0
abag1
(g23
g3
Ntp153
Rp154
(lp155
I0
aI0
aI0
aI1
ababsg27
F0.0
sg28
(lp156
g1
(cdestination
Observation
p157
g3
Ntp158
Rp159
(dp160
S'idleness'
p161
g1
(cdestination
Idleness
p162
g3
Ntp163
Rp164
(dp165
S'_Idleness__true_idl'
p166
F33.001
sS'_Idleness__estim_idl'
p167
F25.65
sS'_Idleness__remaining_idl'
p168
F30.401
sbsg27
F6.669
sbasg30
I01
sg31
g144
sg32
I0
sbag1
(g2
g3
Ntp169
Rp170
(dp171
g7
g10
sg12
S'WayPoint9'
p172
sg14
g1
(g15
g3
Ntp173
Rp174
(lp175
g1
(g19
g3
Ntp176
Rp177
(lp178
F5.0
aF4.600000000000002
aF0.0
abag1
(g23
g3
Ntp179
Rp180
(lp181
I0
aI0
aI0
aI1
ababsg27
F0.0
sg28
(lp182
sg30
I01
sg31
g10
sg32
I0
sba.