(lp0
ccopy_reg
_reconstructor
p1
(cdestination
Destination
p2
c__builtin__
object
p3
Ntp4
Rp5
(dp6
S'_Destination__latest_usage'
p7
g1
(crospy.rostime
Time
p8
g3
Ntp9
Rp10
(lp11
I39
aI201000000
absS'name'
p12
S'WayPoint1'
p13
sS'pose'
p14
g1
(cgeometry_msgs.msg._Pose
Pose
p15
g3
Ntp16
Rp17
(lp18
g1
(cgeometry_msgs.msg._Point
Point
p19
g3
Ntp20
Rp21
(lp22
F-1.549999999999999
aF-0.8999999999999986
aF0.0
abag1
(cgeometry_msgs.msg._Quaternion
Quaternion
p23
g3
Ntp24
Rp25
(lp26
I0
aI0
aI0
aI1
ababsS'path_len'
p27
F9.143
sS'_Destination__stats'
p28
(lp29
g1
(cdestination
Observation
p30
g3
Ntp31
Rp32
(dp33
S'idleness'
p34
g1
(cdestination
Idleness
p35
g3
Ntp36
Rp37
(dp38
S'_Idleness__true_idl'
p39
F39.201
sS'_Idleness__estim_idl'
p40
F16.38
sS'_Idleness__remaining_idl'
p41
F17.001
sbsg27
F4.258
sbasS'_Destination__available'
p42
I00
sS'_Destination__remaining_idl'
p43
g1
(g8
g3
Ntp44
Rp45
(lp46
I60
aI0
absS'estim_idl'
p47
F35.16
sbag1
(g2
g3
Ntp48
Rp49
(dp50
g7
g1
(g8
g3
Ntp51
Rp52
(lp53
I0
aI0
absg12
S'WayPoint10'
p54
sg14
g1
(g15
g3
Ntp55
Rp56
(lp57
g1
(g19
g3
Ntp58
Rp59
(lp60
F-2.75
aF4.0500000000000025
aF0.0
abag1
(g23
g3
Ntp61
Rp62
(lp63
I0
aI0
aI0
aI1
ababsg27
F10.589
sg28
(lp64
sg42
I00
sg43
g1
(g8
g3
Ntp65
Rp66
(lp67
I2
aI600000000
absg47
F40.73
sbag1
(g2
g3
Ntp68
Rp69
(dp70
g7
g52
sg12
S'WayPoint2'
p71
sg14
g1
(g15
g3
Ntp72
Rp73
(lp74
g1
(g19
g3
Ntp75
Rp76
(lp77
F-5.25
aF-0.04999999999999716
aF0.0
abag1
(g23
g3
Ntp78
Rp79
(lp80
I0
aI0
aI0
aI1
ababsg27
F6.163
sg28
(lp81
sg42
I00
sg43
g1
(g8
g3
Ntp82
Rp83
(lp84
I54
aI200000000
absg47
F23.7
sbag1
(g2
g3
Ntp85
Rp86
(dp87
g7
g1
(g8
g3
Ntp88
Rp89
(lp90
I53
aI202000000
absg12
S'WayPoint3'
p91
sg14
g1
(g15
g3
Ntp92
Rp93
(lp94
g1
(g19
g3
Ntp95
Rp96
(lp97
F-2.6499999999999995
aF-3.8999999999999986
aF0.0
abag1
(g23
g3
Ntp98
Rp99
(lp100
I0
aI0
aI0
aI1
ababsg27
F0.0
sg28
(lp101
g1
(g30
g3
Ntp102
Rp103
(dp104
g34
g1
(g35
g3
Ntp105
Rp106
(dp107
g39
F53.202
sg40
F12.63
sg41
F13.001
sbsg27
F3.283
sbasg42
I01
sg43
g89
sg47
I0
sbag1
(g2
g3
Ntp108
Rp109
(dp110
g7
g52
sg12
S'WayPoint4'
p111
sg14
g1
(g15
g3
Ntp112
Rp113
(lp114
g1
(g19
g3
Ntp115
Rp116
(lp117
F3.700000000000001
aF-1.3499999999999979
aF0.0
abag1
(g23
g3
Ntp118
Rp119
(lp120
I0
aI0
aI0
aI1
ababsg27
F0.0
sg28
(lp121
sg42
I01
sg43
g52
sg47
I0
sbag1
(g2
g3
Ntp122
Rp123
(dp124
g7
g52
sg12
S'WayPoint5'
p125
sg14
g1
(g15
g3
Ntp126
Rp127
(lp128
g1
(g19
g3
Ntp129
Rp130
(lp131
F7.650000000000002
aF-1.4999999999999982
aF0.0
abag1
(g23
g3
Ntp132
Rp133
(lp134
I0
aI0
aI0
aI1
ababsg27
F0.0
sg28
(lp135
sg42
I01
sg43
g52
sg47
I0
sbag1
(g2
g3
Ntp136
Rp137
(dp138
g7
g1
(g8
g3
Ntp139
Rp140
(lp141
I39
aI0
absg12
S'WayPoint6'
p142
sg14
g1
(g15
g3
Ntp143
Rp144
(lp145
g1
(g19
g3
Ntp146
Rp147
(lp148
F4.350000000000001
aF1.6000000000000023
aF0.0
abag1
(g23
g3
Ntp149
Rp150
(lp151
I0
aI0
aI0
aI1
ababsg27
F0.0
sg28
(lp152
g1
(g30
g3
Ntp153
Rp154
(dp155
g34
g1
(g35
g3
Ntp156
Rp157
(dp158
g39
F39.0
sg40
F30.54
sg41
F36.0
sbsg27
F7.941
sbasg42
I01
sg43
g140
sg47
I0
sbag1
(g2
g3
Ntp159
Rp160
(dp161
g7
g1
(g8
g3
Ntp162
Rp163
(lp164
I21
aI800000000
absg12
S'WayPoint7'
p165
sg14
g1
(g15
g3
Ntp166
Rp167
(lp168
g1
(g19
g3
Ntp169
Rp170
(lp171
F1.700000000000001
aF1.6500000000000021
aF0.0
abag1
(g23
g3
Ntp172
Rp173
(lp174
I0
aI0
aI0
aI1
ababsg27
F0.0
sg28
(lp175
g1
(g30
g3
Ntp176
Rp177
(dp178
g34
g1
(g35
g3
Ntp179
Rp180
(dp181
g39
F21.8
sg40
F16.19
sg41
F19.0
sbsg27
F4.209
sbasg42
I01
sg43
g163
sg47
I0
sbag1
(g2
g3
Ntp182
Rp183
(dp184
g7
g52
sg12
S'WayPoint8'
p185
sg14
g1
(g15
g3
Ntp186
Rp187
(lp188
g1
(g19
g3
Ntp189
Rp190
(lp191
F0.9000000000000004
aF4.350000000000002
aF0.0
abag1
(g23
g3
Ntp192
Rp193
(lp194
I0
aI0
aI0
aI1
ababsg27
F7.466
sg28
(lp195
sg42
I00
sg43
g1
(g8
g3
Ntp196
Rp197
(lp198
I2
aI800000000
absg47
F28.72
sbag1
(g2
g3
Ntp199
Rp200
(dp201
g7
g1
(g8
g3
Ntp202
Rp203
(lp204
I59
aI0
absg12
S'WayPoint9'
p205
sg14
g1
(g15
g3
Ntp206
Rp207
(lp208
g1
(g19
g3
Ntp209
Rp210
(lp211
F5.0
aF4.600000000000002
aF0.0
abag1
(g23
g3
Ntp212
Rp213
(lp214
I0
aI0
aI0
aI1
ababsg27
F0.0
sg28
(lp215
g1
(g30
g3
Ntp216
Rp217
(dp218
g34
g1
(g35
g3
Ntp219
Rp220
(dp221
g39
F59.0
sg40
F18.03
sg41
F19.0
sbsg27
F4.689
sbasg42
I01
sg43
g203
sg47
I0
sba.