(lp0
ccopy_reg
_reconstructor
p1
(cdestination
Destination
p2
c__builtin__
object
p3
Ntp4
Rp5
(dp6
S'_Destination__latest_usage'
p7
g1
(crospy.rostime
Time
p8
g3
Ntp9
Rp10
(lp11
I0
aI0
absS'name'
p12
S'WayPoint1'
p13
sS'pose'
p14
g1
(cgeometry_msgs.msg._Pose
Pose
p15
g3
Ntp16
Rp17
(lp18
g1
(cgeometry_msgs.msg._Point
Point
p19
g3
Ntp20
Rp21
(lp22
F-2.75
aF1.0500000000000025
aF0.0
abag1
(cgeometry_msgs.msg._Quaternion
Quaternion
p23
g3
Ntp24
Rp25
(lp26
I0
aI0
aI0
aI1
ababsS'path_len'
p27
F8.178
sS'_Destination__stats'
p28
(lp29
sS'_Destination__available'
p30
I00
sS'_Destination__remaining_idl'
p31
g1
(g8
g3
Ntp32
Rp33
(lp34
I35
aI200000000
absS'estim_idl'
p35
F31.45
sbag1
(g2
g3
Ntp36
Rp37
(dp38
g7
g1
(g8
g3
Ntp39
Rp40
(lp41
I34
aI600000000
absg12
S'WayPoint2'
p42
sg14
g1
(g15
g3
Ntp43
Rp44
(lp45
g1
(g19
g3
Ntp46
Rp47
(lp48
F5.15
aF0.9000000000000021
aF0.0
abag1
(g23
g3
Ntp49
Rp50
(lp51
I0
aI0
aI0
aI1
ababsg27
F0.0
sg28
(lp52
g1
(cdestination
Observation
p53
g3
Ntp54
Rp55
(dp56
S'idleness'
p57
g1
(cdestination
Idleness
p58
g3
Ntp59
Rp60
(dp61
S'_Idleness__true_idl'
p62
F34.6
sS'_Idleness__estim_idl'
p63
F31.53
sS'_Idleness__remaining_idl'
p64
F32.0
sbsg27
F8.198
sbasg30
I01
sg31
g40
sg35
I0
sbag1
(g2
g3
Ntp65
Rp66
(dp67
g7
g1
(g8
g3
Ntp68
Rp69
(lp70
I15
aI604000000
absg12
S'WayPoint3'
p71
sg14
g1
(g15
g3
Ntp72
Rp73
(lp74
g1
(g19
g3
Ntp75
Rp76
(lp77
F4.850000000000001
aF3.900000000000002
aF0.0
abag1
(g23
g3
Ntp78
Rp79
(lp80
I0
aI0
aI0
aI1
ababsg27
F14.369
sg28
(lp81
g1
(g53
g3
Ntp82
Rp83
(dp84
g57
g1
(g58
g3
Ntp85
Rp86
(dp87
g62
F15.604
sg63
F11.98
sg64
F13.004
sbsg27
F3.116
sbasg30
I00
sg31
g1
(g8
g3
Ntp88
Rp89
(lp90
I58
aI200000000
absg35
F55.27
sbag1
(g2
g3
Ntp91
Rp92
(dp93
g7
g10
sg12
S'WayPoint4'
p94
sg14
g1
(g15
g3
Ntp95
Rp96
(lp97
g1
(g19
g3
Ntp98
Rp99
(lp100
F1.200000000000001
aF3.1000000000000023
aF0.0
abag1
(g23
g3
Ntp101
Rp102
(lp103
I0
aI0
aI0
aI1
ababsg27
F16.698
sg28
(lp104
sg30
I00
sg31
g1
(g8
g3
Ntp105
Rp106
(lp107
I2
aI600000000
absg35
F64.22
sbag1
(g2
g3
Ntp108
Rp109
(dp110
g7
g10
sg12
S'WayPoint5'
p111
sg14
g1
(g15
g3
Ntp112
Rp113
(lp114
g1
(g19
g3
Ntp115
Rp116
(lp117
F5.800000000000001
aF-4.349999999999998
aF0.0
abag1
(g23
g3
Ntp118
Rp119
(lp120
I0
aI0
aI0
aI1
ababsg27
F8.903
sg28
(lp121
sg30
I00
sg31
g1
(g8
g3
Ntp122
Rp123
(lp124
I16
aI200000000
absg35
F34.24
sbag1
(g2
g3
Ntp125
Rp126
(dp127
g7
g1
(g8
g3
Ntp128
Rp129
(lp130
I57
aI201000000
absg12
S'WayPoint6'
p131
sg14
g1
(g15
g3
Ntp132
Rp133
(lp134
g1
(g19
g3
Ntp135
Rp136
(lp137
F-6.15
aF3.150000000000002
aF0.0
abag1
(g23
g3
Ntp138
Rp139
(lp140
I0
aI0
aI0
aI1
ababsg27
F0.0
sg28
(lp141
g1
(g53
g3
Ntp142
Rp143
(dp144
g57
g1
(g58
g3
Ntp145
Rp146
(dp147
g62
F57.201
sg63
F19.95
sg64
F54.001
sbsg27
F5.187
sbasg30
I01
sg31
g129
sg35
I0
sbag1
(g2
g3
Ntp148
Rp149
(dp150
g7
g10
sg12
S'WayPoint7'
p151
sg14
g1
(g15
g3
Ntp152
Rp153
(lp154
g1
(g19
g3
Ntp155
Rp156
(lp157
F-6.3
aF-1.8999999999999986
aF0.0
abag1
(g23
g3
Ntp158
Rp159
(lp160
I0
aI0
aI0
aI1
ababsg27
F22.439
sg28
(lp161
sg30
I00
sg31
g106
sg35
F86.3
sba.