(lp0
ccopy_reg
_reconstructor
p1
(cdestination
Destination
p2
c__builtin__
object
p3
Ntp4
Rp5
(dp6
S'_Destination__latest_usage'
p7
g1
(crospy.rostime
Time
p8
g3
Ntp9
Rp10
(lp11
I18
aI605000000
absS'name'
p12
S'WayPoint1'
p13
sS'pose'
p14
g1
(cgeometry_msgs.msg._Pose
Pose
p15
g3
Ntp16
Rp17
(lp18
g1
(cgeometry_msgs.msg._Point
Point
p19
g3
Ntp20
Rp21
(lp22
F-2.75
aF1.0500000000000025
aF0.0
abag1
(cgeometry_msgs.msg._Quaternion
Quaternion
p23
g3
Ntp24
Rp25
(lp26
I0
aI0
aI0
aI1
ababsS'path_len'
p27
F12.549
sS'_Destination__stats'
p28
(lp29
g1
(cdestination
Observation
p30
g3
Ntp31
Rp32
(dp33
S'idleness'
p34
g1
(cdestination
Idleness
p35
g3
Ntp36
Rp37
(dp38
S'_Idleness__true_idl'
p39
F18.605
sS'_Idleness__estim_idl'
p40
F16.4
sS'_Idleness__remaining_idl'
p41
F16.005
sbsg27
F4.264
sbasS'_Destination__available'
p42
I00
sS'_Destination__remaining_idl'
p43
g1
(g8
g3
Ntp44
Rp45
(lp46
I34
aI0
absS'estim_idl'
p47
F48.27
sbag1
(g2
g3
Ntp48
Rp49
(dp50
g7
g1
(g8
g3
Ntp51
Rp52
(lp53
I21
aI1000000
absg12
S'WayPoint2'
p54
sg14
g1
(g15
g3
Ntp55
Rp56
(lp57
g1
(g19
g3
Ntp58
Rp59
(lp60
F5.15
aF0.9000000000000021
aF0.0
abag1
(g23
g3
Ntp61
Rp62
(lp63
I0
aI0
aI0
aI1
ababsg27
F6.072
sg28
(lp64
g1
(g30
g3
Ntp65
Rp66
(dp67
g34
g1
(g35
g3
Ntp68
Rp69
(dp70
g39
F21.001
sg40
F23.29
sg41
F18.001
sbsg27
F6.056
sbasg42
I00
sg43
g1
(g8
g3
Ntp71
Rp72
(lp73
I59
aI200000000
absg47
F23.35
sbag1
(g2
g3
Ntp74
Rp75
(dp76
g7
g1
(g8
g3
Ntp77
Rp78
(lp79
I0
aI0
absg12
S'WayPoint3'
p80
sg14
g1
(g15
g3
Ntp81
Rp82
(lp83
g1
(g19
g3
Ntp84
Rp85
(lp86
F4.850000000000001
aF3.900000000000002
aF0.0
abag1
(g23
g3
Ntp87
Rp88
(lp89
I0
aI0
aI0
aI1
ababsg27
F18.59
sg28
(lp90
sg42
I00
sg43
g1
(g8
g3
Ntp91
Rp92
(lp93
I3
aI0
absg47
F71.5
sbag1
(g2
g3
Ntp94
Rp95
(dp96
g7
g1
(g8
g3
Ntp97
Rp98
(lp99
I33
aI1000000
absg12
S'WayPoint4'
p100
sg14
g1
(g15
g3
Ntp101
Rp102
(lp103
g1
(g19
g3
Ntp104
Rp105
(lp106
F1.200000000000001
aF3.1000000000000023
aF0.0
abag1
(g23
g3
Ntp107
Rp108
(lp109
I0
aI0
aI0
aI1
ababsg27
F0.0
sg28
(lp110
g1
(g30
g3
Ntp111
Rp112
(dp113
g34
g1
(g35
g3
Ntp114
Rp115
(dp116
g39
F33.001
sg40
F29.48
sg41
F30.001
sbsg27
F7.664
sbasg42
I01
sg43
g98
sg47
I0
sbag1
(g2
g3
Ntp117
Rp118
(dp119
g7
g1
(g8
g3
Ntp120
Rp121
(lp122
I58
aI603000000
absg12
S'WayPoint5'
p123
sg14
g1
(g15
g3
Ntp124
Rp125
(lp126
g1
(g19
g3
Ntp127
Rp128
(lp129
F5.800000000000001
aF-4.349999999999998
aF0.0
abag1
(g23
g3
Ntp130
Rp131
(lp132
I0
aI0
aI0
aI1
ababsg27
F0.0
sg28
(lp133
g1
(g30
g3
Ntp134
Rp135
(dp136
g34
g1
(g35
g3
Ntp137
Rp138
(dp139
g39
F58.603
sg40
F53.79
sg41
F56.003
sbsg27
F13.986
sbasg42
I01
sg43
g121
sg47
I0
sbag1
(g2
g3
Ntp140
Rp141
(dp142
g7
g78
sg12
S'WayPoint6'
p143
sg14
g1
(g15
g3
Ntp144
Rp145
(lp146
g1
(g19
g3
Ntp147
Rp148
(lp149
F-6.15
aF3.150000000000002
aF0.0
abag1
(g23
g3
Ntp150
Rp151
(lp152
I0
aI0
aI0
aI1
ababsg27
F12.338
sg28
(lp153
sg42
I00
sg43
g1
(g8
g3
Ntp154
Rp155
(lp156
I22
aI0
absg47
F47.45
sbag1
(g2
g3
Ntp157
Rp158
(dp159
g7
g1
(g8
g3
Ntp160
Rp161
(lp162
I60
aI232000000
absg12
S'WayPoint7'
p163
sg14
g1
(g15
g3
Ntp164
Rp165
(lp166
g1
(g19
g3
Ntp167
Rp168
(lp169
F-6.3
aF-1.8999999999999986
aF0.0
abag1
(g23
g3
Ntp170
Rp171
(lp172
I0
aI0
aI0
aI1
ababsg27
F0.0
sg28
(lp173
g1
(g30
g3
Ntp174
Rp175
(dp176
g34
g1
(g35
g3
Ntp177
Rp178
(dp179
g39
F60.232
sg40
F32.5
sg41
F41.032
sbsg27
F8.449
sbasg42
I01
sg43
g161
sg47
I0
sba.