(lp0
ccopy_reg
_reconstructor
p1
(cdestination
Destination
p2
c__builtin__
object
p3
Ntp4
Rp5
(dp6
S'_Destination__latest_usage'
p7
g1
(crospy.rostime
Time
p8
g3
Ntp9
Rp10
(lp11
I0
aI0
absS'name'
p12
S'WayPoint1'
p13
sS'pose'
p14
g1
(cgeometry_msgs.msg._Pose
Pose
p15
g3
Ntp16
Rp17
(lp18
g1
(cgeometry_msgs.msg._Point
Point
p19
g3
Ntp20
Rp21
(lp22
F-2.75
aF1.0500000000000025
aF0.0
abag1
(cgeometry_msgs.msg._Quaternion
Quaternion
p23
g3
Ntp24
Rp25
(lp26
I0
aI0
aI0
aI1
ababsS'path_len'
p27
F12.55
sS'_Destination__stats'
p28
(lp29
sS'_Destination__available'
p30
I00
sS'_Destination__remaining_idl'
p31
g1
(g8
g3
Ntp32
Rp33
(lp34
I50
aI800000000
absS'estim_idl'
p35
F48.27
sbag1
(g2
g3
Ntp36
Rp37
(dp38
g7
g10
sg12
S'WayPoint2'
p39
sg14
g1
(g15
g3
Ntp40
Rp41
(lp42
g1
(g19
g3
Ntp43
Rp44
(lp45
F5.15
aF0.9000000000000021
aF0.0
abag1
(g23
g3
Ntp46
Rp47
(lp48
I0
aI0
aI0
aI1
ababsg27
F12.364
sg28
(lp49
sg30
I00
sg31
g1
(g8
g3
Ntp50
Rp51
(lp52
I2
aI601000000
absg35
F47.55
sbag1
(g2
g3
Ntp53
Rp54
(dp55
g7
g10
sg12
S'WayPoint3'
p56
sg14
g1
(g15
g3
Ntp57
Rp58
(lp59
g1
(g19
g3
Ntp60
Rp61
(lp62
F4.850000000000001
aF3.900000000000002
aF0.0
abag1
(g23
g3
Ntp63
Rp64
(lp65
I0
aI0
aI0
aI1
ababsg27
F10.211
sg28
(lp66
sg30
I00
sg31
g51
sg35
F39.27
sbag1
(g2
g3
Ntp67
Rp68
(dp69
g7
g1
(g8
g3
Ntp70
Rp71
(lp72
I49
aI801000000
absg12
S'WayPoint4'
p73
sg14
g1
(g15
g3
Ntp74
Rp75
(lp76
g1
(g19
g3
Ntp77
Rp78
(lp79
F1.200000000000001
aF3.1000000000000023
aF0.0
abag1
(g23
g3
Ntp80
Rp81
(lp82
I0
aI0
aI0
aI1
ababsg27
F0.0
sg28
(lp83
g1
(cdestination
Observation
p84
g3
Ntp85
Rp86
(dp87
S'idleness'
p88
g1
(cdestination
Idleness
p89
g3
Ntp90
Rp91
(dp92
S'_Idleness__true_idl'
p93
F49.801
sS'_Idleness__estim_idl'
p94
F51.89
sS'_Idleness__remaining_idl'
p95
F47.001
sbsg27
F13.492
sbasg30
I01
sg31
g71
sg35
I0
sbag1
(g2
g3
Ntp96
Rp97
(dp98
g7
g10
sg12
S'WayPoint5'
p99
sg14
g1
(g15
g3
Ntp100
Rp101
(lp102
g1
(g19
g3
Ntp103
Rp104
(lp105
F5.800000000000001
aF-4.349999999999998
aF0.0
abag1
(g23
g3
Ntp106
Rp107
(lp108
I0
aI0
aI0
aI1
ababsg27
F18.142
sg28
(lp109
sg30
I00
sg31
g1
(g8
g3
Ntp110
Rp111
(lp112
I48
aI800000000
absg35
F69.78
sbag1
(g2
g3
Ntp113
Rp114
(dp115
g7
g1
(g8
g3
Ntp116
Rp117
(lp118
I47
aI800000000
absg12
S'WayPoint6'
p119
sg14
g1
(g15
g3
Ntp120
Rp121
(lp122
g1
(g19
g3
Ntp123
Rp124
(lp125
F-6.15
aF3.150000000000002
aF0.0
abag1
(g23
g3
Ntp126
Rp127
(lp128
I0
aI0
aI0
aI1
ababsg27
F0.0
sg28
(lp129
g1
(g84
g3
Ntp130
Rp131
(dp132
g88
g1
(g89
g3
Ntp133
Rp134
(dp135
g93
F47.8
sg94
F19.9
sg95
F45.0
sbsg27
F5.173
sbasg30
I01
sg31
g117
sg35
I0
sbag1
(g2
g3
Ntp136
Rp137
(dp138
g7
g10
sg12
S'WayPoint7'
p139
sg14
g1
(g15
g3
Ntp140
Rp141
(lp142
g1
(g19
g3
Ntp143
Rp144
(lp145
F-6.3
aF-1.8999999999999986
aF0.0
abag1
(g23
g3
Ntp146
Rp147
(lp148
I0
aI0
aI0
aI1
ababsg27
F16.516
sg28
(lp149
sg30
I00
sg31
g1
(g8
g3
Ntp150
Rp151
(lp152
I2
aI800000000
absg35
F63.52
sba.