(lp0
ccopy_reg
_reconstructor
p1
(cdestination
Destination
p2
c__builtin__
object
p3
Ntp4
Rp5
(dp6
S'_Destination__latest_usage'
p7
g1
(crospy.rostime
Time
p8
g3
Ntp9
Rp10
(lp11
I56
aI800000000
absS'name'
p12
S'WayPoint1'
p13
sS'pose'
p14
g1
(cgeometry_msgs.msg._Pose
Pose
p15
g3
Ntp16
Rp17
(lp18
g1
(cgeometry_msgs.msg._Point
Point
p19
g3
Ntp20
Rp21
(lp22
F-2.75
aF1.0500000000000025
aF0.0
abag1
(cgeometry_msgs.msg._Quaternion
Quaternion
p23
g3
Ntp24
Rp25
(lp26
I0
aI0
aI0
aI1
ababsS'path_len'
p27
F0.0
sS'_Destination__stats'
p28
(lp29
g1
(cdestination
Observation
p30
g3
Ntp31
Rp32
(dp33
S'idleness'
p34
g1
(cdestination
Idleness
p35
g3
Ntp36
Rp37
(dp38
S'_Idleness__true_idl'
p39
F18.601
sS'_Idleness__estim_idl'
p40
F16.4
sS'_Idleness__remaining_idl'
p41
F16.0
sbsg27
F4.264
sbag1
(g30
g3
Ntp42
Rp43
(dp44
g34
g1
(g35
g3
Ntp45
Rp46
(dp47
g39
F38.199
sg40
F31.48
sg41
F33.999
sbsg27
F8.184
sbasS'_Destination__available'
p48
I01
sS'_Destination__remaining_idl'
p49
g10
sS'estim_idl'
p50
I0
sbag1
(g2
g3
Ntp51
Rp52
(dp53
g7
g1
(g8
g3
Ntp54
Rp55
(lp56
I21
aI804000000
absg12
S'WayPoint2'
p57
sg14
g1
(g15
g3
Ntp58
Rp59
(lp60
g1
(g19
g3
Ntp61
Rp62
(lp63
F5.15
aF0.9000000000000021
aF0.0
abag1
(g23
g3
Ntp64
Rp65
(lp66
I0
aI0
aI0
aI1
ababsg27
F8.639
sg28
(lp67
g1
(g30
g3
Ntp68
Rp69
(dp70
g34
g1
(g35
g3
Ntp71
Rp72
(dp73
g39
F21.804
sg40
F23.31
sg41
F19.004
sbsg27
F6.062
sbasg48
I00
sg49
g1
(g8
g3
Ntp74
Rp75
(lp76
I57
aI800000000
absg50
F33.23
sbag1
(g2
g3
Ntp77
Rp78
(dp79
g7
g1
(g8
g3
Ntp80
Rp81
(lp82
I0
aI0
absg12
S'WayPoint3'
p83
sg14
g1
(g15
g3
Ntp84
Rp85
(lp86
g1
(g19
g3
Ntp87
Rp88
(lp89
F4.850000000000001
aF3.900000000000002
aF0.0
abag1
(g23
g3
Ntp90
Rp91
(lp92
I0
aI0
aI0
aI1
ababsg27
F18.575
sg28
(lp93
sg48
I00
sg49
g1
(g8
g3
Ntp94
Rp95
(lp96
I2
aI800000000
absg50
F71.44
sbag1
(g2
g3
Ntp97
Rp98
(dp99
g7
g81
sg12
S'WayPoint4'
p100
sg14
g1
(g15
g3
Ntp101
Rp102
(lp103
g1
(g19
g3
Ntp104
Rp105
(lp106
F1.200000000000001
aF3.1000000000000023
aF0.0
abag1
(g23
g3
Ntp107
Rp108
(lp109
I0
aI0
aI0
aI1
ababsg27
F12.546
sg28
(lp110
sg48
I00
sg49
g1
(g8
g3
Ntp111
Rp112
(lp113
I19
aI0
absg50
F48.25
sbag1
(g2
g3
Ntp114
Rp115
(dp116
g7
g81
sg12
S'WayPoint5'
p117
sg14
g1
(g15
g3
Ntp118
Rp119
(lp120
g1
(g19
g3
Ntp121
Rp122
(lp123
F5.800000000000001
aF-4.349999999999998
aF0.0
abag1
(g23
g3
Ntp124
Rp125
(lp126
I0
aI0
aI0
aI1
ababsg27
F13.986
sg28
(lp127
sg48
I00
sg49
g1
(g8
g3
Ntp128
Rp129
(lp130
I2
aI601000000
absg50
F53.79
sbag1
(g2
g3
Ntp131
Rp132
(dp133
g7
g81
sg12
S'WayPoint6'
p134
sg14
g1
(g15
g3
Ntp135
Rp136
(lp137
g1
(g19
g3
Ntp138
Rp139
(lp140
F-6.15
aF3.150000000000002
aF0.0
abag1
(g23
g3
Ntp141
Rp142
(lp143
I0
aI0
aI0
aI1
ababsg27
F0.0
sg28
(lp144
sg48
I01
sg49
g81
sg50
I0
sbag1
(g2
g3
Ntp145
Rp146
(dp147
g7
g81
sg12
S'WayPoint7'
p148
sg14
g1
(g15
g3
Ntp149
Rp150
(lp151
g1
(g19
g3
Ntp152
Rp153
(lp154
F-6.3
aF-1.8999999999999986
aF0.0
abag1
(g23
g3
Ntp155
Rp156
(lp157
I0
aI0
aI0
aI1
ababsg27
F16.548
sg28
(lp158
sg48
I00
sg49
g95
sg50
F63.64
sba.