(lp0
ccopy_reg
_reconstructor
p1
(cdestination
Destination
p2
c__builtin__
object
p3
Ntp4
Rp5
(dp6
S'_Destination__latest_usage'
p7
g1
(crospy.rostime
Time
p8
g3
Ntp9
Rp10
(lp11
I0
aI0
absS'name'
p12
S'WayPoint1'
p13
sS'pose'
p14
g1
(cgeometry_msgs.msg._Pose
Pose
p15
g3
Ntp16
Rp17
(lp18
g1
(cgeometry_msgs.msg._Point
Point
p19
g3
Ntp20
Rp21
(lp22
F-2.75
aF1.0500000000000025
aF0.0
abag1
(cgeometry_msgs.msg._Quaternion
Quaternion
p23
g3
Ntp24
Rp25
(lp26
I0
aI0
aI0
aI1
ababsS'path_len'
p27
F8.468
sS'_Destination__stats'
p28
(lp29
sS'_Destination__available'
p30
I00
sS'_Destination__remaining_idl'
p31
g1
(g8
g3
Ntp32
Rp33
(lp34
I2
aI801000000
absS'estim_idl'
p35
F32.57
sbag1
(g2
g3
Ntp36
Rp37
(dp38
g7
g1
(g8
g3
Ntp39
Rp40
(lp41
I21
aI801000000
absg12
S'WayPoint2'
p42
sg14
g1
(g15
g3
Ntp43
Rp44
(lp45
g1
(g19
g3
Ntp46
Rp47
(lp48
F5.15
aF0.9000000000000021
aF0.0
abag1
(g23
g3
Ntp49
Rp50
(lp51
I0
aI0
aI0
aI1
ababsg27
F16.735
sg28
(lp52
g1
(cdestination
Observation
p53
g3
Ntp54
Rp55
(dp56
S'idleness'
p57
g1
(cdestination
Idleness
p58
g3
Ntp59
Rp60
(dp61
S'_Idleness__true_idl'
p62
F21.801
sS'_Idleness__estim_idl'
p63
F23.29
sS'_Idleness__remaining_idl'
p64
F19.0
sbsg27
F6.056
sbasg30
I00
sg31
g1
(g8
g3
Ntp65
Rp66
(lp67
I45
aI0
absg35
F64.36
sbag1
(g2
g3
Ntp68
Rp69
(dp70
g7
g1
(g8
g3
Ntp71
Rp72
(lp73
I33
aI801000000
absg12
S'WayPoint3'
p74
sg14
g1
(g15
g3
Ntp75
Rp76
(lp77
g1
(g19
g3
Ntp78
Rp79
(lp80
F4.850000000000001
aF3.900000000000002
aF0.0
abag1
(g23
g3
Ntp81
Rp82
(lp83
I0
aI0
aI0
aI1
ababsg27
F4.862
sg28
(lp84
g1
(g53
g3
Ntp85
Rp86
(dp87
g57
g1
(g58
g3
Ntp88
Rp89
(dp90
g62
F33.801
sg63
F11.98
sg64
F11.001
sbsg27
F3.116
sbasg30
I00
sg31
g1
(g8
g3
Ntp91
Rp92
(lp93
I53
aI800000000
absg35
F18.7
sbag1
(g2
g3
Ntp94
Rp95
(dp96
g7
g1
(g8
g3
Ntp97
Rp98
(lp99
I52
aI800000000
absg12
S'WayPoint4'
p100
sg14
g1
(g15
g3
Ntp101
Rp102
(lp103
g1
(g19
g3
Ntp104
Rp105
(lp106
F1.200000000000001
aF3.1000000000000023
aF0.0
abag1
(g23
g3
Ntp107
Rp108
(lp109
I0
aI0
aI0
aI1
ababsg27
F16.698
sg28
(lp110
g1
(g53
g3
Ntp111
Rp112
(dp113
g57
g1
(g58
g3
Ntp114
Rp115
(dp116
g62
F52.8
sg63
F18.65
sg64
F17.999
sbsg27
F4.848
sbasg30
I00
sg31
g1
(g8
g3
Ntp117
Rp118
(lp119
I54
aI0
absg35
F64.22
sbag1
(g2
g3
Ntp120
Rp121
(dp122
g7
g10
sg12
S'WayPoint5'
p123
sg14
g1
(g15
g3
Ntp124
Rp125
(lp126
g1
(g19
g3
Ntp127
Rp128
(lp129
F5.800000000000001
aF-4.349999999999998
aF0.0
abag1
(g23
g3
Ntp130
Rp131
(lp132
I0
aI0
aI0
aI1
ababsg27
F18.142
sg28
(lp133
sg30
I00
sg31
g33
sg35
F69.78
sbag1
(g2
g3
Ntp134
Rp135
(dp136
g7
g1
(g8
g3
Ntp137
Rp138
(lp139
I53
aI600000000
absg12
S'WayPoint6'
p140
sg14
g1
(g15
g3
Ntp141
Rp142
(lp143
g1
(g19
g3
Ntp144
Rp145
(lp146
F-6.15
aF3.150000000000002
aF0.0
abag1
(g23
g3
Ntp147
Rp148
(lp149
I0
aI0
aI0
aI1
ababsg27
F0.0
sg28
(lp150
g1
(g53
g3
Ntp151
Rp152
(dp153
g57
g1
(g58
g3
Ntp154
Rp155
(dp156
g62
F53.6
sg63
F47.46
sg64
F51.0
sbsg27
F12.34
sbasg30
I01
sg31
g138
sg35
I0
sbag1
(g2
g3
Ntp157
Rp158
(dp159
g7
g1
(g8
g3
Ntp160
Rp161
(lp162
I44
aI601000000
absg12
S'WayPoint7'
p163
sg14
g1
(g15
g3
Ntp164
Rp165
(lp166
g1
(g19
g3
Ntp167
Rp168
(lp169
F-6.3
aF-1.8999999999999986
aF0.0
abag1
(g23
g3
Ntp170
Rp171
(lp172
I0
aI0
aI0
aI1
ababsg27
F0.0
sg28
(lp173
g1
(g53
g3
Ntp174
Rp175
(dp176
g57
g1
(g58
g3
Ntp177
Rp178
(dp179
g62
F44.601
sg63
F32.43
sg64
F42.001
sbsg27
F8.431
sbasg30
I01
sg31
g161
sg35
I0
sba.