(lp0
ccopy_reg
_reconstructor
p1
(cdestination
Destination
p2
c__builtin__
object
p3
Ntp4
Rp5
(dp6
S'_Destination__latest_usage'
p7
g1
(crospy.rostime
Time
p8
g3
Ntp9
Rp10
(lp11
I0
aI0
absS'name'
p12
S'WayPoint1'
p13
sS'pose'
p14
g1
(cgeometry_msgs.msg._Pose
Pose
p15
g3
Ntp16
Rp17
(lp18
g1
(cgeometry_msgs.msg._Point
Point
p19
g3
Ntp20
Rp21
(lp22
F-1.549999999999999
aF-0.8999999999999986
aF0.0
abag1
(cgeometry_msgs.msg._Quaternion
Quaternion
p23
g3
Ntp24
Rp25
(lp26
I0
aI0
aI0
aI1
ababsS'path_len'
p27
F5.418
sS'_Destination__stats'
p28
(lp29
sS'_Destination__available'
p30
I00
sS'_Destination__remaining_idl'
p31
g1
(g8
g3
Ntp32
Rp33
(lp34
I4
aI200000000
absS'estim_idl'
p35
F20.84
sbag1
(g2
g3
Ntp36
Rp37
(dp38
g7
g10
sg12
S'WayPoint10'
p39
sg14
g1
(g15
g3
Ntp40
Rp41
(lp42
g1
(g19
g3
Ntp43
Rp44
(lp45
F-2.75
aF4.0500000000000025
aF0.0
abag1
(g23
g3
Ntp46
Rp47
(lp48
I0
aI0
aI0
aI1
ababsg27
F8.747
sg28
(lp49
sg30
I00
sg31
g1
(g8
g3
Ntp50
Rp51
(lp52
I4
aI0
absg35
F33.64
sbag1
(g2
g3
Ntp53
Rp54
(dp55
g7
g10
sg12
S'WayPoint2'
p56
sg14
g1
(g15
g3
Ntp57
Rp58
(lp59
g1
(g19
g3
Ntp60
Rp61
(lp62
F-5.25
aF-0.04999999999999716
aF0.0
abag1
(g23
g3
Ntp63
Rp64
(lp65
I0
aI0
aI0
aI1
ababsg27
F0.0
sg28
(lp66
sg30
I01
sg31
g10
sg35
I0
sbag1
(g2
g3
Ntp67
Rp68
(dp69
g7
g10
sg12
S'WayPoint3'
p70
sg14
g1
(g15
g3
Ntp71
Rp72
(lp73
g1
(g19
g3
Ntp74
Rp75
(lp76
F-2.6499999999999995
aF-3.8999999999999986
aF0.0
abag1
(g23
g3
Ntp77
Rp78
(lp79
I0
aI0
aI0
aI1
ababsg27
F7.203
sg28
(lp80
sg30
I00
sg31
g1
(g8
g3
Ntp81
Rp82
(lp83
I30
aI203000000
absg35
F27.7
sbag1
(g2
g3
Ntp84
Rp85
(dp86
g7
g10
sg12
S'WayPoint4'
p87
sg14
g1
(g15
g3
Ntp88
Rp89
(lp90
g1
(g19
g3
Ntp91
Rp92
(lp93
F3.700000000000001
aF-1.3499999999999979
aF0.0
abag1
(g23
g3
Ntp94
Rp95
(lp96
I0
aI0
aI0
aI1
ababsg27
F8.441
sg28
(lp97
sg30
I00
sg31
g1
(g8
g3
Ntp98
Rp99
(lp100
I3
aI400000000
absg35
F32.47
sbag1
(g2
g3
Ntp101
Rp102
(dp103
g7
g10
sg12
S'WayPoint5'
p104
sg14
g1
(g15
g3
Ntp105
Rp106
(lp107
g1
(g19
g3
Ntp108
Rp109
(lp110
F7.650000000000002
aF-1.4999999999999982
aF0.0
abag1
(g23
g3
Ntp111
Rp112
(lp113
I0
aI0
aI0
aI1
ababsg27
F14.896
sg28
(lp114
sg30
I00
sg31
g33
sg35
F57.29
sbag1
(g2
g3
Ntp115
Rp116
(dp117
g7
g10
sg12
S'WayPoint6'
p118
sg14
g1
(g15
g3
Ntp119
Rp120
(lp121
g1
(g19
g3
Ntp122
Rp123
(lp124
F4.350000000000001
aF1.6000000000000023
aF0.0
abag1
(g23
g3
Ntp125
Rp126
(lp127
I0
aI0
aI0
aI1
ababsg27
F10.063
sg28
(lp128
sg30
I00
sg31
g99
sg35
F38.7
sbag1
(g2
g3
Ntp129
Rp130
(dp131
g7
g1
(g8
g3
Ntp132
Rp133
(lp134
I29
aI200000000
absg12
S'WayPoint7'
p135
sg14
g1
(g15
g3
Ntp136
Rp137
(lp138
g1
(g19
g3
Ntp139
Rp140
(lp141
F1.700000000000001
aF1.6500000000000021
aF0.0
abag1
(g23
g3
Ntp142
Rp143
(lp144
I0
aI0
aI0
aI1
ababsg27
F0.0
sg28
(lp145
g1
(cdestination
Observation
p146
g3
Ntp147
Rp148
(dp149
S'idleness'
p150
g1
(cdestination
Idleness
p151
g3
Ntp152
Rp153
(dp154
S'_Idleness__true_idl'
p155
F29.2
sS'_Idleness__estim_idl'
p156
F20.54
sS'_Idleness__remaining_idl'
p157
F25.0
sbsg27
F5.341
sbasg30
I01
sg31
g133
sg35
I0
sbag1
(g2
g3
Ntp158
Rp159
(dp160
g7
g10
sg12
S'WayPoint8'
p161
sg14
g1
(g15
g3
Ntp162
Rp163
(lp164
g1
(g19
g3
Ntp165
Rp166
(lp167
F0.9000000000000004
aF4.350000000000002
aF0.0
abag1
(g23
g3
Ntp168
Rp169
(lp170
I0
aI0
aI0
aI1
ababsg27
F0.0
sg28
(lp171
sg30
I01
sg31
g10
sg35
I0
sbag1
(g2
g3
Ntp172
Rp173
(dp174
g7
g10
sg12
S'WayPoint9'
p175
sg14
g1
(g15
g3
Ntp176
Rp177
(lp178
g1
(g19
g3
Ntp179
Rp180
(lp181
F5.0
aF4.600000000000002
aF0.0
abag1
(g23
g3
Ntp182
Rp183
(lp184
I0
aI0
aI0
aI1
ababsg27
F4.738
sg28
(lp185
sg30
I00
sg31
g51
sg35
F18.22
sba.