(lp0
ccopy_reg
_reconstructor
p1
(cdestination
Destination
p2
c__builtin__
object
p3
Ntp4
Rp5
(dp6
S'_Destination__latest_usage'
p7
g1
(crospy.rostime
Time
p8
g3
Ntp9
Rp10
(lp11
I22
aI0
absS'name'
p12
S'WayPoint1'
p13
sS'pose'
p14
g1
(cgeometry_msgs.msg._Pose
Pose
p15
g3
Ntp16
Rp17
(lp18
g1
(cgeometry_msgs.msg._Point
Point
p19
g3
Ntp20
Rp21
(lp22
F-1.549999999999999
aF-0.8999999999999986
aF0.0
abag1
(cgeometry_msgs.msg._Quaternion
Quaternion
p23
g3
Ntp24
Rp25
(lp26
I0
aI0
aI0
aI1
ababsS'path_len'
p27
F9.217
sS'_Destination__stats'
p28
(lp29
g1
(cdestination
Observation
p30
g3
Ntp31
Rp32
(dp33
S'idleness'
p34
g1
(cdestination
Idleness
p35
g3
Ntp36
Rp37
(dp38
S'_Idleness__true_idl'
p39
F22.0
sS'_Idleness__estim_idl'
p40
F20.84
sS'_Idleness__remaining_idl'
p41
F17.999
sbsg27
F5.418
sbasS'_Destination__available'
p42
I00
sS'_Destination__remaining_idl'
p43
g1
(g8
g3
Ntp44
Rp45
(lp46
I48
aI2000000
absS'estim_idl'
p47
F35.45
sbag1
(g2
g3
Ntp48
Rp49
(dp50
g7
g1
(g8
g3
Ntp51
Rp52
(lp53
I0
aI0
absg12
S'WayPoint10'
p54
sg14
g1
(g15
g3
Ntp55
Rp56
(lp57
g1
(g19
g3
Ntp58
Rp59
(lp60
F-2.75
aF4.0500000000000025
aF0.0
abag1
(g23
g3
Ntp61
Rp62
(lp63
I0
aI0
aI0
aI1
ababsg27
F10.079
sg28
(lp64
sg42
I00
sg43
g1
(g8
g3
Ntp65
Rp66
(lp67
I3
aI800000000
absg47
F38.76
sbag1
(g2
g3
Ntp68
Rp69
(dp70
g7
g1
(g8
g3
Ntp71
Rp72
(lp73
I23
aI600000000
absg12
S'WayPoint2'
p74
sg14
g1
(g15
g3
Ntp75
Rp76
(lp77
g1
(g19
g3
Ntp78
Rp79
(lp80
F-5.25
aF-0.04999999999999716
aF0.0
abag1
(g23
g3
Ntp81
Rp82
(lp83
I0
aI0
aI0
aI1
ababsg27
F9.83
sg28
(lp84
g1
(g30
g3
Ntp85
Rp86
(dp87
g34
g1
(g35
g3
Ntp88
Rp89
(dp90
g39
F23.6
sg40
F16.0
sg41
F20.998
sbsg27
F4.16
sbasg42
I00
sg43
g1
(g8
g3
Ntp91
Rp92
(lp93
I58
aI0
absg47
F37.81
sbag1
(g2
g3
Ntp94
Rp95
(dp96
g7
g52
sg12
S'WayPoint3'
p97
sg14
g1
(g15
g3
Ntp98
Rp99
(lp100
g1
(g19
g3
Ntp101
Rp102
(lp103
F-2.6499999999999995
aF-3.8999999999999986
aF0.0
abag1
(g23
g3
Ntp104
Rp105
(lp106
I0
aI0
aI0
aI1
ababsg27
F11.686
sg28
(lp107
sg42
I00
sg43
g66
sg47
F44.94
sbag1
(g2
g3
Ntp108
Rp109
(dp110
g7
g1
(g8
g3
Ntp111
Rp112
(lp113
I46
aI0
absg12
S'WayPoint4'
p114
sg14
g1
(g15
g3
Ntp115
Rp116
(lp117
g1
(g19
g3
Ntp118
Rp119
(lp120
F3.700000000000001
aF-1.3499999999999979
aF0.0
abag1
(g23
g3
Ntp121
Rp122
(lp123
I0
aI0
aI0
aI1
ababsg27
F0.0
sg28
(lp124
g1
(g30
g3
Ntp125
Rp126
(dp127
g34
g1
(g35
g3
Ntp128
Rp129
(dp130
g39
F46.0
sg40
F20.67
sg41
F22.994
sbsg27
F5.374
sbasg42
I01
sg43
g112
sg47
I0
sbag1
(g2
g3
Ntp131
Rp132
(dp133
g7
g52
sg12
S'WayPoint5'
p134
sg14
g1
(g15
g3
Ntp135
Rp136
(lp137
g1
(g19
g3
Ntp138
Rp139
(lp140
F7.650000000000002
aF-1.4999999999999982
aF0.0
abag1
(g23
g3
Ntp141
Rp142
(lp143
I0
aI0
aI0
aI1
ababsg27
F13.374
sg28
(lp144
sg42
I00
sg43
g66
sg47
F51.44
sbag1
(g2
g3
Ntp145
Rp146
(dp147
g7
g52
sg12
S'WayPoint6'
p148
sg14
g1
(g15
g3
Ntp149
Rp150
(lp151
g1
(g19
g3
Ntp152
Rp153
(lp154
F4.350000000000001
aF1.6000000000000023
aF0.0
abag1
(g23
g3
Ntp155
Rp156
(lp157
I0
aI0
aI0
aI1
ababsg27
F10.034
sg28
(lp158
sg42
I00
sg43
g1
(g8
g3
Ntp159
Rp160
(lp161
I24
aI1000000
absg47
F38.59
sbag1
(g2
g3
Ntp162
Rp163
(dp164
g7
g1
(g8
g3
Ntp165
Rp166
(lp167
I17
aI0
absg12
S'WayPoint7'
p168
sg14
g1
(g15
g3
Ntp169
Rp170
(lp171
g1
(g19
g3
Ntp172
Rp173
(lp174
F1.700000000000001
aF1.6500000000000021
aF0.0
abag1
(g23
g3
Ntp175
Rp176
(lp177
I0
aI0
aI0
aI1
ababsg27
F5.984
sg28
(lp178
g1
(g30
g3
Ntp179
Rp180
(dp181
g34
g1
(g35
g3
Ntp182
Rp183
(dp184
g39
F17.0
sg40
F11.39
sg41
F12.999
sbsg27
F2.961
sbasg42
I00
sg43
g1
(g8
g3
Ntp185
Rp186
(lp187
I47
aI0
absg47
F23.02
sbag1
(g2
g3
Ntp188
Rp189
(dp190
g7
g1
(g8
g3
Ntp191
Rp192
(lp193
I57
aI2000000
absg12
S'WayPoint8'
p194
sg14
g1
(g15
g3
Ntp195
Rp196
(lp197
g1
(g19
g3
Ntp198
Rp199
(lp200
F0.9000000000000004
aF4.350000000000002
aF0.0
abag1
(g23
g3
Ntp201
Rp202
(lp203
I0
aI0
aI0
aI1
ababsg27
F0.0
sg28
(lp204
g1
(g30
g3
Ntp205
Rp206
(dp207
g34
g1
(g35
g3
Ntp208
Rp209
(dp210
g39
F57.002
sg40
F20.54
sg41
F53.001
sbsg27
F5.34
sbasg42
I01
sg43
g192
sg47
I0
sbag1
(g2
g3
Ntp211
Rp212
(dp213
g7
g186
sg12
S'WayPoint9'
p214
sg14
g1
(g15
g3
Ntp215
Rp216
(lp217
g1
(g19
g3
Ntp218
Rp219
(lp220
F5.0
aF4.600000000000002
aF0.0
abag1
(g23
g3
Ntp221
Rp222
(lp223
I0
aI0
aI0
aI1
ababsg27
F0.0
sg28
(lp224
g1
(g30
g3
Ntp225
Rp226
(dp227
g34
g1
(g35
g3
Ntp228
Rp229
(dp230
g39
F47.0
sg40
F19.51
sg41
F29.0
sbsg27
F5.071
sbasg42
I01
sg43
g186
sg47
I0
sba.