(lp0
ccopy_reg
_reconstructor
p1
(cdestination
Destination
p2
c__builtin__
object
p3
Ntp4
Rp5
(dp6
S'_Destination__latest_usage'
p7
g1
(crospy.rostime
Time
p8
g3
Ntp9
Rp10
(lp11
I58
aI600000000
absS'name'
p12
S'WayPoint1'
p13
sS'pose'
p14
g1
(cgeometry_msgs.msg._Pose
Pose
p15
g3
Ntp16
Rp17
(lp18
g1
(cgeometry_msgs.msg._Point
Point
p19
g3
Ntp20
Rp21
(lp22
F-1.549999999999999
aF-0.8999999999999986
aF0.0
abag1
(cgeometry_msgs.msg._Quaternion
Quaternion
p23
g3
Ntp24
Rp25
(lp26
I0
aI0
aI0
aI1
ababsS'path_len'
p27
F0.0
sS'_Destination__stats'
p28
(lp29
g1
(cdestination
Observation
p30
g3
Ntp31
Rp32
(dp33
S'idleness'
p34
g1
(cdestination
Idleness
p35
g3
Ntp36
Rp37
(dp38
S'_Idleness__true_idl'
p39
F38.602
sS'_Idleness__estim_idl'
p40
F16.65
sS'_Idleness__remaining_idl'
p41
F16.002
sbsg27
F4.33
sbag1
(g30
g3
Ntp42
Rp43
(dp44
g34
g1
(g35
g3
Ntp45
Rp46
(dp47
g39
F19.998
sg40
F12.64
sg41
F13.0
sbsg27
F3.287
sbasS'_Destination__available'
p48
I01
sS'_Destination__remaining_idl'
p49
g10
sS'estim_idl'
p50
I0
sbag1
(g2
g3
Ntp51
Rp52
(dp53
g7
g1
(g8
g3
Ntp54
Rp55
(lp56
I0
aI0
absg12
S'WayPoint10'
p57
sg14
g1
(g15
g3
Ntp58
Rp59
(lp60
g1
(g19
g3
Ntp61
Rp62
(lp63
F-2.75
aF4.0500000000000025
aF0.0
abag1
(g23
g3
Ntp64
Rp65
(lp66
I0
aI0
aI0
aI1
ababsg27
F14.525
sg28
(lp67
sg48
I00
sg49
g1
(g8
g3
Ntp68
Rp69
(lp70
I21
aI800000000
absg50
F55.86
sbag1
(g2
g3
Ntp71
Rp72
(dp73
g7
g55
sg12
S'WayPoint2'
p74
sg14
g1
(g15
g3
Ntp75
Rp76
(lp77
g1
(g19
g3
Ntp78
Rp79
(lp80
F-5.25
aF-0.04999999999999716
aF0.0
abag1
(g23
g3
Ntp81
Rp82
(lp83
I0
aI0
aI0
aI1
ababsg27
F12.345
sg28
(lp84
sg48
I00
sg49
g1
(g8
g3
Ntp85
Rp86
(lp87
I3
aI200000000
absg50
F47.48
sbag1
(g2
g3
Ntp88
Rp89
(dp90
g7
g1
(g8
g3
Ntp91
Rp92
(lp93
I45
aI4000000
absg12
S'WayPoint3'
p94
sg14
g1
(g15
g3
Ntp95
Rp96
(lp97
g1
(g19
g3
Ntp98
Rp99
(lp100
F-2.6499999999999995
aF-3.8999999999999986
aF0.0
abag1
(g23
g3
Ntp101
Rp102
(lp103
I0
aI0
aI0
aI1
ababsg27
F12.011
sg28
(lp104
g1
(g30
g3
Ntp105
Rp106
(dp107
g34
g1
(g35
g3
Ntp108
Rp109
(dp110
g39
F45.004
sg40
F37.43
sg41
F42.803
sbsg27
F9.731
sbasg48
I00
sg49
g1
(g8
g3
Ntp111
Rp112
(lp113
I57
aI802000000
absg50
F46.2
sbag1
(g2
g3
Ntp114
Rp115
(dp116
g7
g55
sg12
S'WayPoint4'
p117
sg14
g1
(g15
g3
Ntp118
Rp119
(lp120
g1
(g19
g3
Ntp121
Rp122
(lp123
F3.700000000000001
aF-1.3499999999999979
aF0.0
abag1
(g23
g3
Ntp124
Rp125
(lp126
I0
aI0
aI0
aI1
ababsg27
F8.434
sg28
(lp127
sg48
I00
sg49
g1
(g8
g3
Ntp128
Rp129
(lp130
I34
aI400000000
absg50
F32.44
sbag1
(g2
g3
Ntp131
Rp132
(dp133
g7
g1
(g8
g3
Ntp134
Rp135
(lp136
I21
aI200000000
absg12
S'WayPoint5'
p137
sg14
g1
(g15
g3
Ntp138
Rp139
(lp140
g1
(g19
g3
Ntp141
Rp142
(lp143
F7.650000000000002
aF-1.4999999999999982
aF0.0
abag1
(g23
g3
Ntp144
Rp145
(lp146
I0
aI0
aI0
aI1
ababsg27
F9.346
sg28
(lp147
g1
(g30
g3
Ntp148
Rp149
(dp150
g34
g1
(g35
g3
Ntp151
Rp152
(dp153
g39
F21.2
sg40
F15.56
sg41
F18.0
sbsg27
F4.047
sbasg48
I00
sg49
g1
(g8
g3
Ntp154
Rp155
(lp156
I39
aI601000000
absg50
F35.95
sbag1
(g2
g3
Ntp157
Rp158
(dp159
g7
g55
sg12
S'WayPoint6'
p160
sg14
g1
(g15
g3
Ntp161
Rp162
(lp163
g1
(g19
g3
Ntp164
Rp165
(lp166
F4.350000000000001
aF1.6000000000000023
aF0.0
abag1
(g23
g3
Ntp167
Rp168
(lp169
I0
aI0
aI0
aI1
ababsg27
F10.063
sg28
(lp170
sg48
I00
sg49
g1
(g8
g3
Ntp171
Rp172
(lp173
I3
aI400000000
absg50
F38.7
sbag1
(g2
g3
Ntp174
Rp175
(dp176
g7
g1
(g8
g3
Ntp177
Rp178
(lp179
I21
aI600000000
absg12
S'WayPoint7'
p180
sg14
g1
(g15
g3
Ntp181
Rp182
(lp183
g1
(g19
g3
Ntp184
Rp185
(lp186
F1.700000000000001
aF1.6500000000000021
aF0.0
abag1
(g23
g3
Ntp187
Rp188
(lp189
I0
aI0
aI0
aI1
ababsg27
F4.382
sg28
(lp190
g1
(g30
g3
Ntp191
Rp192
(dp193
g34
g1
(g35
g3
Ntp194
Rp195
(dp196
g39
F21.6
sg40
F20.54
sg41
F18.0
sbsg27
F5.341
sbasg48
I00
sg49
g1
(g8
g3
Ntp197
Rp198
(lp199
I59
aI600000000
absg50
F16.85
sbag1
(g2
g3
Ntp200
Rp201
(dp202
g7
g1
(g8
g3
Ntp203
Rp204
(lp205
I33
aI400000000
absg12
S'WayPoint8'
p206
sg14
g1
(g15
g3
Ntp207
Rp208
(lp209
g1
(g19
g3
Ntp210
Rp211
(lp212
F0.9000000000000004
aF4.350000000000002
aF0.0
abag1
(g23
g3
Ntp213
Rp214
(lp215
I0
aI0
aI0
aI1
ababsg27
F0.0
sg28
(lp216
g1
(g30
g3
Ntp217
Rp218
(dp219
g34
g1
(g35
g3
Ntp220
Rp221
(dp222
g39
F33.4
sg40
F25.65
sg41
F30.0
sbsg27
F6.669
sbasg48
I01
sg49
g204
sg50
I0
sbag1
(g2
g3
Ntp223
Rp224
(dp225
g7
g1
(g8
g3
Ntp226
Rp227
(lp228
I57
aI400000000
absg12
S'WayPoint9'
p229
sg14
g1
(g15
g3
Ntp230
Rp231
(lp232
g1
(g19
g3
Ntp233
Rp234
(lp235
F5.0
aF4.600000000000002
aF0.0
abag1
(g23
g3
Ntp236
Rp237
(lp238
I0
aI0
aI0
aI1
ababsg27
F0.0
sg28
(lp239
g1
(g30
g3
Ntp240
Rp241
(dp242
g34
g1
(g35
g3
Ntp243
Rp244
(dp245
g39
F57.4
sg40
F28.54
sg41
F54.0
sbsg27
F7.42
sbasg48
I01
sg49
g227
sg50
I0
sba.