(lp0
ccopy_reg
_reconstructor
p1
(cdestination
Destination
p2
c__builtin__
object
p3
Ntp4
Rp5
(dp6
S'_Destination__latest_usage'
p7
g1
(crospy.rostime
Time
p8
g3
Ntp9
Rp10
(lp11
I0
aI0
absS'name'
p12
S'WayPoint1'
p13
sS'pose'
p14
g1
(cgeometry_msgs.msg._Pose
Pose
p15
g3
Ntp16
Rp17
(lp18
g1
(cgeometry_msgs.msg._Point
Point
p19
g3
Ntp20
Rp21
(lp22
F-1.549999999999999
aF-0.8999999999999986
aF0.0
abag1
(cgeometry_msgs.msg._Quaternion
Quaternion
p23
g3
Ntp24
Rp25
(lp26
I0
aI0
aI0
aI1
ababsS'path_len'
p27
F4.288
sS'_Destination__stats'
p28
(lp29
sS'_Destination__available'
p30
I00
sS'_Destination__remaining_idl'
p31
g1
(g8
g3
Ntp32
Rp33
(lp34
I28
aI204000000
absS'estim_idl'
p35
F16.49
sbag1
(g2
g3
Ntp36
Rp37
(dp38
g7
g10
sg12
S'WayPoint10'
p39
sg14
g1
(g15
g3
Ntp40
Rp41
(lp42
g1
(g19
g3
Ntp43
Rp44
(lp45
F-2.75
aF4.0500000000000025
aF0.0
abag1
(g23
g3
Ntp46
Rp47
(lp48
I0
aI0
aI0
aI1
ababsg27
F10.589
sg28
(lp49
sg30
I00
sg31
g1
(g8
g3
Ntp50
Rp51
(lp52
I3
aI400000000
absg35
F40.73
sbag1
(g2
g3
Ntp53
Rp54
(dp55
g7
g10
sg12
S'WayPoint2'
p56
sg14
g1
(g15
g3
Ntp57
Rp58
(lp59
g1
(g19
g3
Ntp60
Rp61
(lp62
F-5.25
aF-0.04999999999999716
aF0.0
abag1
(g23
g3
Ntp63
Rp64
(lp65
I0
aI0
aI0
aI1
ababsg27
F9.406
sg28
(lp66
sg30
I00
sg31
g1
(g8
g3
Ntp67
Rp68
(lp69
I26
aI400000000
absg35
F36.18
sbag1
(g2
g3
Ntp70
Rp71
(dp72
g7
g10
sg12
S'WayPoint3'
p73
sg14
g1
(g15
g3
Ntp74
Rp75
(lp76
g1
(g19
g3
Ntp77
Rp78
(lp79
F-2.6499999999999995
aF-3.8999999999999986
aF0.0
abag1
(g23
g3
Ntp80
Rp81
(lp82
I0
aI0
aI0
aI1
ababsg27
F12.085
sg28
(lp83
sg30
I00
sg31
g1
(g8
g3
Ntp84
Rp85
(lp86
I3
aI800000000
absg35
F46.48
sbag1
(g2
g3
Ntp87
Rp88
(dp89
g7
g1
(g8
g3
Ntp90
Rp91
(lp92
I26
aI1000000
absg12
S'WayPoint4'
p93
sg14
g1
(g15
g3
Ntp94
Rp95
(lp96
g1
(g19
g3
Ntp97
Rp98
(lp99
F3.700000000000001
aF-1.3499999999999979
aF0.0
abag1
(g23
g3
Ntp100
Rp101
(lp102
I0
aI0
aI0
aI1
ababsg27
F5.963
sg28
(lp103
g1
(cdestination
Observation
p104
g3
Ntp105
Rp106
(dp107
S'idleness'
p108
g1
(cdestination
Idleness
p109
g3
Ntp110
Rp111
(dp112
S'_Idleness__true_idl'
p113
F26.001
sS'_Idleness__estim_idl'
p114
F20.67
sS'_Idleness__remaining_idl'
p115
F21.999
sbsg27
F5.374
sbasg30
I00
sg31
g1
(g8
g3
Ntp116
Rp117
(lp118
I54
aI1000000
absg35
F22.93
sbag1
(g2
g3
Ntp119
Rp120
(dp121
g7
g1
(g8
g3
Ntp122
Rp123
(lp124
I56
aI208000000
absg12
S'WayPoint5'
p125
sg14
g1
(g15
g3
Ntp126
Rp127
(lp128
g1
(g19
g3
Ntp129
Rp130
(lp131
F7.650000000000002
aF-1.4999999999999982
aF0.0
abag1
(g23
g3
Ntp132
Rp133
(lp134
I0
aI0
aI0
aI1
ababsg27
F0.0
sg28
(lp135
g1
(g104
g3
Ntp136
Rp137
(dp138
g108
g1
(g109
g3
Ntp139
Rp140
(dp141
g113
F56.208
sg114
F51.44
sg115
F52.008
sbsg27
F13.374
sbasg30
I01
sg31
g123
sg35
I0
sbag1
(g2
g3
Ntp142
Rp143
(dp144
g7
g1
(g8
g3
Ntp145
Rp146
(lp147
I27
aI200000000
absg12
S'WayPoint6'
p148
sg14
g1
(g15
g3
Ntp149
Rp150
(lp151
g1
(g19
g3
Ntp152
Rp153
(lp154
F4.350000000000001
aF1.6000000000000023
aF0.0
abag1
(g23
g3
Ntp155
Rp156
(lp157
I0
aI0
aI0
aI1
ababsg27
F12.543
sg28
(lp158
g1
(g104
g3
Ntp159
Rp160
(dp161
g108
g1
(g109
g3
Ntp162
Rp163
(dp164
g113
F27.2
sg114
F20.48
sg115
F23.0
sbsg27
F5.326
sbasg30
I00
sg31
g1
(g8
g3
Ntp165
Rp166
(lp167
I57
aI200000000
absg35
F48.24
sbag1
(g2
g3
Ntp168
Rp169
(dp170
g7
g1
(g8
g3
Ntp171
Rp172
(lp173
I53
aI0
absg12
S'WayPoint7'
p174
sg14
g1
(g15
g3
Ntp175
Rp176
(lp177
g1
(g19
g3
Ntp178
Rp179
(lp180
F1.700000000000001
aF1.6500000000000021
aF0.0
abag1
(g23
g3
Ntp181
Rp182
(lp183
I0
aI0
aI0
aI1
ababsg27
F0.0
sg28
(lp184
g1
(g104
g3
Ntp185
Rp186
(dp187
g108
g1
(g109
g3
Ntp188
Rp189
(dp190
g113
F53.0
sg114
F11.36
sg115
F30.0
sbsg27
F2.953
sbasg30
I01
sg31
g172
sg35
I0
sbag1
(g2
g3
Ntp191
Rp192
(dp193
g7
g1
(g8
g3
Ntp194
Rp195
(lp196
I22
aI0
absg12
S'WayPoint8'
p197
sg14
g1
(g15
g3
Ntp198
Rp199
(lp200
g1
(g19
g3
Ntp201
Rp202
(lp203
F0.9000000000000004
aF4.350000000000002
aF0.0
abag1
(g23
g3
Ntp204
Rp205
(lp206
I0
aI0
aI0
aI1
ababsg27
F7.512
sg28
(lp207
g1
(g104
g3
Ntp208
Rp209
(dp210
g108
g1
(g109
g3
Ntp211
Rp212
(dp213
g113
F22.0
sg114
F20.54
sg115
F17.998
sbsg27
F5.34
sbasg30
I00
sg31
g117
sg35
F28.89
sbag1
(g2
g3
Ntp214
Rp215
(dp216
g7
g172
sg12
S'WayPoint9'
p217
sg14
g1
(g15
g3
Ntp218
Rp219
(lp220
g1
(g19
g3
Ntp221
Rp222
(lp223
F5.0
aF4.600000000000002
aF0.0
abag1
(g23
g3
Ntp224
Rp225
(lp226
I0
aI0
aI0
aI1
ababsg27
F0.0
sg28
(lp227
g1
(g104
g3
Ntp228
Rp229
(dp230
g108
g1
(g109
g3
Ntp231
Rp232
(dp233
g113
F53.0
sg114
F38.52
sg115
F48.998
sbsg27
F10.015
sbasg30
I01
sg31
g172
sg35
I0
sba.