(lp0
ccopy_reg
_reconstructor
p1
(cdestination
Destination
p2
c__builtin__
object
p3
Ntp4
Rp5
(dp6
S'_Destination__latest_usage'
p7
g1
(crospy.rostime
Time
p8
g3
Ntp9
Rp10
(lp11
I22
aI200000000
absS'name'
p12
S'WayPoint1'
p13
sS'pose'
p14
g1
(cgeometry_msgs.msg._Pose
Pose
p15
g3
Ntp16
Rp17
(lp18
g1
(cgeometry_msgs.msg._Point
Point
p19
g3
Ntp20
Rp21
(lp22
F-1.549999999999999
aF-0.8999999999999986
aF0.0
abag1
(cgeometry_msgs.msg._Quaternion
Quaternion
p23
g3
Ntp24
Rp25
(lp26
I0
aI0
aI0
aI1
ababsS'path_len'
p27
F9.081
sS'_Destination__stats'
p28
(lp29
g1
(cdestination
Observation
p30
g3
Ntp31
Rp32
(dp33
S'idleness'
p34
g1
(cdestination
Idleness
p35
g3
Ntp36
Rp37
(dp38
S'_Idleness__true_idl'
p39
F22.2
sS'_Idleness__estim_idl'
p40
F20.84
sS'_Idleness__remaining_idl'
p41
F18.0
sbsg27
F5.418
sbasS'_Destination__available'
p42
I00
sS'_Destination__remaining_idl'
p43
g1
(g8
g3
Ntp44
Rp45
(lp46
I44
aI400000000
absS'estim_idl'
p47
F34.93
sbag1
(g2
g3
Ntp48
Rp49
(dp50
g7
g1
(g8
g3
Ntp51
Rp52
(lp53
I0
aI0
absg12
S'WayPoint10'
p54
sg14
g1
(g15
g3
Ntp55
Rp56
(lp57
g1
(g19
g3
Ntp58
Rp59
(lp60
F-2.75
aF4.0500000000000025
aF0.0
abag1
(g23
g3
Ntp61
Rp62
(lp63
I0
aI0
aI0
aI1
ababsg27
F10.059
sg28
(lp64
sg42
I00
sg43
g1
(g8
g3
Ntp65
Rp66
(lp67
I4
aI0
absg47
F38.69
sbag1
(g2
g3
Ntp68
Rp69
(dp70
g7
g1
(g8
g3
Ntp71
Rp72
(lp73
I44
aI800000000
absg12
S'WayPoint2'
p74
sg14
g1
(g15
g3
Ntp75
Rp76
(lp77
g1
(g19
g3
Ntp78
Rp79
(lp80
F-5.25
aF-0.04999999999999716
aF0.0
abag1
(g23
g3
Ntp81
Rp82
(lp83
I0
aI0
aI0
aI1
ababsg27
F9.399
sg28
(lp84
g1
(g30
g3
Ntp85
Rp86
(dp87
g34
g1
(g35
g3
Ntp88
Rp89
(dp90
g39
F44.8
sg40
F16.0
sg41
F42.0
sbsg27
F4.16
sbasg42
I00
sg43
g1
(g8
g3
Ntp91
Rp92
(lp93
I46
aI200000000
absg47
F36.15
sbag1
(g2
g3
Ntp94
Rp95
(dp96
g7
g52
sg12
S'WayPoint3'
p97
sg14
g1
(g15
g3
Ntp98
Rp99
(lp100
g1
(g19
g3
Ntp101
Rp102
(lp103
F-2.6499999999999995
aF-3.8999999999999986
aF0.0
abag1
(g23
g3
Ntp104
Rp105
(lp106
I0
aI0
aI0
aI1
ababsg27
F6.104
sg28
(lp107
sg42
I00
sg43
g1
(g8
g3
Ntp108
Rp109
(lp110
I3
aI601000000
absg47
F23.48
sbag1
(g2
g3
Ntp111
Rp112
(dp113
g7
g1
(g8
g3
Ntp114
Rp115
(lp116
I45
aI200000000
absg12
S'WayPoint4'
p117
sg14
g1
(g15
g3
Ntp118
Rp119
(lp120
g1
(g19
g3
Ntp121
Rp122
(lp123
F3.700000000000001
aF-1.3499999999999979
aF0.0
abag1
(g23
g3
Ntp124
Rp125
(lp126
I0
aI0
aI0
aI1
ababsg27
F5.963
sg28
(lp127
g1
(g30
g3
Ntp128
Rp129
(dp130
g34
g1
(g35
g3
Ntp131
Rp132
(dp133
g39
F45.2
sg40
F20.67
sg41
F22.0
sbsg27
F5.374
sbasg42
I00
sg43
g1
(g8
g3
Ntp134
Rp135
(lp136
I57
aI1000000
absg47
F22.93
sbag1
(g2
g3
Ntp137
Rp138
(dp139
g7
g52
sg12
S'WayPoint5'
p140
sg14
g1
(g15
g3
Ntp141
Rp142
(lp143
g1
(g19
g3
Ntp144
Rp145
(lp146
F7.650000000000002
aF-1.4999999999999982
aF0.0
abag1
(g23
g3
Ntp147
Rp148
(lp149
I0
aI0
aI0
aI1
ababsg27
F12.516
sg28
(lp150
sg42
I00
sg43
g1
(g8
g3
Ntp151
Rp152
(lp153
I36
aI0
absg47
F48.14
sbag1
(g2
g3
Ntp154
Rp155
(dp156
g7
g1
(g8
g3
Ntp157
Rp158
(lp159
I35
aI0
absg12
S'WayPoint6'
p160
sg14
g1
(g15
g3
Ntp161
Rp162
(lp163
g1
(g19
g3
Ntp164
Rp165
(lp166
F4.350000000000001
aF1.6000000000000023
aF0.0
abag1
(g23
g3
Ntp167
Rp168
(lp169
I0
aI0
aI0
aI1
ababsg27
F0.0
sg28
(lp170
g1
(g30
g3
Ntp171
Rp172
(dp173
g34
g1
(g35
g3
Ntp174
Rp175
(dp176
g39
F35.0
sg40
F30.54
sg41
F31.0
sbsg27
F7.941
sbasg42
I01
sg43
g158
sg47
I0
sbag1
(g2
g3
Ntp177
Rp178
(dp179
g7
g1
(g8
g3
Ntp180
Rp181
(lp182
I56
aI0
absg12
S'WayPoint7'
p183
sg14
g1
(g15
g3
Ntp184
Rp185
(lp186
g1
(g19
g3
Ntp187
Rp188
(lp189
F1.700000000000001
aF1.6500000000000021
aF0.0
abag1
(g23
g3
Ntp190
Rp191
(lp192
I0
aI0
aI0
aI1
ababsg27
F0.0
sg28
(lp193
g1
(g30
g3
Ntp194
Rp195
(dp196
g34
g1
(g35
g3
Ntp197
Rp198
(dp199
g39
F56.0
sg40
F11.36
sg41
F31.0
sbsg27
F2.954
sbasg42
I01
sg43
g181
sg47
I0
sbag1
(g2
g3
Ntp200
Rp201
(dp202
g7
g1
(g8
g3
Ntp203
Rp204
(lp205
I24
aI2000000
absg12
S'WayPoint8'
p206
sg14
g1
(g15
g3
Ntp207
Rp208
(lp209
g1
(g19
g3
Ntp210
Rp211
(lp212
F0.9000000000000004
aF4.350000000000002
aF0.0
abag1
(g23
g3
Ntp213
Rp214
(lp215
I0
aI0
aI0
aI1
ababsg27
F10.334
sg28
(lp216
g1
(g30
g3
Ntp217
Rp218
(dp219
g34
g1
(g35
g3
Ntp220
Rp221
(dp222
g39
F24.002
sg40
F20.53
sg41
F20.002
sbsg27
F5.339
sbasg42
I00
sg43
g115
sg47
F39.75
sbag1
(g2
g3
Ntp223
Rp224
(dp225
g7
g1
(g8
g3
Ntp226
Rp227
(lp228
I43
aI800000000
absg12
S'WayPoint9'
p229
sg14
g1
(g15
g3
Ntp230
Rp231
(lp232
g1
(g19
g3
Ntp233
Rp234
(lp235
F5.0
aF4.600000000000002
aF0.0
abag1
(g23
g3
Ntp236
Rp237
(lp238
I0
aI0
aI0
aI1
ababsg27
F0.0
sg28
(lp239
g1
(g30
g3
Ntp240
Rp241
(dp242
g34
g1
(g35
g3
Ntp243
Rp244
(dp245
g39
F43.8
sg40
F28.54
sg41
F41.0
sbsg27
F7.42
sbasg42
I01
sg43
g227
sg47
I0
sba.