(lp0
ccopy_reg
_reconstructor
p1
(cdestination
Destination
p2
c__builtin__
object
p3
Ntp4
Rp5
(dp6
S'_Destination__latest_usage'
p7
g1
(crospy.rostime
Time
p8
g3
Ntp9
Rp10
(lp11
I15
aI800000000
absS'name'
p12
S'WayPoint1'
p13
sS'pose'
p14
g1
(cgeometry_msgs.msg._Pose
Pose
p15
g3
Ntp16
Rp17
(lp18
g1
(cgeometry_msgs.msg._Point
Point
p19
g3
Ntp20
Rp21
(lp22
F-1.549999999999999
aF-0.8999999999999986
aF0.0
abag1
(cgeometry_msgs.msg._Quaternion
Quaternion
p23
g3
Ntp24
Rp25
(lp26
I0
aI0
aI0
aI1
ababsS'path_len'
p27
F8.636
sS'_Destination__stats'
p28
(lp29
g1
(cdestination
Observation
p30
g3
Ntp31
Rp32
(dp33
S'idleness'
p34
g1
(cdestination
Idleness
p35
g3
Ntp36
Rp37
(dp38
S'_Idleness__true_idl'
p39
F15.8
sS'_Idleness__estim_idl'
p40
F16.0
sS'_Idleness__remaining_idl'
p41
F13.0
sbsg27
F4.161
sbasS'_Destination__available'
p42
I00
sS'_Destination__remaining_idl'
p43
g1
(g8
g3
Ntp44
Rp45
(lp46
I36
aI5000000
absS'estim_idl'
p47
F33.22
sbag1
(g2
g3
Ntp48
Rp49
(dp50
g7
g1
(g8
g3
Ntp51
Rp52
(lp53
I35
aI1000000
absg12
S'WayPoint10'
p54
sg14
g1
(g15
g3
Ntp55
Rp56
(lp57
g1
(g19
g3
Ntp58
Rp59
(lp60
F-2.75
aF4.0500000000000025
aF0.0
abag1
(g23
g3
Ntp61
Rp62
(lp63
I0
aI0
aI0
aI1
ababsg27
F0.0
sg28
(lp64
g1
(g30
g3
Ntp65
Rp66
(dp67
g34
g1
(g35
g3
Ntp68
Rp69
(dp70
g39
F35.001
sg40
F30.49
sg41
F31.997
sbsg27
F7.929
sbasg42
I01
sg43
g52
sg47
I0
sbag1
(g2
g3
Ntp71
Rp72
(dp73
g7
g1
(g8
g3
Ntp74
Rp75
(lp76
I0
aI0
absg12
S'WayPoint2'
p77
sg14
g1
(g15
g3
Ntp78
Rp79
(lp80
g1
(g19
g3
Ntp81
Rp82
(lp83
F-5.25
aF-0.04999999999999716
aF0.0
abag1
(g23
g3
Ntp84
Rp85
(lp86
I0
aI0
aI0
aI1
ababsg27
F13.384
sg28
(lp87
sg42
I00
sg43
g1
(g8
g3
Ntp88
Rp89
(lp90
I41
aI208000000
absg47
F51.48
sbag1
(g2
g3
Ntp91
Rp92
(dp93
g7
g75
sg12
S'WayPoint3'
p94
sg14
g1
(g15
g3
Ntp95
Rp96
(lp97
g1
(g19
g3
Ntp98
Rp99
(lp100
F-2.6499999999999995
aF-3.8999999999999986
aF0.0
abag1
(g23
g3
Ntp101
Rp102
(lp103
I0
aI0
aI0
aI1
ababsg27
F7.364
sg28
(lp104
sg42
I00
sg43
g1
(g8
g3
Ntp105
Rp106
(lp107
I2
aI603000000
absg47
F28.32
sbag1
(g2
g3
Ntp108
Rp109
(dp110
g7
g75
sg12
S'WayPoint4'
p111
sg14
g1
(g15
g3
Ntp112
Rp113
(lp114
g1
(g19
g3
Ntp115
Rp116
(lp117
F3.700000000000001
aF-1.3499999999999979
aF0.0
abag1
(g23
g3
Ntp118
Rp119
(lp120
I0
aI0
aI0
aI1
ababsg27
F10.898
sg28
(lp121
sg42
I00
sg43
g1
(g8
g3
Ntp122
Rp123
(lp124
I3
aI4000000
absg47
F41.91
sbag1
(g2
g3
Ntp125
Rp126
(dp127
g7
g1
(g8
g3
Ntp128
Rp129
(lp130
I40
aI800000000
absg12
S'WayPoint5'
p131
sg14
g1
(g15
g3
Ntp132
Rp133
(lp134
g1
(g19
g3
Ntp135
Rp136
(lp137
F7.650000000000002
aF-1.4999999999999982
aF0.0
abag1
(g23
g3
Ntp138
Rp139
(lp140
I0
aI0
aI0
aI1
ababsg27
F12.516
sg28
(lp141
g1
(g30
g3
Ntp142
Rp143
(dp144
g34
g1
(g35
g3
Ntp145
Rp146
(dp147
g39
F40.8
sg40
F35.95
sg41
F38.0
sbsg27
F9.346
sbasg42
I00
sg43
g1
(g8
g3
Ntp148
Rp149
(lp150
I44
aI400000000
absg47
F48.14
sbag1
(g2
g3
Ntp151
Rp152
(dp153
g7
g1
(g8
g3
Ntp154
Rp155
(lp156
I43
aI400000000
absg12
S'WayPoint6'
p157
sg14
g1
(g15
g3
Ntp158
Rp159
(lp160
g1
(g19
g3
Ntp161
Rp162
(lp163
F4.350000000000001
aF1.6000000000000023
aF0.0
abag1
(g23
g3
Ntp164
Rp165
(lp166
I0
aI0
aI0
aI1
ababsg27
F5.334
sg28
(lp167
g1
(g30
g3
Ntp168
Rp169
(dp170
g34
g1
(g35
g3
Ntp171
Rp172
(dp173
g39
F43.4
sg40
F26.29
sg41
F26.999
sbsg27
F6.835
sbasg42
I00
sg43
g1
(g8
g3
Ntp174
Rp175
(lp176
I45
aI1000000
absg47
F20.52
sbag1
(g2
g3
Ntp177
Rp178
(dp179
g7
g1
(g8
g3
Ntp180
Rp181
(lp182
I16
aI1000000
absg12
S'WayPoint7'
p183
sg14
g1
(g15
g3
Ntp184
Rp185
(lp186
g1
(g19
g3
Ntp187
Rp188
(lp189
F1.700000000000001
aF1.6500000000000021
aF0.0
abag1
(g23
g3
Ntp190
Rp191
(lp192
I0
aI0
aI0
aI1
ababsg27
F4.958
sg28
(lp193
g1
(g30
g3
Ntp194
Rp195
(dp196
g34
g1
(g35
g3
Ntp197
Rp198
(dp199
g39
F16.001
sg40
F11.39
sg41
F12.997
sbsg27
F2.961
sbasg42
I00
sg43
g1
(g8
g3
Ntp200
Rp201
(lp202
I48
aI404000000
absg47
F19.07
sbag1
(g2
g3
Ntp203
Rp204
(dp205
g7
g1
(g8
g3
Ntp206
Rp207
(lp208
I44
aI600000000
absg12
S'WayPoint8'
p209
sg14
g1
(g15
g3
Ntp210
Rp211
(lp212
g1
(g19
g3
Ntp213
Rp214
(lp215
F0.9000000000000004
aF4.350000000000002
aF0.0
abag1
(g23
g3
Ntp216
Rp217
(lp218
I0
aI0
aI0
aI1
ababsg27
F0.0
sg28
(lp219
g1
(g30
g3
Ntp220
Rp221
(dp222
g34
g1
(g35
g3
Ntp223
Rp224
(dp225
g39
F44.6
sg40
F26.0
sg41
F41.997
sbsg27
F6.761
sbasg42
I01
sg43
g207
sg47
I0
sbag1
(g2
g3
Ntp226
Rp227
(dp228
g7
g1
(g8
g3
Ntp229
Rp230
(lp231
I47
aI400000000
absg12
S'WayPoint9'
p232
sg14
g1
(g15
g3
Ntp233
Rp234
(lp235
g1
(g19
g3
Ntp236
Rp237
(lp238
F5.0
aF4.600000000000002
aF0.0
abag1
(g23
g3
Ntp239
Rp240
(lp241
I0
aI0
aI0
aI1
ababsg27
F0.0
sg28
(lp242
g1
(g30
g3
Ntp243
Rp244
(dp245
g34
g1
(g35
g3
Ntp246
Rp247
(dp248
g39
F47.4
sg40
F19.45
sg41
F30.999
sbsg27
F5.058
sbasg42
I01
sg43
g230
sg47
I0
sba.