(lp0
ccopy_reg
_reconstructor
p1
(cdestination
Destination
p2
c__builtin__
object
p3
Ntp4
Rp5
(dp6
S'_Destination__latest_usage'
p7
g1
(crospy.rostime
Time
p8
g3
Ntp9
Rp10
(lp11
I17
aI600000000
absS'name'
p12
S'WayPoint1'
p13
sS'pose'
p14
g1
(cgeometry_msgs.msg._Pose
Pose
p15
g3
Ntp16
Rp17
(lp18
g1
(cgeometry_msgs.msg._Point
Point
p19
g3
Ntp20
Rp21
(lp22
F-1.549999999999999
aF-0.8999999999999986
aF0.0
abag1
(cgeometry_msgs.msg._Quaternion
Quaternion
p23
g3
Ntp24
Rp25
(lp26
I0
aI0
aI0
aI1
ababsS'path_len'
p27
F6.635
sS'_Destination__stats'
p28
(lp29
g1
(cdestination
Observation
p30
g3
Ntp31
Rp32
(dp33
S'idleness'
p34
g1
(cdestination
Idleness
p35
g3
Ntp36
Rp37
(dp38
S'_Idleness__true_idl'
p39
F17.6
sS'_Idleness__estim_idl'
p40
F16.0
sS'_Idleness__remaining_idl'
p41
F14.0
sbsg27
F4.161
sbasS'_Destination__available'
p42
I00
sS'_Destination__remaining_idl'
p43
g1
(g8
g3
Ntp44
Rp45
(lp46
I51
aI200000000
absS'estim_idl'
p47
F25.52
sbag1
(g2
g3
Ntp48
Rp49
(dp50
g7
g1
(g8
g3
Ntp51
Rp52
(lp53
I0
aI0
absg12
S'WayPoint10'
p54
sg14
g1
(g15
g3
Ntp55
Rp56
(lp57
g1
(g19
g3
Ntp58
Rp59
(lp60
F-2.75
aF4.0500000000000025
aF0.0
abag1
(g23
g3
Ntp61
Rp62
(lp63
I0
aI0
aI0
aI1
ababsg27
F10.589
sg28
(lp64
sg42
I00
sg43
g1
(g8
g3
Ntp65
Rp66
(lp67
I4
aI200000000
absg47
F40.73
sbag1
(g2
g3
Ntp68
Rp69
(dp70
g7
g1
(g8
g3
Ntp71
Rp72
(lp73
I58
aI200000000
absg12
S'WayPoint2'
p74
sg14
g1
(g15
g3
Ntp75
Rp76
(lp77
g1
(g19
g3
Ntp78
Rp79
(lp80
F-5.25
aF-0.04999999999999716
aF0.0
abag1
(g23
g3
Ntp81
Rp82
(lp83
I0
aI0
aI0
aI1
ababsg27
F0.0
sg28
(lp84
g1
(g30
g3
Ntp85
Rp86
(dp87
g34
g1
(g35
g3
Ntp88
Rp89
(dp90
g39
F58.2
sg40
F45.81
sg41
F54.0
sbsg27
F11.911
sbasg42
I01
sg43
g72
sg47
I0
sbag1
(g2
g3
Ntp91
Rp92
(dp93
g7
g52
sg12
S'WayPoint3'
p94
sg14
g1
(g15
g3
Ntp95
Rp96
(lp97
g1
(g19
g3
Ntp98
Rp99
(lp100
F-2.6499999999999995
aF-3.8999999999999986
aF0.0
abag1
(g23
g3
Ntp101
Rp102
(lp103
I0
aI0
aI0
aI1
ababsg27
F12.112
sg28
(lp104
sg42
I00
sg43
g1
(g8
g3
Ntp105
Rp106
(lp107
I2
aI601000000
absg47
F46.59
sbag1
(g2
g3
Ntp108
Rp109
(dp110
g7
g1
(g8
g3
Ntp111
Rp112
(lp113
I39
aI200000000
absg12
S'WayPoint4'
p114
sg14
g1
(g15
g3
Ntp115
Rp116
(lp117
g1
(g19
g3
Ntp118
Rp119
(lp120
F3.700000000000001
aF-1.3499999999999979
aF0.0
abag1
(g23
g3
Ntp121
Rp122
(lp123
I0
aI0
aI0
aI1
ababsg27
F10.107
sg28
(lp124
g1
(g30
g3
Ntp125
Rp126
(dp127
g34
g1
(g35
g3
Ntp128
Rp129
(dp130
g39
F39.2
sg40
F22.0
sg41
F21.0
sbsg27
F5.721
sbasg42
I00
sg43
g1
(g8
g3
Ntp131
Rp132
(lp133
I59
aI200000000
absg47
F38.87
sbag1
(g2
g3
Ntp134
Rp135
(dp136
g7
g52
sg12
S'WayPoint5'
p137
sg14
g1
(g15
g3
Ntp138
Rp139
(lp140
g1
(g19
g3
Ntp141
Rp142
(lp143
F7.650000000000002
aF-1.4999999999999982
aF0.0
abag1
(g23
g3
Ntp144
Rp145
(lp146
I0
aI0
aI0
aI1
ababsg27
F12.537
sg28
(lp147
sg42
I00
sg43
g1
(g8
g3
Ntp148
Rp149
(lp150
I30
aI200000000
absg47
F48.22
sbag1
(g2
g3
Ntp151
Rp152
(dp153
g7
g1
(g8
g3
Ntp154
Rp155
(lp156
I29
aI600000000
absg12
S'WayPoint6'
p157
sg14
g1
(g15
g3
Ntp158
Rp159
(lp160
g1
(g19
g3
Ntp161
Rp162
(lp163
F4.350000000000001
aF1.6000000000000023
aF0.0
abag1
(g23
g3
Ntp164
Rp165
(lp166
I0
aI0
aI0
aI1
ababsg27
F0.0
sg28
(lp167
g1
(g30
g3
Ntp168
Rp169
(dp170
g34
g1
(g35
g3
Ntp171
Rp172
(dp173
g39
F29.6
sg40
F20.48
sg41
F26.0
sbsg27
F5.326
sbasg42
I01
sg43
g155
sg47
I0
sbag1
(g2
g3
Ntp174
Rp175
(dp176
g7
g1
(g8
g3
Ntp177
Rp178
(lp179
I10
aI400000000
absg12
S'WayPoint7'
p180
sg14
g1
(g15
g3
Ntp181
Rp182
(lp183
g1
(g19
g3
Ntp184
Rp185
(lp186
F1.700000000000001
aF1.6500000000000021
aF0.0
abag1
(g23
g3
Ntp187
Rp188
(lp189
I0
aI0
aI0
aI1
ababsg27
F5.983
sg28
(lp190
g1
(g30
g3
Ntp191
Rp192
(dp193
g34
g1
(g35
g3
Ntp194
Rp195
(dp196
g39
F10.4
sg40
F10.54
sg41
F6.0
sbsg27
F2.741
sbasg42
I00
sg43
g1
(g8
g3
Ntp197
Rp198
(lp199
I40
aI200000000
absg47
F23.01
sbag1
(g2
g3
Ntp200
Rp201
(dp202
g7
g1
(g8
g3
Ntp203
Rp204
(lp205
I50
aI600000000
absg12
S'WayPoint8'
p206
sg14
g1
(g15
g3
Ntp207
Rp208
(lp209
g1
(g19
g3
Ntp210
Rp211
(lp212
F0.9000000000000004
aF4.350000000000002
aF0.0
abag1
(g23
g3
Ntp213
Rp214
(lp215
I0
aI0
aI0
aI1
ababsg27
F0.0
sg28
(lp216
g1
(g30
g3
Ntp217
Rp218
(dp219
g34
g1
(g35
g3
Ntp220
Rp221
(dp222
g39
F50.6
sg40
F25.65
sg41
F47.0
sbsg27
F6.669
sbasg42
I01
sg43
g204
sg47
I0
sbag1
(g2
g3
Ntp223
Rp224
(dp225
g7
g52
sg12
S'WayPoint9'
p226
sg14
g1
(g15
g3
Ntp227
Rp228
(lp229
g1
(g19
g3
Ntp230
Rp231
(lp232
F5.0
aF4.600000000000002
aF0.0
abag1
(g23
g3
Ntp233
Rp234
(lp235
I0
aI0
aI0
aI1
ababsg27
F5.074
sg28
(lp236
sg42
I00
sg43
g1
(g8
g3
Ntp237
Rp238
(lp239
I11
aI401000000
absg47
F19.51
sba.