(lp0
ccopy_reg
_reconstructor
p1
(cdestination
Destination
p2
c__builtin__
object
p3
Ntp4
Rp5
(dp6
S'_Destination__latest_usage'
p7
g1
(crospy.rostime
Time
p8
g3
Ntp9
Rp10
(lp11
I0
aI0
absS'name'
p12
S'WayPoint1'
p13
sS'pose'
p14
g1
(cgeometry_msgs.msg._Pose
Pose
p15
g3
Ntp16
Rp17
(lp18
g1
(cgeometry_msgs.msg._Point
Point
p19
g3
Ntp20
Rp21
(lp22
F-1.549999999999999
aF-0.8999999999999986
aF0.0
abag1
(cgeometry_msgs.msg._Quaternion
Quaternion
p23
g3
Ntp24
Rp25
(lp26
I0
aI0
aI0
aI1
ababsS'path_len'
p27
F9.358
sS'_Destination__stats'
p28
(lp29
sS'_Destination__available'
p30
I00
sS'_Destination__remaining_idl'
p31
g1
(g8
g3
Ntp32
Rp33
(lp34
I44
aI201000000
absS'estim_idl'
p35
F35.99
sbag1
(g2
g3
Ntp36
Rp37
(dp38
g7
g1
(g8
g3
Ntp39
Rp40
(lp41
I36
aI804000000
absg12
S'WayPoint10'
p42
sg14
g1
(g15
g3
Ntp43
Rp44
(lp45
g1
(g19
g3
Ntp46
Rp47
(lp48
F-2.75
aF4.0500000000000025
aF0.0
abag1
(g23
g3
Ntp49
Rp50
(lp51
I0
aI0
aI0
aI1
ababsg27
F10.032
sg28
(lp52
g1
(cdestination
Observation
p53
g3
Ntp54
Rp55
(dp56
S'idleness'
p57
g1
(cdestination
Idleness
p58
g3
Ntp59
Rp60
(dp61
S'_Idleness__true_idl'
p62
F36.804
sS'_Idleness__estim_idl'
p63
F26.01
sS'_Idleness__remaining_idl'
p64
F33.004
sbsg27
F6.762
sbasg30
I00
sg31
g1
(g8
g3
Ntp65
Rp66
(lp67
I50
aI200000000
absg35
F38.59
sbag1
(g2
g3
Ntp68
Rp69
(dp70
g7
g10
sg12
S'WayPoint2'
p71
sg14
g1
(g15
g3
Ntp72
Rp73
(lp74
g1
(g19
g3
Ntp75
Rp76
(lp77
F-5.25
aF-0.04999999999999716
aF0.0
abag1
(g23
g3
Ntp78
Rp79
(lp80
I0
aI0
aI0
aI1
ababsg27
F9.987
sg28
(lp81
sg30
I00
sg31
g1
(g8
g3
Ntp82
Rp83
(lp84
I46
aI200000000
absg35
F38.41
sbag1
(g2
g3
Ntp85
Rp86
(dp87
g7
g10
sg12
S'WayPoint3'
p88
sg14
g1
(g15
g3
Ntp89
Rp90
(lp91
g1
(g19
g3
Ntp92
Rp93
(lp94
F-2.6499999999999995
aF-3.8999999999999986
aF0.0
abag1
(g23
g3
Ntp95
Rp96
(lp97
I0
aI0
aI0
aI1
ababsg27
F11.686
sg28
(lp98
sg30
I00
sg31
g1
(g8
g3
Ntp99
Rp100
(lp101
I37
aI201000000
absg35
F44.95
sbag1
(g2
g3
Ntp102
Rp103
(dp104
g7
g10
sg12
S'WayPoint4'
p105
sg14
g1
(g15
g3
Ntp106
Rp107
(lp108
g1
(g19
g3
Ntp109
Rp110
(lp111
F3.700000000000001
aF-1.3499999999999979
aF0.0
abag1
(g23
g3
Ntp112
Rp113
(lp114
I0
aI0
aI0
aI1
ababsg27
F10.525
sg28
(lp115
sg30
I00
sg31
g1
(g8
g3
Ntp116
Rp117
(lp118
I3
aI601000000
absg35
F40.48
sbag1
(g2
g3
Ntp119
Rp120
(dp121
g7
g1
(g8
g3
Ntp122
Rp123
(lp124
I43
aI800000000
absg12
S'WayPoint5'
p125
sg14
g1
(g15
g3
Ntp126
Rp127
(lp128
g1
(g19
g3
Ntp129
Rp130
(lp131
F7.650000000000002
aF-1.4999999999999982
aF0.0
abag1
(g23
g3
Ntp132
Rp133
(lp134
I0
aI0
aI0
aI1
ababsg27
F0.0
sg28
(lp135
g1
(g53
g3
Ntp136
Rp137
(dp138
g57
g1
(g58
g3
Ntp139
Rp140
(dp141
g62
F43.8
sg63
F35.95
sg64
F40.0
sbsg27
F9.346
sbasg30
I01
sg31
g123
sg35
I0
sbag1
(g2
g3
Ntp142
Rp143
(dp144
g7
g1
(g8
g3
Ntp145
Rp146
(lp147
I45
aI201000000
absg12
S'WayPoint6'
p148
sg14
g1
(g15
g3
Ntp149
Rp150
(lp151
g1
(g19
g3
Ntp152
Rp153
(lp154
F4.350000000000001
aF1.6000000000000023
aF0.0
abag1
(g23
g3
Ntp155
Rp156
(lp157
I0
aI0
aI0
aI1
ababsg27
F0.0
sg28
(lp158
g1
(g53
g3
Ntp159
Rp160
(dp161
g57
g1
(g58
g3
Ntp162
Rp163
(dp164
g62
F45.201
sg63
F38.7
sg64
F41.001
sbsg27
F10.063
sbasg30
I01
sg31
g146
sg35
I0
sbag1
(g2
g3
Ntp165
Rp166
(dp167
g7
g10
sg12
S'WayPoint7'
p168
sg14
g1
(g15
g3
Ntp169
Rp170
(lp171
g1
(g19
g3
Ntp172
Rp173
(lp174
F1.700000000000001
aF1.6500000000000021
aF0.0
abag1
(g23
g3
Ntp175
Rp176
(lp177
I0
aI0
aI0
aI1
ababsg27
F5.054
sg28
(lp178
sg30
I00
sg31
g1
(g8
g3
Ntp179
Rp180
(lp181
I3
aI400000000
absg35
F19.44
sbag1
(g2
g3
Ntp182
Rp183
(dp184
g7
g10
sg12
S'WayPoint8'
p185
sg14
g1
(g15
g3
Ntp186
Rp187
(lp188
g1
(g19
g3
Ntp189
Rp190
(lp191
F0.9000000000000004
aF4.350000000000002
aF0.0
abag1
(g23
g3
Ntp192
Rp193
(lp194
I0
aI0
aI0
aI1
ababsg27
F8.501
sg28
(lp195
sg30
I00
sg31
g180
sg35
F32.7
sbag1
(g2
g3
Ntp196
Rp197
(dp198
g7
g1
(g8
g3
Ntp199
Rp200
(lp201
I49
aI201000000
absg12
S'WayPoint9'
p202
sg14
g1
(g15
g3
Ntp203
Rp204
(lp205
g1
(g19
g3
Ntp206
Rp207
(lp208
F5.0
aF4.600000000000002
aF0.0
abag1
(g23
g3
Ntp209
Rp210
(lp211
I0
aI0
aI0
aI1
ababsg27
F0.0
sg28
(lp212
g1
(g53
g3
Ntp213
Rp214
(dp215
g57
g1
(g58
g3
Ntp216
Rp217
(dp218
g62
F49.201
sg63
F18.22
sg64
F45.001
sbsg27
F4.738
sbasg30
I01
sg31
g200
sg35
I0
sba.