(lp0
ccopy_reg
_reconstructor
p1
(cdestination
Destination
p2
c__builtin__
object
p3
Ntp4
Rp5
(dp6
S'_Destination__latest_usage'
p7
g1
(crospy.rostime
Time
p8
g3
Ntp9
Rp10
(lp11
I20
aI602000000
absS'name'
p12
S'WayPoint1'
p13
sS'pose'
p14
g1
(cgeometry_msgs.msg._Pose
Pose
p15
g3
Ntp16
Rp17
(lp18
g1
(cgeometry_msgs.msg._Point
Point
p19
g3
Ntp20
Rp21
(lp22
F-1.549999999999999
aF-0.8999999999999986
aF0.0
abag1
(cgeometry_msgs.msg._Quaternion
Quaternion
p23
g3
Ntp24
Rp25
(lp26
I0
aI0
aI0
aI1
ababsS'path_len'
p27
F4.326
sS'_Destination__stats'
p28
(lp29
g1
(cdestination
Observation
p30
g3
Ntp31
Rp32
(dp33
S'idleness'
p34
g1
(cdestination
Idleness
p35
g3
Ntp36
Rp37
(dp38
S'_Idleness__true_idl'
p39
F20.602
sS'_Idleness__estim_idl'
p40
F20.84
sS'_Idleness__remaining_idl'
p41
F18.0
sbsg27
F5.418
sbasS'_Destination__available'
p42
I00
sS'_Destination__remaining_idl'
p43
g1
(g8
g3
Ntp44
Rp45
(lp46
I36
aI201000000
absS'estim_idl'
p47
F16.64
sbag1
(g2
g3
Ntp48
Rp49
(dp50
g7
g1
(g8
g3
Ntp51
Rp52
(lp53
I30
aI201000000
absg12
S'WayPoint10'
p54
sg14
g1
(g15
g3
Ntp55
Rp56
(lp57
g1
(g19
g3
Ntp58
Rp59
(lp60
F-2.75
aF4.0500000000000025
aF0.0
abag1
(g23
g3
Ntp61
Rp62
(lp63
I0
aI0
aI0
aI1
ababsg27
F6.829
sg28
(lp64
g1
(g30
g3
Ntp65
Rp66
(dp67
g34
g1
(g35
g3
Ntp68
Rp69
(dp70
g39
F30.201
sg40
F30.49
sg41
F27.001
sbsg27
F7.929
sbasg42
I00
sg43
g1
(g8
g3
Ntp71
Rp72
(lp73
I57
aI201000000
absg47
F26.26
sbag1
(g2
g3
Ntp74
Rp75
(dp76
g7
g1
(g8
g3
Ntp77
Rp78
(lp79
I38
aI1000000
absg12
S'WayPoint2'
p80
sg14
g1
(g15
g3
Ntp81
Rp82
(lp83
g1
(g19
g3
Ntp84
Rp85
(lp86
F-5.25
aF-0.04999999999999716
aF0.0
abag1
(g23
g3
Ntp87
Rp88
(lp89
I0
aI0
aI0
aI1
ababsg27
F0.0
sg28
(lp90
g1
(g30
g3
Ntp91
Rp92
(dp93
g34
g1
(g35
g3
Ntp94
Rp95
(dp96
g39
F38.001
sg40
F16.18
sg41
F16.801
sbsg27
F4.208
sbasg42
I01
sg43
g78
sg47
I0
sbag1
(g2
g3
Ntp97
Rp98
(dp99
g7
g1
(g8
g3
Ntp100
Rp101
(lp102
I29
aI0
absg12
S'WayPoint3'
p103
sg14
g1
(g15
g3
Ntp104
Rp105
(lp106
g1
(g19
g3
Ntp107
Rp108
(lp109
F-2.6499999999999995
aF-3.8999999999999986
aF0.0
abag1
(g23
g3
Ntp110
Rp111
(lp112
I0
aI0
aI0
aI1
ababsg27
F6.12
sg28
(lp113
g1
(g30
g3
Ntp114
Rp115
(dp116
g34
g1
(g35
g3
Ntp117
Rp118
(dp119
g39
F29.0
sg40
F23.48
sg41
F26.0
sbsg27
F6.104
sbasg42
I00
sg43
g1
(g8
g3
Ntp120
Rp121
(lp122
I39
aI202000000
absg47
F23.54
sbag1
(g2
g3
Ntp123
Rp124
(dp125
g7
g1
(g8
g3
Ntp126
Rp127
(lp128
I0
aI0
absg12
S'WayPoint4'
p129
sg14
g1
(g15
g3
Ntp130
Rp131
(lp132
g1
(g19
g3
Ntp133
Rp134
(lp135
F3.700000000000001
aF-1.3499999999999979
aF0.0
abag1
(g23
g3
Ntp136
Rp137
(lp138
I0
aI0
aI0
aI1
ababsg27
F7.348
sg28
(lp139
sg42
I00
sg43
g1
(g8
g3
Ntp140
Rp141
(lp142
I30
aI1000000
absg47
F28.26
sbag1
(g2
g3
Ntp143
Rp144
(dp145
g7
g127
sg12
S'WayPoint5'
p146
sg14
g1
(g15
g3
Ntp147
Rp148
(lp149
g1
(g19
g3
Ntp150
Rp151
(lp152
F7.650000000000002
aF-1.4999999999999982
aF0.0
abag1
(g23
g3
Ntp153
Rp154
(lp155
I0
aI0
aI0
aI1
ababsg27
F12.413
sg28
(lp156
sg42
I00
sg43
g1
(g8
g3
Ntp157
Rp158
(lp159
I2
aI800000000
absg47
F47.74
sbag1
(g2
g3
Ntp160
Rp161
(dp162
g7
g1
(g8
g3
Ntp163
Rp164
(lp165
I16
aI403000000
absg12
S'WayPoint6'
p166
sg14
g1
(g15
g3
Ntp167
Rp168
(lp169
g1
(g19
g3
Ntp170
Rp171
(lp172
F4.350000000000001
aF1.6000000000000023
aF0.0
abag1
(g23
g3
Ntp173
Rp174
(lp175
I0
aI0
aI0
aI1
ababsg27
F8.342
sg28
(lp176
g1
(g30
g3
Ntp177
Rp178
(dp179
g34
g1
(g35
g3
Ntp180
Rp181
(dp182
g39
F16.403
sg40
F18.38
sg41
F13.003
sbsg27
F4.779
sbasg42
I00
sg43
g1
(g8
g3
Ntp183
Rp184
(lp185
I31
aI200000000
absg47
F32.08
sbag1
(g2
g3
Ntp186
Rp187
(dp188
g7
g1
(g8
g3
Ntp189
Rp190
(lp191
I35
aI602000000
absg12
S'WayPoint7'
p192
sg14
g1
(g15
g3
Ntp193
Rp194
(lp195
g1
(g19
g3
Ntp196
Rp197
(lp198
F1.700000000000001
aF1.6500000000000021
aF0.0
abag1
(g23
g3
Ntp199
Rp200
(lp201
I0
aI0
aI0
aI1
ababsg27
F0.0
sg28
(lp202
g1
(g30
g3
Ntp203
Rp204
(dp205
g34
g1
(g35
g3
Ntp206
Rp207
(dp208
g39
F35.602
sg40
F16.19
sg41
F33.0
sbsg27
F4.209
sbasg42
I01
sg43
g190
sg47
I0
sbag1
(g2
g3
Ntp209
Rp210
(dp211
g7
g1
(g8
g3
Ntp212
Rp213
(lp214
I56
aI601000000
absg12
S'WayPoint8'
p215
sg14
g1
(g15
g3
Ntp216
Rp217
(lp218
g1
(g19
g3
Ntp219
Rp220
(lp221
F0.9000000000000004
aF4.350000000000002
aF0.0
abag1
(g23
g3
Ntp222
Rp223
(lp224
I0
aI0
aI0
aI1
ababsg27
F0.0
sg28
(lp225
g1
(g30
g3
Ntp226
Rp227
(dp228
g34
g1
(g35
g3
Ntp229
Rp230
(dp231
g39
F56.601
sg40
F26.0
sg41
F53.999
sbsg27
F6.761
sbasg42
I01
sg43
g213
sg47
I0
sbag1
(g2
g3
Ntp232
Rp233
(dp234
g7
g127
sg12
S'WayPoint9'
p235
sg14
g1
(g15
g3
Ntp236
Rp237
(lp238
g1
(g19
g3
Ntp239
Rp240
(lp241
F5.0
aF4.600000000000002
aF0.0
abag1
(g23
g3
Ntp242
Rp243
(lp244
I0
aI0
aI0
aI1
ababsg27
F4.725
sg28
(lp245
sg42
I00
sg43
g1
(g8
g3
Ntp246
Rp247
(lp248
I17
aI402000000
absg47
F18.17
sba.