(lp0
ccopy_reg
_reconstructor
p1
(cdestination
Destination
p2
c__builtin__
object
p3
Ntp4
Rp5
(dp6
S'_Destination__latest_usage'
p7
g1
(crospy.rostime
Time
p8
g3
Ntp9
Rp10
(lp11
I0
aI0
absS'name'
p12
S'WayPoint1'
p13
sS'pose'
p14
g1
(cgeometry_msgs.msg._Pose
Pose
p15
g3
Ntp16
Rp17
(lp18
g1
(cgeometry_msgs.msg._Point
Point
p19
g3
Ntp20
Rp21
(lp22
F-2.75
aF1.0500000000000025
aF0.0
abag1
(cgeometry_msgs.msg._Quaternion
Quaternion
p23
g3
Ntp24
Rp25
(lp26
I0
aI0
aI0
aI1
ababsS'path_len'
p27
F8.47
sS'_Destination__stats'
p28
(lp29
sS'_Destination__available'
p30
I00
sS'_Destination__remaining_idl'
p31
g1
(g8
g3
Ntp32
Rp33
(lp34
I59
aI600000000
absS'estim_idl'
p35
F32.58
sbag1
(g2
g3
Ntp36
Rp37
(dp38
g7
g10
sg12
S'WayPoint2'
p39
sg14
g1
(g15
g3
Ntp40
Rp41
(lp42
g1
(g19
g3
Ntp43
Rp44
(lp45
F5.15
aF0.9000000000000021
aF0.0
abag1
(g23
g3
Ntp46
Rp47
(lp48
I0
aI0
aI0
aI1
ababsg27
F0.0
sg28
(lp49
sg30
I01
sg31
g10
sg35
I0
sbag1
(g2
g3
Ntp50
Rp51
(dp52
g7
g10
sg12
S'WayPoint3'
p53
sg14
g1
(g15
g3
Ntp54
Rp55
(lp56
g1
(g19
g3
Ntp57
Rp58
(lp59
F4.850000000000001
aF3.900000000000002
aF0.0
abag1
(g23
g3
Ntp60
Rp61
(lp62
I0
aI0
aI0
aI1
ababsg27
F14.369
sg28
(lp63
sg30
I00
sg31
g1
(g8
g3
Ntp64
Rp65
(lp66
I2
aI600000000
absg35
F55.27
sbag1
(g2
g3
Ntp67
Rp68
(dp69
g7
g10
sg12
S'WayPoint4'
p70
sg14
g1
(g15
g3
Ntp71
Rp72
(lp73
g1
(g19
g3
Ntp74
Rp75
(lp76
F1.200000000000001
aF3.1000000000000023
aF0.0
abag1
(g23
g3
Ntp77
Rp78
(lp79
I0
aI0
aI0
aI1
ababsg27
F13.52
sg28
(lp80
sg30
I00
sg31
g1
(g8
g3
Ntp81
Rp82
(lp83
I30
aI601000000
absg35
F52.0
sbag1
(g2
g3
Ntp84
Rp85
(dp86
g7
g1
(g8
g3
Ntp87
Rp88
(lp89
I29
aI600000000
absg12
S'WayPoint5'
p90
sg14
g1
(g15
g3
Ntp91
Rp92
(lp93
g1
(g19
g3
Ntp94
Rp95
(lp96
F5.800000000000001
aF-4.349999999999998
aF0.0
abag1
(g23
g3
Ntp97
Rp98
(lp99
I0
aI0
aI0
aI1
ababsg27
F0.0
sg28
(lp100
g1
(cdestination
Observation
p101
g3
Ntp102
Rp103
(dp104
S'idleness'
p105
g1
(cdestination
Idleness
p106
g3
Ntp107
Rp108
(dp109
S'_Idleness__true_idl'
p110
F29.6
sS'_Idleness__estim_idl'
p111
F23.26
sS'_Idleness__remaining_idl'
p112
F27.0
sbsg27
F6.047
sbasg30
I01
sg31
g88
sg35
I0
sbag1
(g2
g3
Ntp113
Rp114
(dp115
g7
g10
sg12
S'WayPoint6'
p116
sg14
g1
(g15
g3
Ntp117
Rp118
(lp119
g1
(g19
g3
Ntp120
Rp121
(lp122
F-6.15
aF3.150000000000002
aF0.0
abag1
(g23
g3
Ntp123
Rp124
(lp125
I0
aI0
aI0
aI1
ababsg27
F0.0
sg28
(lp126
sg30
I01
sg31
g10
sg35
I0
sbag1
(g2
g3
Ntp127
Rp128
(dp129
g7
g1
(g8
g3
Ntp130
Rp131
(lp132
I58
aI601000000
absg12
S'WayPoint7'
p133
sg14
g1
(g15
g3
Ntp134
Rp135
(lp136
g1
(g19
g3
Ntp137
Rp138
(lp139
F-6.3
aF-1.8999999999999986
aF0.0
abag1
(g23
g3
Ntp140
Rp141
(lp142
I0
aI0
aI0
aI1
ababsg27
F0.0
sg28
(lp143
g1
(g101
g3
Ntp144
Rp145
(dp146
g105
g1
(g106
g3
Ntp147
Rp148
(dp149
g110
F58.601
sg111
F32.43
sg112
F56.001
sbsg27
F8.431
sbasg30
I01
sg31
g131
sg35
I0
sba.