(lp0
ccopy_reg
_reconstructor
p1
(cdestination
Destination
p2
c__builtin__
object
p3
Ntp4
Rp5
(dp6
S'_Destination__latest_usage'
p7
g1
(crospy.rostime
Time
p8
g3
Ntp9
Rp10
(lp11
I0
aI0
absS'name'
p12
S'WayPoint1'
p13
sS'pose'
p14
g1
(cgeometry_msgs.msg._Pose
Pose
p15
g3
Ntp16
Rp17
(lp18
g1
(cgeometry_msgs.msg._Point
Point
p19
g3
Ntp20
Rp21
(lp22
F-2.75
aF1.0500000000000025
aF0.0
abag1
(cgeometry_msgs.msg._Quaternion
Quaternion
p23
g3
Ntp24
Rp25
(lp26
I0
aI0
aI0
aI1
ababsS'path_len'
p27
F8.556
sS'_Destination__stats'
p28
(lp29
sS'_Destination__available'
p30
I00
sS'_Destination__remaining_idl'
p31
g1
(g8
g3
Ntp32
Rp33
(lp34
I57
aI601000000
absS'estim_idl'
p35
F32.91
sbag1
(g2
g3
Ntp36
Rp37
(dp38
g7
g1
(g8
g3
Ntp39
Rp40
(lp41
I56
aI600000000
absg12
S'WayPoint2'
p42
sg14
g1
(g15
g3
Ntp43
Rp44
(lp45
g1
(g19
g3
Ntp46
Rp47
(lp48
F5.15
aF0.9000000000000021
aF0.0
abag1
(g23
g3
Ntp49
Rp50
(lp51
I0
aI0
aI0
aI1
ababsg27
F0.0
sg28
(lp52
g1
(cdestination
Observation
p53
g3
Ntp54
Rp55
(dp56
S'idleness'
p57
g1
(cdestination
Idleness
p58
g3
Ntp59
Rp60
(dp61
S'_Idleness__true_idl'
p62
F56.6
sS'_Idleness__estim_idl'
p63
F47.55
sS'_Idleness__remaining_idl'
p64
F54.0
sbsg27
F12.364
sbasg30
I01
sg31
g40
sg35
I0
sbag1
(g2
g3
Ntp65
Rp66
(dp67
g7
g10
sg12
S'WayPoint3'
p68
sg14
g1
(g15
g3
Ntp69
Rp70
(lp71
g1
(g19
g3
Ntp72
Rp73
(lp74
F4.850000000000001
aF3.900000000000002
aF0.0
abag1
(g23
g3
Ntp75
Rp76
(lp77
I0
aI0
aI0
aI1
ababsg27
F18.575
sg28
(lp78
sg30
I00
sg31
g1
(g8
g3
Ntp79
Rp80
(lp81
I49
aI602000000
absg35
F71.44
sbag1
(g2
g3
Ntp82
Rp83
(dp84
g7
g10
sg12
S'WayPoint4'
p85
sg14
g1
(g15
g3
Ntp86
Rp87
(lp88
g1
(g19
g3
Ntp89
Rp90
(lp91
F1.200000000000001
aF3.1000000000000023
aF0.0
abag1
(g23
g3
Ntp92
Rp93
(lp94
I0
aI0
aI0
aI1
ababsg27
F0.0
sg28
(lp95
sg30
I01
sg31
g10
sg35
I0
sbag1
(g2
g3
Ntp96
Rp97
(dp98
g7
g10
sg12
S'WayPoint5'
p99
sg14
g1
(g15
g3
Ntp100
Rp101
(lp102
g1
(g19
g3
Ntp103
Rp104
(lp105
F5.800000000000001
aF-4.349999999999998
aF0.0
abag1
(g23
g3
Ntp106
Rp107
(lp108
I0
aI0
aI0
aI1
ababsg27
F0.0
sg28
(lp109
sg30
I01
sg31
g10
sg35
I0
sbag1
(g2
g3
Ntp110
Rp111
(dp112
g7
g10
sg12
S'WayPoint6'
p113
sg14
g1
(g15
g3
Ntp114
Rp115
(lp116
g1
(g19
g3
Ntp117
Rp118
(lp119
F-6.15
aF3.150000000000002
aF0.0
abag1
(g23
g3
Ntp120
Rp121
(lp122
I0
aI0
aI0
aI1
ababsg27
F12.355
sg28
(lp123
sg30
I00
sg31
g1
(g8
g3
Ntp124
Rp125
(lp126
I2
aI600000000
absg35
F47.52
sbag1
(g2
g3
Ntp127
Rp128
(dp129
g7
g1
(g8
g3
Ntp130
Rp131
(lp132
I48
aI600000000
absg12
S'WayPoint7'
p133
sg14
g1
(g15
g3
Ntp134
Rp135
(lp136
g1
(g19
g3
Ntp137
Rp138
(lp139
F-6.3
aF-1.8999999999999986
aF0.0
abag1
(g23
g3
Ntp140
Rp141
(lp142
I0
aI0
aI0
aI1
ababsg27
F0.0
sg28
(lp143
g1
(g53
g3
Ntp144
Rp145
(dp146
g57
g1
(g58
g3
Ntp147
Rp148
(dp149
g62
F48.6
sg63
F32.43
sg64
F46.0
sbsg27
F8.431
sbasg30
I01
sg31
g131
sg35
I0
sba.