(lp0
ccopy_reg
_reconstructor
p1
(cdestination
Destination
p2
c__builtin__
object
p3
Ntp4
Rp5
(dp6
S'_Destination__latest_usage'
p7
g1
(crospy.rostime
Time
p8
g3
Ntp9
Rp10
(lp11
I0
aI0
absS'name'
p12
S'WayPoint1'
p13
sS'pose'
p14
g1
(cgeometry_msgs.msg._Pose
Pose
p15
g3
Ntp16
Rp17
(lp18
g1
(cgeometry_msgs.msg._Point
Point
p19
g3
Ntp20
Rp21
(lp22
F-2.75
aF1.0500000000000025
aF0.0
abag1
(cgeometry_msgs.msg._Quaternion
Quaternion
p23
g3
Ntp24
Rp25
(lp26
I0
aI0
aI0
aI1
ababsS'path_len'
p27
F14.022
sS'_Destination__stats'
p28
(lp29
sS'_Destination__available'
p30
I00
sS'_Destination__remaining_idl'
p31
g1
(g8
g3
Ntp32
Rp33
(lp34
I30
aI600000000
absS'estim_idl'
p35
F53.93
sbag1
(g2
g3
Ntp36
Rp37
(dp38
g7
g10
sg12
S'WayPoint2'
p39
sg14
g1
(g15
g3
Ntp40
Rp41
(lp42
g1
(g19
g3
Ntp43
Rp44
(lp45
F5.15
aF0.9000000000000021
aF0.0
abag1
(g23
g3
Ntp46
Rp47
(lp48
I0
aI0
aI0
aI1
ababsg27
F0.0
sg28
(lp49
sg30
I01
sg31
g10
sg35
I0
sbag1
(g2
g3
Ntp50
Rp51
(dp52
g7
g10
sg12
S'WayPoint3'
p53
sg14
g1
(g15
g3
Ntp54
Rp55
(lp56
g1
(g19
g3
Ntp57
Rp58
(lp59
F4.850000000000001
aF3.900000000000002
aF0.0
abag1
(g23
g3
Ntp60
Rp61
(lp62
I0
aI0
aI0
aI1
ababsg27
F0.0
sg28
(lp63
sg30
I01
sg31
g10
sg35
I0
sbag1
(g2
g3
Ntp64
Rp65
(dp66
g7
g10
sg12
S'WayPoint4'
p67
sg14
g1
(g15
g3
Ntp68
Rp69
(lp70
g1
(g19
g3
Ntp71
Rp72
(lp73
F1.200000000000001
aF3.1000000000000023
aF0.0
abag1
(g23
g3
Ntp74
Rp75
(lp76
I0
aI0
aI0
aI1
ababsg27
F16.698
sg28
(lp77
sg30
I00
sg31
g1
(g8
g3
Ntp78
Rp79
(lp80
I2
aI600000000
absg35
F64.22
sbag1
(g2
g3
Ntp81
Rp82
(dp83
g7
g1
(g8
g3
Ntp84
Rp85
(lp86
I29
aI600000000
absg12
S'WayPoint5'
p87
sg14
g1
(g15
g3
Ntp88
Rp89
(lp90
g1
(g19
g3
Ntp91
Rp92
(lp93
F5.800000000000001
aF-4.349999999999998
aF0.0
abag1
(g23
g3
Ntp94
Rp95
(lp96
I0
aI0
aI0
aI1
ababsg27
F0.0
sg28
(lp97
g1
(cdestination
Observation
p98
g3
Ntp99
Rp100
(dp101
S'idleness'
p102
g1
(cdestination
Idleness
p103
g3
Ntp104
Rp105
(dp106
S'_Idleness__true_idl'
p107
F29.6
sS'_Idleness__estim_idl'
p108
F23.26
sS'_Idleness__remaining_idl'
p109
F27.0
sbsg27
F6.047
sbasg30
I01
sg31
g85
sg35
I0
sbag1
(g2
g3
Ntp110
Rp111
(dp112
g7
g10
sg12
S'WayPoint6'
p113
sg14
g1
(g15
g3
Ntp114
Rp115
(lp116
g1
(g19
g3
Ntp117
Rp118
(lp119
F-6.15
aF3.150000000000002
aF0.0
abag1
(g23
g3
Ntp120
Rp121
(lp122
I0
aI0
aI0
aI1
ababsg27
F5.158
sg28
(lp123
sg30
I00
sg31
g1
(g8
g3
Ntp124
Rp125
(lp126
I56
aI600000000
absg35
F19.84
sbag1
(g2
g3
Ntp127
Rp128
(dp129
g7
g1
(g8
g3
Ntp130
Rp131
(lp132
I55
aI600000000
absg12
S'WayPoint7'
p133
sg14
g1
(g15
g3
Ntp134
Rp135
(lp136
g1
(g19
g3
Ntp137
Rp138
(lp139
F-6.3
aF-1.8999999999999986
aF0.0
abag1
(g23
g3
Ntp140
Rp141
(lp142
I0
aI0
aI0
aI1
ababsg27
F0.0
sg28
(lp143
g1
(g98
g3
Ntp144
Rp145
(dp146
g102
g1
(g103
g3
Ntp147
Rp148
(dp149
g107
F55.6
sg108
F32.43
sg109
F53.0
sbsg27
F8.431
sbasg30
I01
sg31
g131
sg35
I0
sba.