(lp0
ccopy_reg
_reconstructor
p1
(cdestination
Destination
p2
c__builtin__
object
p3
Ntp4
Rp5
(dp6
S'_Destination__latest_usage'
p7
g1
(crospy.rostime
Time
p8
g3
Ntp9
Rp10
(lp11
I20
aI800000000
absS'name'
p12
S'WayPoint1'
p13
sS'pose'
p14
g1
(cgeometry_msgs.msg._Pose
Pose
p15
g3
Ntp16
Rp17
(lp18
g1
(cgeometry_msgs.msg._Point
Point
p19
g3
Ntp20
Rp21
(lp22
F-2.75
aF1.0500000000000025
aF0.0
abag1
(cgeometry_msgs.msg._Quaternion
Quaternion
p23
g3
Ntp24
Rp25
(lp26
I0
aI0
aI0
aI1
ababsS'path_len'
p27
F0.0
sS'_Destination__stats'
p28
(lp29
g1
(cdestination
Observation
p30
g3
Ntp31
Rp32
(dp33
S'idleness'
p34
g1
(cdestination
Idleness
p35
g3
Ntp36
Rp37
(dp38
S'_Idleness__true_idl'
p39
F20.8
sS'_Idleness__estim_idl'
p40
F16.4
sS'_Idleness__remaining_idl'
p41
F18.0
sbsg27
F4.264
sbasS'_Destination__available'
p42
I01
sS'_Destination__remaining_idl'
p43
g10
sS'estim_idl'
p44
I0
sbag1
(g2
g3
Ntp45
Rp46
(dp47
g7
g1
(g8
g3
Ntp48
Rp49
(lp50
I0
aI0
absg12
S'WayPoint2'
p51
sg14
g1
(g15
g3
Ntp52
Rp53
(lp54
g1
(g19
g3
Ntp55
Rp56
(lp57
F5.15
aF0.9000000000000021
aF0.0
abag1
(g23
g3
Ntp58
Rp59
(lp60
I0
aI0
aI0
aI1
ababsg27
F0.0
sg28
(lp61
sg42
I01
sg43
g49
sg44
I0
sbag1
(g2
g3
Ntp62
Rp63
(dp64
g7
g49
sg12
S'WayPoint3'
p65
sg14
g1
(g15
g3
Ntp66
Rp67
(lp68
g1
(g19
g3
Ntp69
Rp70
(lp71
F4.850000000000001
aF3.900000000000002
aF0.0
abag1
(g23
g3
Ntp72
Rp73
(lp74
I0
aI0
aI0
aI1
ababsg27
F0.0
sg28
(lp75
sg42
I01
sg43
g49
sg44
I0
sbag1
(g2
g3
Ntp76
Rp77
(dp78
g7
g49
sg12
S'WayPoint4'
p79
sg14
g1
(g15
g3
Ntp80
Rp81
(lp82
g1
(g19
g3
Ntp83
Rp84
(lp85
F1.200000000000001
aF3.1000000000000023
aF0.0
abag1
(g23
g3
Ntp86
Rp87
(lp88
I0
aI0
aI0
aI1
ababsg27
F12.546
sg28
(lp89
sg42
I00
sg43
g1
(g8
g3
Ntp90
Rp91
(lp92
I2
aI201000000
absg44
F48.25
sbag1
(g2
g3
Ntp93
Rp94
(dp95
g7
g49
sg12
S'WayPoint5'
p96
sg14
g1
(g15
g3
Ntp97
Rp98
(lp99
g1
(g19
g3
Ntp100
Rp101
(lp102
F5.800000000000001
aF-4.349999999999998
aF0.0
abag1
(g23
g3
Ntp103
Rp104
(lp105
I0
aI0
aI0
aI1
ababsg27
F13.986
sg28
(lp106
sg42
I00
sg43
g1
(g8
g3
Ntp107
Rp108
(lp109
I21
aI801000000
absg44
F53.79
sbag1
(g2
g3
Ntp110
Rp111
(dp112
g7
g49
sg12
S'WayPoint6'
p113
sg14
g1
(g15
g3
Ntp114
Rp115
(lp116
g1
(g19
g3
Ntp117
Rp118
(lp119
F-6.15
aF3.150000000000002
aF0.0
abag1
(g23
g3
Ntp120
Rp121
(lp122
I0
aI0
aI0
aI1
ababsg27
F12.375
sg28
(lp123
sg42
I00
sg43
g1
(g8
g3
Ntp124
Rp125
(lp126
I2
aI800000000
absg44
F47.6
sbag1
(g2
g3
Ntp127
Rp128
(dp129
g7
g49
sg12
S'WayPoint7'
p130
sg14
g1
(g15
g3
Ntp131
Rp132
(lp133
g1
(g19
g3
Ntp134
Rp135
(lp136
F-6.3
aF-1.8999999999999986
aF0.0
abag1
(g23
g3
Ntp137
Rp138
(lp139
I0
aI0
aI0
aI1
ababsg27
F0.0
sg28
(lp140
sg42
I01
sg43
g49
sg44
I0
sba.