(lp0
ccopy_reg
_reconstructor
p1
(cdestination
Destination
p2
c__builtin__
object
p3
Ntp4
Rp5
(dp6
S'_Destination__latest_usage'
p7
g1
(crospy.rostime
Time
p8
g3
Ntp9
Rp10
(lp11
I0
aI0
absS'name'
p12
S'WayPoint1'
p13
sS'pose'
p14
g1
(cgeometry_msgs.msg._Pose
Pose
p15
g3
Ntp16
Rp17
(lp18
g1
(cgeometry_msgs.msg._Point
Point
p19
g3
Ntp20
Rp21
(lp22
F-2.75
aF1.0500000000000025
aF0.0
abag1
(cgeometry_msgs.msg._Quaternion
Quaternion
p23
g3
Ntp24
Rp25
(lp26
I0
aI0
aI0
aI1
ababsS'path_len'
p27
F8.188
sS'_Destination__stats'
p28
(lp29
sS'_Destination__available'
p30
I00
sS'_Destination__remaining_idl'
p31
g1
(g8
g3
Ntp32
Rp33
(lp34
I2
aI600000000
absS'estim_idl'
p35
F31.49
sbag1
(g2
g3
Ntp36
Rp37
(dp38
g7
g10
sg12
S'WayPoint2'
p39
sg14
g1
(g15
g3
Ntp40
Rp41
(lp42
g1
(g19
g3
Ntp43
Rp44
(lp45
F5.15
aF0.9000000000000021
aF0.0
abag1
(g23
g3
Ntp46
Rp47
(lp48
I0
aI0
aI0
aI1
ababsg27
F0.0
sg28
(lp49
sg30
I01
sg31
g10
sg35
I0
sbag1
(g2
g3
Ntp50
Rp51
(dp52
g7
g10
sg12
S'WayPoint3'
p53
sg14
g1
(g15
g3
Ntp54
Rp55
(lp56
g1
(g19
g3
Ntp57
Rp58
(lp59
F4.850000000000001
aF3.900000000000002
aF0.0
abag1
(g23
g3
Ntp60
Rp61
(lp62
I0
aI0
aI0
aI1
ababsg27
F10.211
sg28
(lp63
sg30
I00
sg31
g1
(g8
g3
Ntp64
Rp65
(lp66
I2
aI800000000
absg35
F39.27
sbag1
(g2
g3
Ntp67
Rp68
(dp69
g7
g10
sg12
S'WayPoint4'
p70
sg14
g1
(g15
g3
Ntp71
Rp72
(lp73
g1
(g19
g3
Ntp74
Rp75
(lp76
F1.200000000000001
aF3.1000000000000023
aF0.0
abag1
(g23
g3
Ntp77
Rp78
(lp79
I0
aI0
aI0
aI1
ababsg27
F16.698
sg28
(lp80
sg30
I00
sg31
g33
sg35
F64.22
sbag1
(g2
g3
Ntp81
Rp82
(dp83
g7
g10
sg12
S'WayPoint5'
p84
sg14
g1
(g15
g3
Ntp85
Rp86
(lp87
g1
(g19
g3
Ntp88
Rp89
(lp90
F5.800000000000001
aF-4.349999999999998
aF0.0
abag1
(g23
g3
Ntp91
Rp92
(lp93
I0
aI0
aI0
aI1
ababsg27
F0.0
sg28
(lp94
sg30
I01
sg31
g10
sg35
I0
sbag1
(g2
g3
Ntp95
Rp96
(dp97
g7
g10
sg12
S'WayPoint6'
p98
sg14
g1
(g15
g3
Ntp99
Rp100
(lp101
g1
(g19
g3
Ntp102
Rp103
(lp104
F-6.15
aF3.150000000000002
aF0.0
abag1
(g23
g3
Ntp105
Rp106
(lp107
I0
aI0
aI0
aI1
ababsg27
F0.0
sg28
(lp108
sg30
I01
sg31
g10
sg35
I0
sbag1
(g2
g3
Ntp109
Rp110
(dp111
g7
g10
sg12
S'WayPoint7'
p112
sg14
g1
(g15
g3
Ntp113
Rp114
(lp115
g1
(g19
g3
Ntp116
Rp117
(lp118
F-6.3
aF-1.8999999999999986
aF0.0
abag1
(g23
g3
Ntp119
Rp120
(lp121
I0
aI0
aI0
aI1
ababsg27
F0.0
sg28
(lp122
sg30
I01
sg31
g10
sg35
I0
sba.