(lp0
ccopy_reg
_reconstructor
p1
(cdestination
Destination
p2
c__builtin__
object
p3
Ntp4
Rp5
(dp6
S'_Destination__latest_usage'
p7
g1
(crospy.rostime
Time
p8
g3
Ntp9
Rp10
(lp11
I24
aI600000000
absS'name'
p12
S'WayPoint1'
p13
sS'pose'
p14
g1
(cgeometry_msgs.msg._Pose
Pose
p15
g3
Ntp16
Rp17
(lp18
g1
(cgeometry_msgs.msg._Point
Point
p19
g3
Ntp20
Rp21
(lp22
F-2.75
aF1.0500000000000025
aF0.0
abag1
(cgeometry_msgs.msg._Quaternion
Quaternion
p23
g3
Ntp24
Rp25
(lp26
I0
aI0
aI0
aI1
ababsS'path_len'
p27
F8.685
sS'_Destination__stats'
p28
(lp29
g1
(cdestination
Observation
p30
g3
Ntp31
Rp32
(dp33
S'idleness'
p34
g1
(cdestination
Idleness
p35
g3
Ntp36
Rp37
(dp38
S'_Idleness__true_idl'
p39
F24.6
sS'_Idleness__estim_idl'
p40
F16.4
sS'_Idleness__remaining_idl'
p41
F22.0
sbsg27
F4.264
sbasS'_Destination__available'
p42
I00
sS'_Destination__remaining_idl'
p43
g1
(g8
g3
Ntp44
Rp45
(lp46
I39
aI601000000
absS'estim_idl'
p47
F33.41
sbag1
(g2
g3
Ntp48
Rp49
(dp50
g7
g1
(g8
g3
Ntp51
Rp52
(lp53
I0
aI0
absg12
S'WayPoint2'
p54
sg14
g1
(g15
g3
Ntp55
Rp56
(lp57
g1
(g19
g3
Ntp58
Rp59
(lp60
F5.15
aF0.9000000000000021
aF0.0
abag1
(g23
g3
Ntp61
Rp62
(lp63
I0
aI0
aI0
aI1
ababsg27
F0.0
sg28
(lp64
sg42
I01
sg43
g52
sg47
I0
sbag1
(g2
g3
Ntp65
Rp66
(dp67
g7
g52
sg12
S'WayPoint3'
p68
sg14
g1
(g15
g3
Ntp69
Rp70
(lp71
g1
(g19
g3
Ntp72
Rp73
(lp74
F4.850000000000001
aF3.900000000000002
aF0.0
abag1
(g23
g3
Ntp75
Rp76
(lp77
I0
aI0
aI0
aI1
ababsg27
F14.378
sg28
(lp78
sg42
I00
sg43
g1
(g8
g3
Ntp79
Rp80
(lp81
I49
aI600000000
absg47
F55.3
sbag1
(g2
g3
Ntp82
Rp83
(dp84
g7
g52
sg12
S'WayPoint4'
p85
sg14
g1
(g15
g3
Ntp86
Rp87
(lp88
g1
(g19
g3
Ntp89
Rp90
(lp91
F1.200000000000001
aF3.1000000000000023
aF0.0
abag1
(g23
g3
Ntp92
Rp93
(lp94
I0
aI0
aI0
aI1
ababsg27
F12.978
sg28
(lp95
sg42
I00
sg43
g1
(g8
g3
Ntp96
Rp97
(lp98
I25
aI600000000
absg47
F49.91
sbag1
(g2
g3
Ntp99
Rp100
(dp101
g7
g52
sg12
S'WayPoint5'
p102
sg14
g1
(g15
g3
Ntp103
Rp104
(lp105
g1
(g19
g3
Ntp106
Rp107
(lp108
F5.800000000000001
aF-4.349999999999998
aF0.0
abag1
(g23
g3
Ntp109
Rp110
(lp111
I0
aI0
aI0
aI1
ababsg27
F0.0
sg28
(lp112
sg42
I01
sg43
g52
sg47
I0
sbag1
(g2
g3
Ntp113
Rp114
(dp115
g7
g1
(g8
g3
Ntp116
Rp117
(lp118
I48
aI600000000
absg12
S'WayPoint6'
p119
sg14
g1
(g15
g3
Ntp120
Rp121
(lp122
g1
(g19
g3
Ntp123
Rp124
(lp125
F-6.15
aF3.150000000000002
aF0.0
abag1
(g23
g3
Ntp126
Rp127
(lp128
I0
aI0
aI0
aI1
ababsg27
F0.0
sg28
(lp129
g1
(g30
g3
Ntp130
Rp131
(dp132
g34
g1
(g35
g3
Ntp133
Rp134
(dp135
g39
F48.6
sg40
F47.51
sg41
F46.0
sbsg27
F12.351
sbasg42
I01
sg43
g117
sg47
I0
sbag1
(g2
g3
Ntp136
Rp137
(dp138
g7
g1
(g8
g3
Ntp139
Rp140
(lp141
I38
aI600000000
absg12
S'WayPoint7'
p142
sg14
g1
(g15
g3
Ntp143
Rp144
(lp145
g1
(g19
g3
Ntp146
Rp147
(lp148
F-6.3
aF-1.8999999999999986
aF0.0
abag1
(g23
g3
Ntp149
Rp150
(lp151
I0
aI0
aI0
aI1
ababsg27
F0.0
sg28
(lp152
g1
(g30
g3
Ntp153
Rp154
(dp155
g34
g1
(g35
g3
Ntp156
Rp157
(dp158
g39
F38.6
sg40
F32.43
sg41
F36.0
sbsg27
F8.431
sbasg42
I01
sg43
g140
sg47
I0
sba.