(lp0
ccopy_reg
_reconstructor
p1
(cdestination
Destination
p2
c__builtin__
object
p3
Ntp4
Rp5
(dp6
S'_Destination__latest_usage'
p7
g1
(crospy.rostime
Time
p8
g3
Ntp9
Rp10
(lp11
I40
aI600000000
absS'name'
p12
S'WayPoint1'
p13
sS'pose'
p14
g1
(cgeometry_msgs.msg._Pose
Pose
p15
g3
Ntp16
Rp17
(lp18
g1
(cgeometry_msgs.msg._Point
Point
p19
g3
Ntp20
Rp21
(lp22
F-2.75
aF1.0500000000000025
aF0.0
abag1
(cgeometry_msgs.msg._Quaternion
Quaternion
p23
g3
Ntp24
Rp25
(lp26
I0
aI0
aI0
aI1
ababsS'path_len'
p27
F8.184
sS'_Destination__stats'
p28
(lp29
g1
(cdestination
Observation
p30
g3
Ntp31
Rp32
(dp33
S'idleness'
p34
g1
(cdestination
Idleness
p35
g3
Ntp36
Rp37
(dp38
S'_Idleness__true_idl'
p39
F40.6
sS'_Idleness__estim_idl'
p40
F16.4
sS'_Idleness__remaining_idl'
p41
F18.0
sbsg27
F4.264
sbasS'_Destination__available'
p42
I00
sS'_Destination__remaining_idl'
p43
g1
(g8
g3
Ntp44
Rp45
(lp46
I59
aI600000000
absS'estim_idl'
p47
F31.48
sbag1
(g2
g3
Ntp48
Rp49
(dp50
g7
g1
(g8
g3
Ntp51
Rp52
(lp53
I58
aI600000000
absg12
S'WayPoint2'
p54
sg14
g1
(g15
g3
Ntp55
Rp56
(lp57
g1
(g19
g3
Ntp58
Rp59
(lp60
F5.15
aF0.9000000000000021
aF0.0
abag1
(g23
g3
Ntp61
Rp62
(lp63
I0
aI0
aI0
aI1
ababsg27
F0.0
sg28
(lp64
g1
(g30
g3
Ntp65
Rp66
(dp67
g34
g1
(g35
g3
Ntp68
Rp69
(dp70
g39
F58.6
sg40
F29.47
sg41
F29.0
sbsg27
F7.663
sbasg42
I01
sg43
g52
sg47
I0
sbag1
(g2
g3
Ntp71
Rp72
(dp73
g7
g1
(g8
g3
Ntp74
Rp75
(lp76
I0
aI0
absg12
S'WayPoint3'
p77
sg14
g1
(g15
g3
Ntp78
Rp79
(lp80
g1
(g19
g3
Ntp81
Rp82
(lp83
F4.850000000000001
aF3.900000000000002
aF0.0
abag1
(g23
g3
Ntp84
Rp85
(lp86
I0
aI0
aI0
aI1
ababsg27
F14.369
sg28
(lp87
sg42
I00
sg43
g1
(g8
g3
Ntp88
Rp89
(lp90
I2
aI600000000
absg47
F55.27
sbag1
(g2
g3
Ntp91
Rp92
(dp93
g7
g1
(g8
g3
Ntp94
Rp95
(lp96
I28
aI600000000
absg12
S'WayPoint4'
p97
sg14
g1
(g15
g3
Ntp98
Rp99
(lp100
g1
(g19
g3
Ntp101
Rp102
(lp103
F1.200000000000001
aF3.1000000000000023
aF0.0
abag1
(g23
g3
Ntp104
Rp105
(lp106
I0
aI0
aI0
aI1
ababsg27
F0.0
sg28
(lp107
g1
(g30
g3
Ntp108
Rp109
(dp110
g34
g1
(g35
g3
Ntp111
Rp112
(dp113
g39
F28.6
sg40
F29.48
sg41
F26.0
sbsg27
F7.664
sbasg42
I01
sg43
g95
sg47
I0
sbag1
(g2
g3
Ntp114
Rp115
(dp116
g7
g75
sg12
S'WayPoint5'
p117
sg14
g1
(g15
g3
Ntp118
Rp119
(lp120
g1
(g19
g3
Ntp121
Rp122
(lp123
F5.800000000000001
aF-4.349999999999998
aF0.0
abag1
(g23
g3
Ntp124
Rp125
(lp126
I0
aI0
aI0
aI1
ababsg27
F13.986
sg28
(lp127
sg42
I00
sg43
g1
(g8
g3
Ntp128
Rp129
(lp130
I41
aI600000000
absg47
F53.79
sbag1
(g2
g3
Ntp131
Rp132
(dp133
g7
g1
(g8
g3
Ntp134
Rp135
(lp136
I21
aI600000000
absg12
S'WayPoint6'
p137
sg14
g1
(g15
g3
Ntp138
Rp139
(lp140
g1
(g19
g3
Ntp141
Rp142
(lp143
F-6.15
aF3.150000000000002
aF0.0
abag1
(g23
g3
Ntp144
Rp145
(lp146
I0
aI0
aI0
aI1
ababsg27
F0.0
sg28
(lp147
g1
(g30
g3
Ntp148
Rp149
(dp150
g34
g1
(g35
g3
Ntp151
Rp152
(dp153
g39
F21.6
sg40
F16.38
sg41
F19.0
sbsg27
F4.258
sbasg42
I01
sg43
g135
sg47
I0
sbag1
(g2
g3
Ntp154
Rp155
(dp156
g7
g75
sg12
S'WayPoint7'
p157
sg14
g1
(g15
g3
Ntp158
Rp159
(lp160
g1
(g19
g3
Ntp161
Rp162
(lp163
F-6.3
aF-1.8999999999999986
aF0.0
abag1
(g23
g3
Ntp164
Rp165
(lp166
I0
aI0
aI0
aI1
ababsg27
F0.0
sg28
(lp167
sg42
I01
sg43
g75
sg47
I0
sba.