(lp0
ccopy_reg
_reconstructor
p1
(cdestination
Destination
p2
c__builtin__
object
p3
Ntp4
Rp5
(dp6
S'_Destination__latest_usage'
p7
g1
(crospy.rostime
Time
p8
g3
Ntp9
Rp10
(lp11
I0
aI0
absS'name'
p12
S'WayPoint1'
p13
sS'pose'
p14
g1
(cgeometry_msgs.msg._Pose
Pose
p15
g3
Ntp16
Rp17
(lp18
g1
(cgeometry_msgs.msg._Point
Point
p19
g3
Ntp20
Rp21
(lp22
F-2.75
aF1.0500000000000025
aF0.0
abag1
(cgeometry_msgs.msg._Quaternion
Quaternion
p23
g3
Ntp24
Rp25
(lp26
I0
aI0
aI0
aI1
ababsS'path_len'
p27
F0.0
sS'_Destination__stats'
p28
(lp29
sS'_Destination__available'
p30
I01
sS'_Destination__remaining_idl'
p31
g10
sS'estim_idl'
p32
I0
sbag1
(g2
g3
Ntp33
Rp34
(dp35
g7
g10
sg12
S'WayPoint2'
p36
sg14
g1
(g15
g3
Ntp37
Rp38
(lp39
g1
(g19
g3
Ntp40
Rp41
(lp42
F5.15
aF0.9000000000000021
aF0.0
abag1
(g23
g3
Ntp43
Rp44
(lp45
I0
aI0
aI0
aI1
ababsg27
F0.0
sg28
(lp46
sg30
I01
sg31
g10
sg32
I0
sbag1
(g2
g3
Ntp47
Rp48
(dp49
g7
g10
sg12
S'WayPoint3'
p50
sg14
g1
(g15
g3
Ntp51
Rp52
(lp53
g1
(g19
g3
Ntp54
Rp55
(lp56
F4.850000000000001
aF3.900000000000002
aF0.0
abag1
(g23
g3
Ntp57
Rp58
(lp59
I0
aI0
aI0
aI1
ababsg27
F14.369
sg28
(lp60
sg30
I00
sg31
g1
(g8
g3
Ntp61
Rp62
(lp63
I22
aI602000000
absg32
F55.27
sbag1
(g2
g3
Ntp64
Rp65
(dp66
g7
g10
sg12
S'WayPoint4'
p67
sg14
g1
(g15
g3
Ntp68
Rp69
(lp70
g1
(g19
g3
Ntp71
Rp72
(lp73
F1.200000000000001
aF3.1000000000000023
aF0.0
abag1
(g23
g3
Ntp74
Rp75
(lp76
I0
aI0
aI0
aI1
ababsg27
F16.698
sg28
(lp77
sg30
I00
sg31
g1
(g8
g3
Ntp78
Rp79
(lp80
I2
aI600000000
absg32
F64.22
sbag1
(g2
g3
Ntp81
Rp82
(dp83
g7
g10
sg12
S'WayPoint5'
p84
sg14
g1
(g15
g3
Ntp85
Rp86
(lp87
g1
(g19
g3
Ntp88
Rp89
(lp90
F5.800000000000001
aF-4.349999999999998
aF0.0
abag1
(g23
g3
Ntp91
Rp92
(lp93
I0
aI0
aI0
aI1
ababsg27
F0.0
sg28
(lp94
sg30
I01
sg31
g10
sg32
I0
sbag1
(g2
g3
Ntp95
Rp96
(dp97
g7
g1
(g8
g3
Ntp98
Rp99
(lp100
I21
aI600000000
absg12
S'WayPoint6'
p101
sg14
g1
(g15
g3
Ntp102
Rp103
(lp104
g1
(g19
g3
Ntp105
Rp106
(lp107
F-6.15
aF3.150000000000002
aF0.0
abag1
(g23
g3
Ntp108
Rp109
(lp110
I0
aI0
aI0
aI1
ababsg27
F0.0
sg28
(lp111
g1
(cdestination
Observation
p112
g3
Ntp113
Rp114
(dp115
S'idleness'
p116
g1
(cdestination
Idleness
p117
g3
Ntp118
Rp119
(dp120
S'_Idleness__true_idl'
p121
F21.6
sS'_Idleness__estim_idl'
p122
F16.38
sS'_Idleness__remaining_idl'
p123
F19.0
sbsg27
F4.258
sbasg30
I01
sg31
g99
sg32
I0
sbag1
(g2
g3
Ntp124
Rp125
(dp126
g7
g10
sg12
S'WayPoint7'
p127
sg14
g1
(g15
g3
Ntp128
Rp129
(lp130
g1
(g19
g3
Ntp131
Rp132
(lp133
F-6.3
aF-1.8999999999999986
aF0.0
abag1
(g23
g3
Ntp134
Rp135
(lp136
I0
aI0
aI0
aI1
ababsg27
F16.509
sg28
(lp137
sg30
I00
sg31
g79
sg32
F63.5
sba.