(lp0
ccopy_reg
_reconstructor
p1
(cdestination
Destination
p2
c__builtin__
object
p3
Ntp4
Rp5
(dp6
S'_Destination__latest_usage'
p7
g1
(crospy.rostime
Time
p8
g3
Ntp9
Rp10
(lp11
I0
aI0
absS'name'
p12
S'WayPoint1'
p13
sS'pose'
p14
g1
(cgeometry_msgs.msg._Pose
Pose
p15
g3
Ntp16
Rp17
(lp18
g1
(cgeometry_msgs.msg._Point
Point
p19
g3
Ntp20
Rp21
(lp22
F-6.75
aF-2.6999999999999975
aF0.0
abag1
(cgeometry_msgs.msg._Quaternion
Quaternion
p23
g3
Ntp24
Rp25
(lp26
I0
aI0
aI0
aI1
ababsS'path_len'
p27
F16.709
sS'_Destination__stats'
p28
(lp29
sS'_Destination__available'
p30
I00
sS'_Destination__remaining_idl'
p31
g1
(g8
g3
Ntp32
Rp33
(lp34
I4
aI0
absS'estim_idl'
p35
F64.27
sbag1
(g2
g3
Ntp36
Rp37
(dp38
g7
g10
sg12
S'WayPoint10'
p39
sg14
g1
(g15
g3
Ntp40
Rp41
(lp42
g1
(g19
g3
Ntp43
Rp44
(lp45
F1.8500000000000014
aF2.8500000000000023
aF0.0
abag1
(g23
g3
Ntp46
Rp47
(lp48
I0
aI0
aI0
aI1
ababsg27
F10.399
sg28
(lp49
sg30
I00
sg31
g1
(g8
g3
Ntp50
Rp51
(lp52
I40
aI1000000
absg35
F40.0
sbag1
(g2
g3
Ntp53
Rp54
(dp55
g7
g1
(g8
g3
Ntp56
Rp57
(lp58
I58
aI600000000
absg12
S'WayPoint11'
p59
sg14
g1
(g15
g3
Ntp60
Rp61
(lp62
g1
(g19
g3
Ntp63
Rp64
(lp65
F6.600000000000001
aF3.450000000000003
aF0.0
abag1
(g23
g3
Ntp66
Rp67
(lp68
I0
aI0
aI0
aI1
ababsg27
F0.0
sg28
(lp69
g1
(cdestination
Observation
p70
g3
Ntp71
Rp72
(dp73
S'idleness'
p74
g1
(cdestination
Idleness
p75
g3
Ntp76
Rp77
(dp78
S'_Idleness__true_idl'
p79
F58.6
sS'_Idleness__estim_idl'
p80
F43.59
sS'_Idleness__remaining_idl'
p81
F56.0
sbsg27
F11.334
sbasg30
I01
sg31
g57
sg35
I0
sbag1
(g2
g3
Ntp82
Rp83
(dp84
g7
g1
(g8
g3
Ntp85
Rp86
(lp87
I36
aI801000000
absg12
S'WayPoint2'
p88
sg14
g1
(g15
g3
Ntp89
Rp90
(lp91
g1
(g19
g3
Ntp92
Rp93
(lp94
F-3.1999999999999993
aF-3.349999999999998
aF0.0
abag1
(g23
g3
Ntp95
Rp96
(lp97
I0
aI0
aI0
aI1
ababsg27
F15.033
sg28
(lp98
g1
(g70
g3
Ntp99
Rp100
(dp101
g74
g1
(g75
g3
Ntp102
Rp103
(dp104
g79
F36.801
sg80
F13.01
sg81
F11.999
sbsg27
F3.382
sbasg30
I00
sg31
g1
(g8
g3
Ntp105
Rp106
(lp107
I59
aI5000000
absg35
F57.82
sbag1
(g2
g3
Ntp108
Rp109
(dp110
g7
g10
sg12
S'WayPoint3'
p111
sg14
g1
(g15
g3
Ntp112
Rp113
(lp114
g1
(g19
g3
Ntp115
Rp116
(lp117
F0.0
aF-3.349999999999998
aF0.0
abag1
(g23
g3
Ntp118
Rp119
(lp120
I0
aI0
aI0
aI1
ababsg27
F9.254
sg28
(lp121
sg30
I00
sg31
g1
(g8
g3
Ntp122
Rp123
(lp124
I49
aI200000000
absg35
F35.59
sbag1
(g2
g3
Ntp125
Rp126
(dp127
g7
g10
sg12
S'WayPoint4'
p128
sg14
g1
(g15
g3
Ntp129
Rp130
(lp131
g1
(g19
g3
Ntp132
Rp133
(lp134
F2.3500000000000014
aF-3.2499999999999982
aF0.0
abag1
(g23
g3
Ntp135
Rp136
(lp137
I0
aI0
aI0
aI1
ababsg27
F0.0
sg28
(lp138
sg30
I01
sg31
g10
sg35
I0
sbag1
(g2
g3
Ntp139
Rp140
(dp141
g7
g1
(g8
g3
Ntp142
Rp143
(lp144
I39
aI0
absg12
S'WayPoint5'
p145
sg14
g1
(g15
g3
Ntp146
Rp147
(lp148
g1
(g19
g3
Ntp149
Rp150
(lp151
F5.4
aF-3.4499999999999975
aF0.0
abag1
(g23
g3
Ntp152
Rp153
(lp154
I0
aI0
aI0
aI1
ababsg27
F0.0
sg28
(lp155
g1
(g70
g3
Ntp156
Rp157
(dp158
g74
g1
(g75
g3
Ntp159
Rp160
(dp161
g79
F39.0
sg80
F16.84
sg81
F16.997
sbsg27
F4.38
sbasg30
I01
sg31
g143
sg35
I0
sbag1
(g2
g3
Ntp162
Rp163
(dp164
g7
g1
(g8
g3
Ntp165
Rp166
(lp167
I21
aI0
absg12
S'WayPoint6'
p168
sg14
g1
(g15
g3
Ntp169
Rp170
(lp171
g1
(g19
g3
Ntp172
Rp173
(lp174
F4.850000000000001
aF-0.7499999999999982
aF0.0
abag1
(g23
g3
Ntp175
Rp176
(lp177
I0
aI0
aI0
aI1
ababsg27
F0.0
sg28
(lp178
g1
(g70
g3
Ntp179
Rp180
(dp181
g74
g1
(g75
g3
Ntp182
Rp183
(dp184
g79
F21.0
sg80
F16.46
sg81
F17.0
sbsg27
F4.278
sbasg30
I01
sg31
g166
sg35
I0
sbag1
(g2
g3
Ntp185
Rp186
(dp187
g7
g10
sg12
S'WayPoint7'
p188
sg14
g1
(g15
g3
Ntp189
Rp190
(lp191
g1
(g19
g3
Ntp192
Rp193
(lp194
F1.0500000000000007
aF-0.6999999999999975
aF0.0
abag1
(g23
g3
Ntp195
Rp196
(lp197
I0
aI0
aI0
aI1
ababsg27
F7.441
sg28
(lp198
sg30
I00
sg31
g1
(g8
g3
Ntp199
Rp200
(lp201
I37
aI802000000
absg35
F28.62
sbag1
(g2
g3
Ntp202
Rp203
(dp204
g7
g1
(g8
g3
Ntp205
Rp206
(lp207
I24
aI401000000
absg12
S'WayPoint8'
p208
sg14
g1
(g15
g3
Ntp209
Rp210
(lp211
g1
(g19
g3
Ntp212
Rp213
(lp214
F-3.05
aF-0.5999999999999979
aF0.0
abag1
(g23
g3
Ntp215
Rp216
(lp217
I0
aI0
aI0
aI1
ababsg27
F0.0
sg28
(lp218
g1
(g70
g3
Ntp219
Rp220
(dp221
g74
g1
(g75
g3
Ntp222
Rp223
(dp224
g79
F24.401
sg80
F14.6
sg81
F22.001
sbsg27
F3.797
sbasg30
I01
sg31
g206
sg35
I0
sbag1
(g2
g3
Ntp225
Rp226
(dp227
g7
g1
(g8
g3
Ntp228
Rp229
(lp230
I48
aI800000000
absg12
S'WayPoint9'
p231
sg14
g1
(g15
g3
Ntp232
Rp233
(lp234
g1
(g19
g3
Ntp235
Rp236
(lp237
F-1.5
aF2.700000000000003
aF0.0
abag1
(g23
g3
Ntp238
Rp239
(lp240
I0
aI0
aI0
aI1
ababsg27
F0.0
sg28
(lp241
g1
(g70
g3
Ntp242
Rp243
(dp244
g74
g1
(g75
g3
Ntp245
Rp246
(dp247
g79
F48.8
sg80
F35.57
sg81
F44.993
sbsg27
F9.248
sbasg30
I01
sg31
g229
sg35
I0
sba.