(lp0
ccopy_reg
_reconstructor
p1
(cdestination
Destination
p2
c__builtin__
object
p3
Ntp4
Rp5
(dp6
S'_Destination__latest_usage'
p7
g1
(crospy.rostime
Time
p8
g3
Ntp9
Rp10
(lp11
I0
aI0
absS'name'
p12
S'WayPoint1'
p13
sS'pose'
p14
g1
(cgeometry_msgs.msg._Pose
Pose
p15
g3
Ntp16
Rp17
(lp18
g1
(cgeometry_msgs.msg._Point
Point
p19
g3
Ntp20
Rp21
(lp22
F-6.75
aF-2.6999999999999975
aF0.0
abag1
(cgeometry_msgs.msg._Quaternion
Quaternion
p23
g3
Ntp24
Rp25
(lp26
I0
aI0
aI0
aI1
ababsS'path_len'
p27
F0.0
sS'_Destination__stats'
p28
(lp29
sS'_Destination__available'
p30
I01
sS'_Destination__remaining_idl'
p31
g10
sS'estim_idl'
p32
I0
sbag1
(g2
g3
Ntp33
Rp34
(dp35
g7
g1
(g8
g3
Ntp36
Rp37
(lp38
I52
aI801000000
absg12
S'WayPoint10'
p39
sg14
g1
(g15
g3
Ntp40
Rp41
(lp42
g1
(g19
g3
Ntp43
Rp44
(lp45
F1.8500000000000014
aF2.8500000000000023
aF0.0
abag1
(g23
g3
Ntp46
Rp47
(lp48
I0
aI0
aI0
aI1
ababsg27
F0.0
sg28
(lp49
g1
(cdestination
Observation
p50
g3
Ntp51
Rp52
(dp53
S'idleness'
p54
g1
(cdestination
Idleness
p55
g3
Ntp56
Rp57
(dp58
S'_Idleness__true_idl'
p59
F52.801
sS'_Idleness__estim_idl'
p60
F39.63
sS'_Idleness__remaining_idl'
p61
F49.801
sbsg27
F10.305
sbasg30
I01
sg31
g37
sg32
I0
sbag1
(g2
g3
Ntp62
Rp63
(dp64
g7
g1
(g8
g3
Ntp65
Rp66
(lp67
I53
aI3000000
absg12
S'WayPoint11'
p68
sg14
g1
(g15
g3
Ntp69
Rp70
(lp71
g1
(g19
g3
Ntp72
Rp73
(lp74
F6.600000000000001
aF3.450000000000003
aF0.0
abag1
(g23
g3
Ntp75
Rp76
(lp77
I0
aI0
aI0
aI1
ababsg27
F0.0
sg28
(lp78
g1
(g50
g3
Ntp79
Rp80
(dp81
g54
g1
(g55
g3
Ntp82
Rp83
(dp84
g59
F53.003
sg60
F21.94
sg61
F22.003
sbsg27
F5.705
sbasg30
I01
sg31
g66
sg32
I0
sbag1
(g2
g3
Ntp85
Rp86
(dp87
g7
g10
sg12
S'WayPoint2'
p88
sg14
g1
(g15
g3
Ntp89
Rp90
(lp91
g1
(g19
g3
Ntp92
Rp93
(lp94
F-3.1999999999999993
aF-3.349999999999998
aF0.0
abag1
(g23
g3
Ntp95
Rp96
(lp97
I0
aI0
aI0
aI1
ababsg27
F0.0
sg28
(lp98
sg30
I01
sg31
g10
sg32
I0
sbag1
(g2
g3
Ntp99
Rp100
(dp101
g7
g10
sg12
S'WayPoint3'
p102
sg14
g1
(g15
g3
Ntp103
Rp104
(lp105
g1
(g19
g3
Ntp106
Rp107
(lp108
F0.0
aF-3.349999999999998
aF0.0
abag1
(g23
g3
Ntp109
Rp110
(lp111
I0
aI0
aI0
aI1
ababsg27
F9.194
sg28
(lp112
sg30
I00
sg31
g1
(g8
g3
Ntp113
Rp114
(lp115
I2
aI600000000
absg32
F35.36
sbag1
(g2
g3
Ntp116
Rp117
(dp118
g7
g10
sg12
S'WayPoint4'
p119
sg14
g1
(g15
g3
Ntp120
Rp121
(lp122
g1
(g19
g3
Ntp123
Rp124
(lp125
F2.3500000000000014
aF-3.2499999999999982
aF0.0
abag1
(g23
g3
Ntp126
Rp127
(lp128
I0
aI0
aI0
aI1
ababsg27
F9.163
sg28
(lp129
sg30
I00
sg31
g1
(g8
g3
Ntp130
Rp131
(lp132
I54
aI1000000
absg32
F35.24
sbag1
(g2
g3
Ntp133
Rp134
(dp135
g7
g10
sg12
S'WayPoint5'
p136
sg14
g1
(g15
g3
Ntp137
Rp138
(lp139
g1
(g19
g3
Ntp140
Rp141
(lp142
F5.4
aF-3.4499999999999975
aF0.0
abag1
(g23
g3
Ntp143
Rp144
(lp145
I0
aI0
aI0
aI1
ababsg27
F10.38
sg28
(lp146
sg30
I00
sg31
g114
sg32
F39.92
sbag1
(g2
g3
Ntp147
Rp148
(dp149
g7
g1
(g8
g3
Ntp150
Rp151
(lp152
I30
aI1000000
absg12
S'WayPoint6'
p153
sg14
g1
(g15
g3
Ntp154
Rp155
(lp156
g1
(g19
g3
Ntp157
Rp158
(lp159
F4.850000000000001
aF-0.7499999999999982
aF0.0
abag1
(g23
g3
Ntp160
Rp161
(lp162
I0
aI0
aI0
aI1
ababsg27
F0.0
sg28
(lp163
g1
(g50
g3
Ntp164
Rp165
(dp166
g54
g1
(g55
g3
Ntp167
Rp168
(dp169
g59
F30.001
sg60
F26.46
sg61
F27.001
sbsg27
F6.88
sbasg30
I01
sg31
g151
sg32
I0
sbag1
(g2
g3
Ntp170
Rp171
(dp172
g7
g10
sg12
S'WayPoint7'
p173
sg14
g1
(g15
g3
Ntp174
Rp175
(lp176
g1
(g19
g3
Ntp177
Rp178
(lp179
F1.0500000000000007
aF-0.6999999999999975
aF0.0
abag1
(g23
g3
Ntp180
Rp181
(lp182
I0
aI0
aI0
aI1
ababsg27
F0.0
sg28
(lp183
sg30
I01
sg31
g10
sg32
I0
sbag1
(g2
g3
Ntp184
Rp185
(dp186
g7
g10
sg12
S'WayPoint8'
p187
sg14
g1
(g15
g3
Ntp188
Rp189
(lp190
g1
(g19
g3
Ntp191
Rp192
(lp193
F-3.05
aF-0.5999999999999979
aF0.0
abag1
(g23
g3
Ntp194
Rp195
(lp196
I0
aI0
aI0
aI1
ababsg27
F7.227
sg28
(lp197
sg30
I00
sg31
g131
sg32
F27.8
sbag1
(g2
g3
Ntp198
Rp199
(dp200
g7
g10
sg12
S'WayPoint9'
p201
sg14
g1
(g15
g3
Ntp202
Rp203
(lp204
g1
(g19
g3
Ntp205
Rp206
(lp207
F-1.5
aF2.700000000000003
aF0.0
abag1
(g23
g3
Ntp208
Rp209
(lp210
I0
aI0
aI0
aI1
ababsg27
F14.475
sg28
(lp211
sg30
I00
sg31
g114
sg32
F55.67
sba.