(lp0
ccopy_reg
_reconstructor
p1
(cdestination
Destination
p2
c__builtin__
object
p3
Ntp4
Rp5
(dp6
S'_Destination__latest_usage'
p7
g1
(crospy.rostime
Time
p8
g3
Ntp9
Rp10
(lp11
I0
aI0
absS'name'
p12
S'WayPoint1'
p13
sS'pose'
p14
g1
(cgeometry_msgs.msg._Pose
Pose
p15
g3
Ntp16
Rp17
(lp18
g1
(cgeometry_msgs.msg._Point
Point
p19
g3
Ntp20
Rp21
(lp22
F-6.75
aF-2.6999999999999975
aF0.0
abag1
(cgeometry_msgs.msg._Quaternion
Quaternion
p23
g3
Ntp24
Rp25
(lp26
I0
aI0
aI0
aI1
ababsS'path_len'
p27
F8.558
sS'_Destination__stats'
p28
(lp29
sS'_Destination__available'
p30
I00
sS'_Destination__remaining_idl'
p31
g1
(g8
g3
Ntp32
Rp33
(lp34
I4
aI2000000
absS'estim_idl'
p35
F32.92
sbag1
(g2
g3
Ntp36
Rp37
(dp38
g7
g10
sg12
S'WayPoint10'
p39
sg14
g1
(g15
g3
Ntp40
Rp41
(lp42
g1
(g19
g3
Ntp43
Rp44
(lp45
F1.8500000000000014
aF2.8500000000000023
aF0.0
abag1
(g23
g3
Ntp46
Rp47
(lp48
I0
aI0
aI0
aI1
ababsg27
F10.4
sg28
(lp49
sg30
I00
sg31
g1
(g8
g3
Ntp50
Rp51
(lp52
I3
aI800000000
absg35
F40.0
sbag1
(g2
g3
Ntp53
Rp54
(dp55
g7
g10
sg12
S'WayPoint11'
p56
sg14
g1
(g15
g3
Ntp57
Rp58
(lp59
g1
(g19
g3
Ntp60
Rp61
(lp62
F6.600000000000001
aF3.450000000000003
aF0.0
abag1
(g23
g3
Ntp63
Rp64
(lp65
I0
aI0
aI0
aI1
ababsg27
F0.0
sg28
(lp66
sg30
I01
sg31
g10
sg35
I0
sbag1
(g2
g3
Ntp67
Rp68
(dp69
g7
g1
(g8
g3
Ntp70
Rp71
(lp72
I28
aI800000000
absg12
S'WayPoint2'
p73
sg14
g1
(g15
g3
Ntp74
Rp75
(lp76
g1
(g19
g3
Ntp77
Rp78
(lp79
F-3.1999999999999993
aF-3.349999999999998
aF0.0
abag1
(g23
g3
Ntp80
Rp81
(lp82
I0
aI0
aI0
aI1
ababsg27
F13.869
sg28
(lp83
g1
(cdestination
Observation
p84
g3
Ntp85
Rp86
(dp87
S'idleness'
p88
g1
(cdestination
Idleness
p89
g3
Ntp90
Rp91
(dp92
S'_Idleness__true_idl'
p93
F28.8
sS'_Idleness__estim_idl'
p94
F29.12
sS'_Idleness__remaining_idl'
p95
F25.0
sbsg27
F7.571
sbasg30
I00
sg31
g1
(g8
g3
Ntp96
Rp97
(lp98
I55
aI800000000
absg35
F53.34
sbag1
(g2
g3
Ntp99
Rp100
(dp101
g7
g10
sg12
S'WayPoint3'
p102
sg14
g1
(g15
g3
Ntp103
Rp104
(lp105
g1
(g19
g3
Ntp106
Rp107
(lp108
F0.0
aF-3.349999999999998
aF0.0
abag1
(g23
g3
Ntp109
Rp110
(lp111
I0
aI0
aI0
aI1
ababsg27
F0.0
sg28
(lp112
sg30
I01
sg31
g10
sg35
I0
sbag1
(g2
g3
Ntp113
Rp114
(dp115
g7
g10
sg12
S'WayPoint4'
p116
sg14
g1
(g15
g3
Ntp117
Rp118
(lp119
g1
(g19
g3
Ntp120
Rp121
(lp122
F2.3500000000000014
aF-3.2499999999999982
aF0.0
abag1
(g23
g3
Ntp123
Rp124
(lp125
I0
aI0
aI0
aI1
ababsg27
F9.176
sg28
(lp126
sg30
I00
sg31
g51
sg35
F35.29
sbag1
(g2
g3
Ntp127
Rp128
(dp129
g7
g1
(g8
g3
Ntp130
Rp131
(lp132
I54
aI800000000
absg12
S'WayPoint5'
p133
sg14
g1
(g15
g3
Ntp134
Rp135
(lp136
g1
(g19
g3
Ntp137
Rp138
(lp139
F5.4
aF-3.4499999999999975
aF0.0
abag1
(g23
g3
Ntp140
Rp141
(lp142
I0
aI0
aI0
aI1
ababsg27
F0.0
sg28
(lp143
g1
(g84
g3
Ntp144
Rp145
(dp146
g88
g1
(g89
g3
Ntp147
Rp148
(dp149
g93
F54.8
sg94
F16.67
sg95
F17.0
sbsg27
F4.335
sbasg30
I01
sg31
g131
sg35
I0
sbag1
(g2
g3
Ntp150
Rp151
(dp152
g7
g1
(g8
g3
Ntp153
Rp154
(lp155
I36
aI800000000
absg12
S'WayPoint6'
p156
sg14
g1
(g15
g3
Ntp157
Rp158
(lp159
g1
(g19
g3
Ntp160
Rp161
(lp162
F4.850000000000001
aF-0.7499999999999982
aF0.0
abag1
(g23
g3
Ntp163
Rp164
(lp165
I0
aI0
aI0
aI1
ababsg27
F0.0
sg28
(lp166
g1
(g84
g3
Ntp167
Rp168
(dp169
g88
g1
(g89
g3
Ntp170
Rp171
(dp172
g93
F36.8
sg94
F15.73
sg95
F16.0
sbsg27
F4.089
sbasg30
I01
sg31
g154
sg35
I0
sbag1
(g2
g3
Ntp173
Rp174
(dp175
g7
g1
(g8
g3
Ntp176
Rp177
(lp178
I20
aI400000000
absg12
S'WayPoint7'
p179
sg14
g1
(g15
g3
Ntp180
Rp181
(lp182
g1
(g19
g3
Ntp183
Rp184
(lp185
F1.0500000000000007
aF-0.6999999999999975
aF0.0
abag1
(g23
g3
Ntp186
Rp187
(lp188
I0
aI0
aI0
aI1
ababsg27
F0.0
sg28
(lp189
g1
(g84
g3
Ntp190
Rp191
(dp192
g88
g1
(g89
g3
Ntp193
Rp194
(dp195
g93
F20.4
sg94
F15.13
sg95
F17.998
sbsg27
F3.933
sbasg30
I01
sg31
g177
sg35
I0
sbag1
(g2
g3
Ntp196
Rp197
(dp198
g7
g10
sg12
S'WayPoint8'
p199
sg14
g1
(g15
g3
Ntp200
Rp201
(lp202
g1
(g19
g3
Ntp203
Rp204
(lp205
F-3.05
aF-0.5999999999999979
aF0.0
abag1
(g23
g3
Ntp206
Rp207
(lp208
I0
aI0
aI0
aI1
ababsg27
F0.0
sg28
(lp209
sg30
I01
sg31
g10
sg35
I0
sbag1
(g2
g3
Ntp210
Rp211
(dp212
g7
g10
sg12
S'WayPoint9'
p213
sg14
g1
(g15
g3
Ntp214
Rp215
(lp216
g1
(g19
g3
Ntp217
Rp218
(lp219
F-1.5
aF2.700000000000003
aF0.0
abag1
(g23
g3
Ntp220
Rp221
(lp222
I0
aI0
aI0
aI1
ababsg27
F7.152
sg28
(lp223
sg30
I00
sg31
g1
(g8
g3
Ntp224
Rp225
(lp226
I29
aI800000000
absg35
F27.51
sba.