(lp0
ccopy_reg
_reconstructor
p1
(cdestination
Destination
p2
c__builtin__
object
p3
Ntp4
Rp5
(dp6
S'_Destination__latest_usage'
p7
g1
(crospy.rostime
Time
p8
g3
Ntp9
Rp10
(lp11
I0
aI0
absS'name'
p12
S'WayPoint1'
p13
sS'pose'
p14
g1
(cgeometry_msgs.msg._Pose
Pose
p15
g3
Ntp16
Rp17
(lp18
g1
(cgeometry_msgs.msg._Point
Point
p19
g3
Ntp20
Rp21
(lp22
F-6.75
aF-2.6999999999999975
aF0.0
abag1
(cgeometry_msgs.msg._Quaternion
Quaternion
p23
g3
Ntp24
Rp25
(lp26
I0
aI0
aI0
aI1
ababsS'path_len'
p27
F0.0
sS'_Destination__stats'
p28
(lp29
sS'_Destination__available'
p30
I01
sS'_Destination__remaining_idl'
p31
g10
sS'estim_idl'
p32
I0
sbag1
(g2
g3
Ntp33
Rp34
(dp35
g7
g10
sg12
S'WayPoint10'
p36
sg14
g1
(g15
g3
Ntp37
Rp38
(lp39
g1
(g19
g3
Ntp40
Rp41
(lp42
F1.8500000000000014
aF2.8500000000000023
aF0.0
abag1
(g23
g3
Ntp43
Rp44
(lp45
I0
aI0
aI0
aI1
ababsg27
F11.292
sg28
(lp46
sg30
I00
sg31
g1
(g8
g3
Ntp47
Rp48
(lp49
I2
aI600000000
absg32
F43.43
sbag1
(g2
g3
Ntp50
Rp51
(dp52
g7
g10
sg12
S'WayPoint11'
p53
sg14
g1
(g15
g3
Ntp54
Rp55
(lp56
g1
(g19
g3
Ntp57
Rp58
(lp59
F6.600000000000001
aF3.450000000000003
aF0.0
abag1
(g23
g3
Ntp60
Rp61
(lp62
I0
aI0
aI0
aI1
ababsg27
F16.931
sg28
(lp63
sg30
I00
sg31
g48
sg32
F65.12
sbag1
(g2
g3
Ntp64
Rp65
(dp66
g7
g1
(g8
g3
Ntp67
Rp68
(lp69
I52
aI600000000
absg12
S'WayPoint2'
p70
sg14
g1
(g15
g3
Ntp71
Rp72
(lp73
g1
(g19
g3
Ntp74
Rp75
(lp76
F-3.1999999999999993
aF-3.349999999999998
aF0.0
abag1
(g23
g3
Ntp77
Rp78
(lp79
I0
aI0
aI0
aI1
ababsg27
F0.0
sg28
(lp80
g1
(cdestination
Observation
p81
g3
Ntp82
Rp83
(dp84
S'idleness'
p85
g1
(cdestination
Idleness
p86
g3
Ntp87
Rp88
(dp89
S'_Idleness__true_idl'
p90
F52.6
sS'_Idleness__estim_idl'
p91
F40.15
sS'_Idleness__remaining_idl'
p92
F50.0
sbsg27
F10.439
sbasg30
I01
sg31
g68
sg32
I0
sbag1
(g2
g3
Ntp93
Rp94
(dp95
g7
g10
sg12
S'WayPoint3'
p96
sg14
g1
(g15
g3
Ntp97
Rp98
(lp99
g1
(g19
g3
Ntp100
Rp101
(lp102
F0.0
aF-3.349999999999998
aF0.0
abag1
(g23
g3
Ntp103
Rp104
(lp105
I0
aI0
aI0
aI1
ababsg27
F9.599
sg28
(lp106
sg30
I00
sg31
g1
(g8
g3
Ntp107
Rp108
(lp109
I2
aI802000000
absg32
F36.92
sbag1
(g2
g3
Ntp110
Rp111
(dp112
g7
g10
sg12
S'WayPoint4'
p113
sg14
g1
(g15
g3
Ntp114
Rp115
(lp116
g1
(g19
g3
Ntp117
Rp118
(lp119
F2.3500000000000014
aF-3.2499999999999982
aF0.0
abag1
(g23
g3
Ntp120
Rp121
(lp122
I0
aI0
aI0
aI1
ababsg27
F10.684
sg28
(lp123
sg30
I00
sg31
g1
(g8
g3
Ntp124
Rp125
(lp126
I3
aI0
absg32
F41.09
sbag1
(g2
g3
Ntp127
Rp128
(dp129
g7
g10
sg12
S'WayPoint5'
p130
sg14
g1
(g15
g3
Ntp131
Rp132
(lp133
g1
(g19
g3
Ntp134
Rp135
(lp136
F5.4
aF-3.4499999999999975
aF0.0
abag1
(g23
g3
Ntp137
Rp138
(lp139
I0
aI0
aI0
aI1
ababsg27
F14.182
sg28
(lp140
sg30
I00
sg31
g1
(g8
g3
Ntp141
Rp142
(lp143
I53
aI201000000
absg32
F54.55
sbag1
(g2
g3
Ntp144
Rp145
(dp146
g7
g10
sg12
S'WayPoint6'
p147
sg14
g1
(g15
g3
Ntp148
Rp149
(lp150
g1
(g19
g3
Ntp151
Rp152
(lp153
F4.850000000000001
aF-0.7499999999999982
aF0.0
abag1
(g23
g3
Ntp154
Rp155
(lp156
I0
aI0
aI0
aI1
ababsg27
F0.0
sg28
(lp157
sg30
I01
sg31
g10
sg32
I0
sbag1
(g2
g3
Ntp158
Rp159
(dp160
g7
g10
sg12
S'WayPoint7'
p161
sg14
g1
(g15
g3
Ntp162
Rp163
(lp164
g1
(g19
g3
Ntp165
Rp166
(lp167
F1.0500000000000007
aF-0.6999999999999975
aF0.0
abag1
(g23
g3
Ntp168
Rp169
(lp170
I0
aI0
aI0
aI1
ababsg27
F0.0
sg28
(lp171
sg30
I01
sg31
g10
sg32
I0
sbag1
(g2
g3
Ntp172
Rp173
(dp174
g7
g10
sg12
S'WayPoint8'
p175
sg14
g1
(g15
g3
Ntp176
Rp177
(lp178
g1
(g19
g3
Ntp179
Rp180
(lp181
F-3.05
aF-0.5999999999999979
aF0.0
abag1
(g23
g3
Ntp182
Rp183
(lp184
I0
aI0
aI0
aI1
ababsg27
F0.0
sg28
(lp185
sg30
I01
sg31
g10
sg32
I0
sbag1
(g2
g3
Ntp186
Rp187
(dp188
g7
g10
sg12
S'WayPoint9'
p189
sg14
g1
(g15
g3
Ntp190
Rp191
(lp192
g1
(g19
g3
Ntp193
Rp194
(lp195
F-1.5
aF2.700000000000003
aF0.0
abag1
(g23
g3
Ntp196
Rp197
(lp198
I0
aI0
aI0
aI1
ababsg27
F0.0
sg28
(lp199
sg30
I01
sg31
g10
sg32
I0
sba.