(lp0
ccopy_reg
_reconstructor
p1
(cdestination
Destination
p2
c__builtin__
object
p3
Ntp4
Rp5
(dp6
S'_Destination__latest_usage'
p7
g1
(crospy.rostime
Time
p8
g3
Ntp9
Rp10
(lp11
I0
aI0
absS'name'
p12
S'WayPoint1'
p13
sS'pose'
p14
g1
(cgeometry_msgs.msg._Pose
Pose
p15
g3
Ntp16
Rp17
(lp18
g1
(cgeometry_msgs.msg._Point
Point
p19
g3
Ntp20
Rp21
(lp22
F-1.549999999999999
aF-0.8999999999999986
aF0.0
abag1
(cgeometry_msgs.msg._Quaternion
Quaternion
p23
g3
Ntp24
Rp25
(lp26
I0
aI0
aI0
aI1
ababsS'_Destination__stats'
p27
(lp28
sS'_Destination__available'
p29
I00
sS'_Destination__remaining_idl'
p30
g1
(g8
g3
Ntp31
Rp32
(lp33
I4
aI0
absS'estim_idl'
p34
F20.84
sbag1
(g2
g3
Ntp35
Rp36
(dp37
g7
g1
(g8
g3
Ntp38
Rp39
(lp40
I37
aI600000000
absg12
S'WayPoint10'
p41
sg14
g1
(g15
g3
Ntp42
Rp43
(lp44
g1
(g19
g3
Ntp45
Rp46
(lp47
F-2.75
aF4.0500000000000025
aF0.0
abag1
(g23
g3
Ntp48
Rp49
(lp50
I0
aI0
aI0
aI1
ababsg27
(lp51
g1
(cdestination
Idleness
p52
g3
Ntp53
Rp54
(dp55
S'_Idleness__true_idl'
p56
F37.6
sS'_Idleness__estim_idl'
p57
F21.17
sS'_Idleness__remaining_idl'
p58
F22.0
sbasg29
I01
sg30
g39
sg34
I0
sbag1
(g2
g3
Ntp59
Rp60
(dp61
g7
g10
sg12
S'WayPoint2'
p62
sg14
g1
(g15
g3
Ntp63
Rp64
(lp65
g1
(g19
g3
Ntp66
Rp67
(lp68
F-5.25
aF-0.04999999999999716
aF0.0
abag1
(g23
g3
Ntp69
Rp70
(lp71
I0
aI0
aI0
aI1
ababsg27
(lp72
sg29
I00
sg30
g32
sg34
F47.55
sbag1
(g2
g3
Ntp73
Rp74
(dp75
g7
g10
sg12
S'WayPoint3'
p76
sg14
g1
(g15
g3
Ntp77
Rp78
(lp79
g1
(g19
g3
Ntp80
Rp81
(lp82
F-2.6499999999999995
aF-3.8999999999999986
aF0.0
abag1
(g23
g3
Ntp83
Rp84
(lp85
I0
aI0
aI0
aI1
ababsg27
(lp86
sg29
I00
sg30
g1
(g8
g3
Ntp87
Rp88
(lp89
I38
aI600000000
absg34
F44.41
sbag1
(g2
g3
Ntp90
Rp91
(dp92
g7
g1
(g8
g3
Ntp93
Rp94
(lp95
I40
aI0
absg12
S'WayPoint4'
p96
sg14
g1
(g15
g3
Ntp97
Rp98
(lp99
g1
(g19
g3
Ntp100
Rp101
(lp102
F3.700000000000001
aF-1.3499999999999979
aF0.0
abag1
(g23
g3
Ntp103
Rp104
(lp105
I0
aI0
aI0
aI1
ababsg27
(lp106
g1
(g52
g3
Ntp107
Rp108
(dp109
g56
F40.0
sg57
F36.08
sg58
F36.0
sbasg29
I00
sg30
g1
(g8
g3
Ntp110
Rp111
(lp112
I42
aI601000000
absg34
F33.0
sbag1
(g2
g3
Ntp113
Rp114
(dp115
g7
g1
(g8
g3
Ntp116
Rp117
(lp118
I44
aI7000000
absg12
S'WayPoint5'
p119
sg14
g1
(g15
g3
Ntp120
Rp121
(lp122
g1
(g19
g3
Ntp123
Rp124
(lp125
F7.650000000000002
aF-1.4999999999999982
aF0.0
abag1
(g23
g3
Ntp126
Rp127
(lp128
I0
aI0
aI0
aI1
ababsg27
(lp129
g1
(g52
g3
Ntp130
Rp131
(dp132
g56
F44.007
sg57
F35.95
sg58
F40.007
sbasg29
I01
sg30
g117
sg34
I0
sbag1
(g2
g3
Ntp133
Rp134
(dp135
g7
g10
sg12
S'WayPoint6'
p136
sg14
g1
(g15
g3
Ntp137
Rp138
(lp139
g1
(g19
g3
Ntp140
Rp141
(lp142
F4.350000000000001
aF1.6000000000000023
aF0.0
abag1
(g23
g3
Ntp143
Rp144
(lp145
I0
aI0
aI0
aI1
ababsg27
(lp146
sg29
I00
sg30
g1
(g8
g3
Ntp147
Rp148
(lp149
I3
aI800000000
absg34
F48.3
sbag1
(g2
g3
Ntp150
Rp151
(dp152
g7
g1
(g8
g3
Ntp153
Rp154
(lp155
I15
aI0
absg12
S'WayPoint7'
p156
sg14
g1
(g15
g3
Ntp157
Rp158
(lp159
g1
(g19
g3
Ntp160
Rp161
(lp162
F1.700000000000001
aF1.6500000000000021
aF0.0
abag1
(g23
g3
Ntp163
Rp164
(lp165
I0
aI0
aI0
aI1
ababsg27
(lp166
g1
(g52
g3
Ntp167
Rp168
(dp169
g56
F15.0
sg57
F11.39
sg58
F11.0
sbasg29
I00
sg30
g1
(g8
g3
Ntp170
Rp171
(lp172
I40
aI600000000
absg34
F23.0
sbag1
(g2
g3
Ntp173
Rp174
(dp175
g7
g1
(g8
g3
Ntp176
Rp177
(lp178
I42
aI0
absg12
S'WayPoint8'
p179
sg14
g1
(g15
g3
Ntp180
Rp181
(lp182
g1
(g19
g3
Ntp183
Rp184
(lp185
F0.9000000000000004
aF4.350000000000002
aF0.0
abag1
(g23
g3
Ntp186
Rp187
(lp188
I0
aI0
aI0
aI1
ababsg27
(lp189
g1
(g52
g3
Ntp190
Rp191
(dp192
g56
F42.0
sg57
F20.54
sg58
F38.0
sbasg29
I00
sg30
g1
(g8
g3
Ntp193
Rp194
(lp195
I44
aI600000000
absg34
F47.97
sbag1
(g2
g3
Ntp196
Rp197
(dp198
g7
g10
sg12
S'WayPoint9'
p199
sg14
g1
(g15
g3
Ntp200
Rp201
(lp202
g1
(g19
g3
Ntp203
Rp204
(lp205
F5.0
aF4.600000000000002
aF0.0
abag1
(g23
g3
Ntp206
Rp207
(lp208
I0
aI0
aI0
aI1
ababsg27
(lp209
sg29
I00
sg30
g1
(g8
g3
Ntp210
Rp211
(lp212
I2
aI600000000
absg34
F38.52
sba.