(lp0
ccopy_reg
_reconstructor
p1
(cdestination
Destination
p2
c__builtin__
object
p3
Ntp4
Rp5
(dp6
S'_Destination__latest_usage'
p7
g1
(crospy.rostime
Time
p8
g3
Ntp9
Rp10
(lp11
I0
aI0
absS'name'
p12
S'WayPoint1'
p13
sS'pose'
p14
g1
(cgeometry_msgs.msg._Pose
Pose
p15
g3
Ntp16
Rp17
(lp18
g1
(cgeometry_msgs.msg._Point
Point
p19
g3
Ntp20
Rp21
(lp22
F-1.549999999999999
aF-0.8999999999999986
aF0.0
abag1
(cgeometry_msgs.msg._Quaternion
Quaternion
p23
g3
Ntp24
Rp25
(lp26
I0
aI0
aI0
aI1
ababsS'_Destination__stats'
p27
(lp28
sS'_Destination__available'
p29
I00
sS'_Destination__remaining_idl'
p30
g1
(g8
g3
Ntp31
Rp32
(lp33
I3
aI0
absS'estim_idl'
p34
F35.28
sbag1
(g2
g3
Ntp35
Rp36
(dp37
g7
g10
sg12
S'WayPoint10'
p38
sg14
g1
(g15
g3
Ntp39
Rp40
(lp41
g1
(g19
g3
Ntp42
Rp43
(lp44
F-2.75
aF4.0500000000000025
aF0.0
abag1
(g23
g3
Ntp45
Rp46
(lp47
I0
aI0
aI0
aI1
ababsg27
(lp48
sg29
I00
sg30
g1
(g8
g3
Ntp49
Rp50
(lp51
I47
aI601000000
absg34
F38.72
sbag1
(g2
g3
Ntp52
Rp53
(dp54
g7
g10
sg12
S'WayPoint2'
p55
sg14
g1
(g15
g3
Ntp56
Rp57
(lp58
g1
(g19
g3
Ntp59
Rp60
(lp61
F-5.25
aF-0.04999999999999716
aF0.0
abag1
(g23
g3
Ntp62
Rp63
(lp64
I0
aI0
aI0
aI1
ababsg27
(lp65
sg29
I00
sg30
g1
(g8
g3
Ntp66
Rp67
(lp68
I35
aI200000000
absg34
F28.65
sbag1
(g2
g3
Ntp69
Rp70
(dp71
g7
g10
sg12
S'WayPoint3'
p72
sg14
g1
(g15
g3
Ntp73
Rp74
(lp75
g1
(g19
g3
Ntp76
Rp77
(lp78
F-2.6499999999999995
aF-3.8999999999999986
aF0.0
abag1
(g23
g3
Ntp79
Rp80
(lp81
I0
aI0
aI0
aI1
ababsg27
(lp82
sg29
I00
sg30
g1
(g8
g3
Ntp83
Rp84
(lp85
I2
aI600000000
absg34
F28.32
sbag1
(g2
g3
Ntp86
Rp87
(dp88
g7
g1
(g8
g3
Ntp89
Rp90
(lp91
I57
aI200000000
absg12
S'WayPoint4'
p92
sg14
g1
(g15
g3
Ntp93
Rp94
(lp95
g1
(g19
g3
Ntp96
Rp97
(lp98
F3.700000000000001
aF-1.3499999999999979
aF0.0
abag1
(g23
g3
Ntp99
Rp100
(lp101
I0
aI0
aI0
aI1
ababsg27
(lp102
g1
(cdestination
Idleness
p103
g3
Ntp104
Rp105
(dp106
S'_Idleness__true_idl'
p107
F57.2
sS'_Idleness__estim_idl'
p108
F32.86
sS'_Idleness__remaining_idl'
p109
F54.4
sbasg29
I01
sg30
g90
sg34
I0
sbag1
(g2
g3
Ntp110
Rp111
(dp112
g7
g10
sg12
S'WayPoint5'
p113
sg14
g1
(g15
g3
Ntp114
Rp115
(lp116
g1
(g19
g3
Ntp117
Rp118
(lp119
F7.650000000000002
aF-1.4999999999999982
aF0.0
abag1
(g23
g3
Ntp120
Rp121
(lp122
I0
aI0
aI0
aI1
ababsg27
(lp123
sg29
I00
sg30
g1
(g8
g3
Ntp124
Rp125
(lp126
I3
aI200000000
absg34
F47.74
sbag1
(g2
g3
Ntp127
Rp128
(dp129
g7
g10
sg12
S'WayPoint6'
p130
sg14
g1
(g15
g3
Ntp131
Rp132
(lp133
g1
(g19
g3
Ntp134
Rp135
(lp136
F4.350000000000001
aF1.6000000000000023
aF0.0
abag1
(g23
g3
Ntp137
Rp138
(lp139
I0
aI0
aI0
aI1
ababsg27
(lp140
sg29
I00
sg30
g32
sg34
F48.3
sbag1
(g2
g3
Ntp141
Rp142
(dp143
g7
g1
(g8
g3
Ntp144
Rp145
(lp146
I50
aI600000000
absg12
S'WayPoint7'
p147
sg14
g1
(g15
g3
Ntp148
Rp149
(lp150
g1
(g19
g3
Ntp151
Rp152
(lp153
F1.700000000000001
aF1.6500000000000021
aF0.0
abag1
(g23
g3
Ntp154
Rp155
(lp156
I0
aI0
aI0
aI1
ababsg27
(lp157
g1
(g103
g3
Ntp158
Rp159
(dp160
g107
F34.2
sg108
F28.55
sg109
F31.0
sbag1
(g103
g3
Ntp161
Rp162
(dp163
g107
F16.4
sg108
F11.42
sg109
F11.0
sbasg29
I00
sg30
g1
(g8
g3
Ntp164
Rp165
(lp166
I58
aI204000000
absg34
F23.0
sbag1
(g2
g3
Ntp167
Rp168
(dp169
g7
g1
(g8
g3
Ntp170
Rp171
(lp172
I38
aI601000000
absg12
S'WayPoint8'
p173
sg14
g1
(g15
g3
Ntp174
Rp175
(lp176
g1
(g19
g3
Ntp177
Rp178
(lp179
F0.9000000000000004
aF4.350000000000002
aF0.0
abag1
(g23
g3
Ntp180
Rp181
(lp182
I0
aI0
aI0
aI1
ababsg27
(lp183
g1
(g103
g3
Ntp184
Rp185
(dp186
g107
F38.601
sg108
F26.0
sg109
F36.001
sbasg29
I00
sg30
g1
(g8
g3
Ntp187
Rp188
(lp189
I51
aI600000000
absg34
F11.43
sbag1
(g2
g3
Ntp190
Rp191
(dp192
g7
g1
(g8
g3
Ntp193
Rp194
(lp195
I47
aI0
absg12
S'WayPoint9'
p196
sg14
g1
(g15
g3
Ntp197
Rp198
(lp199
g1
(g19
g3
Ntp200
Rp201
(lp202
F5.0
aF4.600000000000002
aF0.0
abag1
(g23
g3
Ntp203
Rp204
(lp205
I0
aI0
aI0
aI1
ababsg27
(lp206
g1
(g103
g3
Ntp207
Rp208
(dp209
g107
F47.0
sg108
F35.02
sg109
F44.4
sbasg29
I01
sg30
g194
sg34
I0
sba.