(lp0
ccopy_reg
_reconstructor
p1
(cdestination
Destination
p2
c__builtin__
object
p3
Ntp4
Rp5
(dp6
S'_Destination__latest_usage'
p7
g1
(crospy.rostime
Time
p8
g3
Ntp9
Rp10
(lp11
I39
aI601000000
absS'name'
p12
S'WayPoint1'
p13
sS'pose'
p14
g1
(cgeometry_msgs.msg._Pose
Pose
p15
g3
Ntp16
Rp17
(lp18
g1
(cgeometry_msgs.msg._Point
Point
p19
g3
Ntp20
Rp21
(lp22
F-1.549999999999999
aF-0.8999999999999986
aF0.0
abag1
(cgeometry_msgs.msg._Quaternion
Quaternion
p23
g3
Ntp24
Rp25
(lp26
I0
aI0
aI0
aI1
ababsS'path_len'
p27
F0.0
sS'_Destination__stats'
p28
(lp29
g1
(cdestination
Observation
p30
g3
Ntp31
Rp32
(dp33
S'idleness'
p34
g1
(cdestination
Idleness
p35
g3
Ntp36
Rp37
(dp38
S'_Idleness__true_idl'
p39
F39.601
sS'_Idleness__estim_idl'
p40
F33.53
sS'_Idleness__remaining_idl'
p41
F37.001
sbsg27
F8.719
sbasS'_Destination__available'
p42
I01
sS'_Destination__remaining_idl'
p43
g10
sS'estim_idl'
p44
I0
sbag1
(g2
g3
Ntp45
Rp46
(dp47
g7
g1
(g8
g3
Ntp48
Rp49
(lp50
I0
aI0
absg12
S'WayPoint10'
p51
sg14
g1
(g15
g3
Ntp52
Rp53
(lp54
g1
(g19
g3
Ntp55
Rp56
(lp57
F-2.75
aF4.0500000000000025
aF0.0
abag1
(g23
g3
Ntp58
Rp59
(lp60
I0
aI0
aI0
aI1
ababsg27
F10.079
sg28
(lp61
sg42
I00
sg43
g1
(g8
g3
Ntp62
Rp63
(lp64
I3
aI200000000
absg44
F38.76
sbag1
(g2
g3
Ntp65
Rp66
(dp67
g7
g49
sg12
S'WayPoint2'
p68
sg14
g1
(g15
g3
Ntp69
Rp70
(lp71
g1
(g19
g3
Ntp72
Rp73
(lp74
F-5.25
aF-0.04999999999999716
aF0.0
abag1
(g23
g3
Ntp75
Rp76
(lp77
I0
aI0
aI0
aI1
ababsg27
F7.664
sg28
(lp78
sg42
I00
sg43
g1
(g8
g3
Ntp79
Rp80
(lp81
I30
aI0
absg44
F29.48
sbag1
(g2
g3
Ntp82
Rp83
(dp84
g7
g1
(g8
g3
Ntp85
Rp86
(lp87
I52
aI0
absg12
S'WayPoint3'
p88
sg14
g1
(g15
g3
Ntp89
Rp90
(lp91
g1
(g19
g3
Ntp92
Rp93
(lp94
F-2.6499999999999995
aF-3.8999999999999986
aF0.0
abag1
(g23
g3
Ntp95
Rp96
(lp97
I0
aI0
aI0
aI1
ababsg27
F0.0
sg28
(lp98
g1
(g30
g3
Ntp99
Rp100
(dp101
g34
g1
(g35
g3
Ntp102
Rp103
(dp104
g39
F52.0
sg40
F12.63
sg41
F11.999
sbsg27
F3.283
sbasg42
I01
sg43
g86
sg44
I0
sbag1
(g2
g3
Ntp105
Rp106
(dp107
g7
g49
sg12
S'WayPoint4'
p108
sg14
g1
(g15
g3
Ntp109
Rp110
(lp111
g1
(g19
g3
Ntp112
Rp113
(lp114
F3.700000000000001
aF-1.3499999999999979
aF0.0
abag1
(g23
g3
Ntp115
Rp116
(lp117
I0
aI0
aI0
aI1
ababsg27
F7.348
sg28
(lp118
sg42
I00
sg43
g1
(g8
g3
Ntp119
Rp120
(lp121
I53
aI0
absg44
F28.26
sbag1
(g2
g3
Ntp122
Rp123
(dp124
g7
g49
sg12
S'WayPoint5'
p125
sg14
g1
(g15
g3
Ntp126
Rp127
(lp128
g1
(g19
g3
Ntp129
Rp130
(lp131
F7.650000000000002
aF-1.4999999999999982
aF0.0
abag1
(g23
g3
Ntp132
Rp133
(lp134
I0
aI0
aI0
aI1
ababsg27
F0.0
sg28
(lp135
sg42
I01
sg43
g49
sg44
I0
sbag1
(g2
g3
Ntp136
Rp137
(dp138
g7
g1
(g8
g3
Ntp139
Rp140
(lp141
I29
aI602000000
absg12
S'WayPoint6'
p142
sg14
g1
(g15
g3
Ntp143
Rp144
(lp145
g1
(g19
g3
Ntp146
Rp147
(lp148
F4.350000000000001
aF1.6000000000000023
aF0.0
abag1
(g23
g3
Ntp149
Rp150
(lp151
I0
aI0
aI0
aI1
ababsg27
F0.0
sg28
(lp152
g1
(g30
g3
Ntp153
Rp154
(dp155
g34
g1
(g35
g3
Ntp156
Rp157
(dp158
g39
F29.602
sg40
F26.29
sg41
F27.002
sbsg27
F6.835
sbasg42
I01
sg43
g140
sg44
I0
sbag1
(g2
g3
Ntp159
Rp160
(dp161
g7
g49
sg12
S'WayPoint7'
p162
sg14
g1
(g15
g3
Ntp163
Rp164
(lp165
g1
(g19
g3
Ntp166
Rp167
(lp168
F1.700000000000001
aF1.6500000000000021
aF0.0
abag1
(g23
g3
Ntp169
Rp170
(lp171
I0
aI0
aI0
aI1
ababsg27
F0.0
sg28
(lp172
sg42
I01
sg43
g49
sg44
I0
sbag1
(g2
g3
Ntp173
Rp174
(dp175
g7
g49
sg12
S'WayPoint8'
p176
sg14
g1
(g15
g3
Ntp177
Rp178
(lp179
g1
(g19
g3
Ntp180
Rp181
(lp182
F0.9000000000000004
aF4.350000000000002
aF0.0
abag1
(g23
g3
Ntp183
Rp184
(lp185
I0
aI0
aI0
aI1
ababsg27
F0.0
sg28
(lp186
sg42
I01
sg43
g49
sg44
I0
sbag1
(g2
g3
Ntp187
Rp188
(dp189
g7
g49
sg12
S'WayPoint9'
p190
sg14
g1
(g15
g3
Ntp191
Rp192
(lp193
g1
(g19
g3
Ntp194
Rp195
(lp196
F5.0
aF4.600000000000002
aF0.0
abag1
(g23
g3
Ntp197
Rp198
(lp199
I0
aI0
aI0
aI1
ababsg27
F0.0
sg28
(lp200
sg42
I01
sg43
g49
sg44
I0
sba.