(lp0
ccopy_reg
_reconstructor
p1
(cdestination
Destination
p2
c__builtin__
object
p3
Ntp4
Rp5
(dp6
S'_Destination__latest_usage'
p7
g1
(crospy.rostime
Time
p8
g3
Ntp9
Rp10
(lp11
I43
aI600000000
absS'name'
p12
S'WayPoint1'
p13
sS'pose'
p14
g1
(cgeometry_msgs.msg._Pose
Pose
p15
g3
Ntp16
Rp17
(lp18
g1
(cgeometry_msgs.msg._Point
Point
p19
g3
Ntp20
Rp21
(lp22
F-1.549999999999999
aF-0.8999999999999986
aF0.0
abag1
(cgeometry_msgs.msg._Quaternion
Quaternion
p23
g3
Ntp24
Rp25
(lp26
I0
aI0
aI0
aI1
ababsS'path_len'
p27
F0.0
sS'_Destination__stats'
p28
(lp29
g1
(cdestination
Observation
p30
g3
Ntp31
Rp32
(dp33
S'idleness'
p34
g1
(cdestination
Idleness
p35
g3
Ntp36
Rp37
(dp38
S'_Idleness__true_idl'
p39
F43.6
sS'_Idleness__estim_idl'
p40
F26.14
sS'_Idleness__remaining_idl'
p41
F25.999
sbsg27
F6.798
sbasS'_Destination__available'
p42
I01
sS'_Destination__remaining_idl'
p43
g10
sS'estim_idl'
p44
I0
sbag1
(g2
g3
Ntp45
Rp46
(dp47
g7
g1
(g8
g3
Ntp48
Rp49
(lp50
I0
aI0
absg12
S'WayPoint10'
p51
sg14
g1
(g15
g3
Ntp52
Rp53
(lp54
g1
(g19
g3
Ntp55
Rp56
(lp57
F-2.75
aF4.0500000000000025
aF0.0
abag1
(g23
g3
Ntp58
Rp59
(lp60
I0
aI0
aI0
aI1
ababsg27
F6.756
sg28
(lp61
sg42
I00
sg43
g1
(g8
g3
Ntp62
Rp63
(lp64
I33
aI1000000
absg44
F25.99
sbag1
(g2
g3
Ntp65
Rp66
(dp67
g7
g49
sg12
S'WayPoint2'
p68
sg14
g1
(g15
g3
Ntp69
Rp70
(lp71
g1
(g19
g3
Ntp72
Rp73
(lp74
F-5.25
aF-0.04999999999999716
aF0.0
abag1
(g23
g3
Ntp75
Rp76
(lp77
I0
aI0
aI0
aI1
ababsg27
F4.16
sg28
(lp78
sg42
I00
sg43
g1
(g8
g3
Ntp79
Rp80
(lp81
I44
aI600000000
absg44
F16.0
sbag1
(g2
g3
Ntp82
Rp83
(dp84
g7
g49
sg12
S'WayPoint3'
p85
sg14
g1
(g15
g3
Ntp86
Rp87
(lp88
g1
(g19
g3
Ntp89
Rp90
(lp91
F-2.6499999999999995
aF-3.8999999999999986
aF0.0
abag1
(g23
g3
Ntp92
Rp93
(lp94
I0
aI0
aI0
aI1
ababsg27
F11.301
sg28
(lp95
sg42
I00
sg43
g1
(g8
g3
Ntp96
Rp97
(lp98
I42
aI605000000
absg44
F43.46
sbag1
(g2
g3
Ntp99
Rp100
(dp101
g7
g49
sg12
S'WayPoint4'
p102
sg14
g1
(g15
g3
Ntp103
Rp104
(lp105
g1
(g19
g3
Ntp106
Rp107
(lp108
F3.700000000000001
aF-1.3499999999999979
aF0.0
abag1
(g23
g3
Ntp109
Rp110
(lp111
I0
aI0
aI0
aI1
ababsg27
F0.0
sg28
(lp112
sg42
I01
sg43
g49
sg44
I0
sbag1
(g2
g3
Ntp113
Rp114
(dp115
g7
g1
(g8
g3
Ntp116
Rp117
(lp118
I41
aI605000000
absg12
S'WayPoint5'
p119
sg14
g1
(g15
g3
Ntp120
Rp121
(lp122
g1
(g19
g3
Ntp123
Rp124
(lp125
F7.650000000000002
aF-1.4999999999999982
aF0.0
abag1
(g23
g3
Ntp126
Rp127
(lp128
I0
aI0
aI0
aI1
ababsg27
F0.0
sg28
(lp129
g1
(g30
g3
Ntp130
Rp131
(dp132
g34
g1
(g35
g3
Ntp133
Rp134
(dp135
g39
F41.605
sg40
F35.95
sg41
F39.005
sbsg27
F9.346
sbasg42
I01
sg43
g117
sg44
I0
sbag1
(g2
g3
Ntp136
Rp137
(dp138
g7
g1
(g8
g3
Ntp139
Rp140
(lp141
I16
aI601000000
absg12
S'WayPoint6'
p142
sg14
g1
(g15
g3
Ntp143
Rp144
(lp145
g1
(g19
g3
Ntp146
Rp147
(lp148
F4.350000000000001
aF1.6000000000000023
aF0.0
abag1
(g23
g3
Ntp149
Rp150
(lp151
I0
aI0
aI0
aI1
ababsg27
F0.0
sg28
(lp152
g1
(g30
g3
Ntp153
Rp154
(dp155
g34
g1
(g35
g3
Ntp156
Rp157
(dp158
g39
F16.601
sg40
F18.38
sg41
F14.001
sbsg27
F4.779
sbasg42
I01
sg43
g140
sg44
I0
sbag1
(g2
g3
Ntp159
Rp160
(dp161
g7
g49
sg12
S'WayPoint7'
p162
sg14
g1
(g15
g3
Ntp163
Rp164
(lp165
g1
(g19
g3
Ntp166
Rp167
(lp168
F1.700000000000001
aF1.6500000000000021
aF0.0
abag1
(g23
g3
Ntp169
Rp170
(lp171
I0
aI0
aI0
aI1
ababsg27
F0.0
sg28
(lp172
sg42
I01
sg43
g49
sg44
I0
sbag1
(g2
g3
Ntp173
Rp174
(dp175
g7
g1
(g8
g3
Ntp176
Rp177
(lp178
I32
aI600000000
absg12
S'WayPoint8'
p179
sg14
g1
(g15
g3
Ntp180
Rp181
(lp182
g1
(g19
g3
Ntp183
Rp184
(lp185
F0.9000000000000004
aF4.350000000000002
aF0.0
abag1
(g23
g3
Ntp186
Rp187
(lp188
I0
aI0
aI0
aI1
ababsg27
F0.0
sg28
(lp189
g1
(g30
g3
Ntp190
Rp191
(dp192
g34
g1
(g35
g3
Ntp193
Rp194
(dp195
g39
F32.6
sg40
F26.0
sg41
F30.0
sbsg27
F6.761
sbasg42
I01
sg43
g177
sg44
I0
sbag1
(g2
g3
Ntp196
Rp197
(dp198
g7
g49
sg12
S'WayPoint9'
p199
sg14
g1
(g15
g3
Ntp200
Rp201
(lp202
g1
(g19
g3
Ntp203
Rp204
(lp205
F5.0
aF4.600000000000002
aF0.0
abag1
(g23
g3
Ntp206
Rp207
(lp208
I0
aI0
aI0
aI1
ababsg27
F0.0
sg28
(lp209
sg42
I01
sg43
g49
sg44
I0
sba.