(lp0
ccopy_reg
_reconstructor
p1
(cdestination
Destination
p2
c__builtin__
object
p3
Ntp4
Rp5
(dp6
S'_Destination__latest_usage'
p7
g1
(crospy.rostime
Time
p8
g3
Ntp9
Rp10
(lp11
I0
aI0
absS'name'
p12
S'WayPoint1'
p13
sS'pose'
p14
g1
(cgeometry_msgs.msg._Pose
Pose
p15
g3
Ntp16
Rp17
(lp18
g1
(cgeometry_msgs.msg._Point
Point
p19
g3
Ntp20
Rp21
(lp22
F-2.75
aF1.0500000000000025
aF0.0
abag1
(cgeometry_msgs.msg._Quaternion
Quaternion
p23
g3
Ntp24
Rp25
(lp26
I0
aI0
aI0
aI1
ababsS'path_len'
p27
F8.475
sS'_Destination__stats'
p28
(lp29
sS'_Destination__available'
p30
I00
sS'_Destination__remaining_idl'
p31
g1
(g8
g3
Ntp32
Rp33
(lp34
I3
aI200000000
absS'estim_idl'
p35
F32.6
sbag1
(g2
g3
Ntp36
Rp37
(dp38
g7
g10
sg12
S'WayPoint2'
p39
sg14
g1
(g15
g3
Ntp40
Rp41
(lp42
g1
(g19
g3
Ntp43
Rp44
(lp45
F5.15
aF0.9000000000000021
aF0.0
abag1
(g23
g3
Ntp46
Rp47
(lp48
I0
aI0
aI0
aI1
ababsg27
F8.198
sg28
(lp49
sg30
I00
sg31
g33
sg35
F31.53
sbag1
(g2
g3
Ntp50
Rp51
(dp52
g7
g10
sg12
S'WayPoint3'
p53
sg14
g1
(g15
g3
Ntp54
Rp55
(lp56
g1
(g19
g3
Ntp57
Rp58
(lp59
F4.850000000000001
aF3.900000000000002
aF0.0
abag1
(g23
g3
Ntp60
Rp61
(lp62
I0
aI0
aI0
aI1
ababsg27
F14.369
sg28
(lp63
sg30
I00
sg31
g1
(g8
g3
Ntp64
Rp65
(lp66
I2
aI601000000
absg35
F55.27
sbag1
(g2
g3
Ntp67
Rp68
(dp69
g7
g1
(g8
g3
Ntp70
Rp71
(lp72
I26
aI800000000
absg12
S'WayPoint4'
p73
sg14
g1
(g15
g3
Ntp74
Rp75
(lp76
g1
(g19
g3
Ntp77
Rp78
(lp79
F1.200000000000001
aF3.1000000000000023
aF0.0
abag1
(g23
g3
Ntp80
Rp81
(lp82
I0
aI0
aI0
aI1
ababsg27
F13.492
sg28
(lp83
g1
(cdestination
Observation
p84
g3
Ntp85
Rp86
(dp87
S'idleness'
p88
g1
(cdestination
Idleness
p89
g3
Ntp90
Rp91
(dp92
S'_Idleness__true_idl'
p93
F26.8
sS'_Idleness__estim_idl'
p94
F18.69
sS'_Idleness__remaining_idl'
p95
F24.0
sbsg27
F4.86
sbasg30
I00
sg31
g1
(g8
g3
Ntp96
Rp97
(lp98
I27
aI200000000
absg35
F51.89
sbag1
(g2
g3
Ntp99
Rp100
(dp101
g7
g10
sg12
S'WayPoint5'
p102
sg14
g1
(g15
g3
Ntp103
Rp104
(lp105
g1
(g19
g3
Ntp106
Rp107
(lp108
F5.800000000000001
aF-4.349999999999998
aF0.0
abag1
(g23
g3
Ntp109
Rp110
(lp111
I0
aI0
aI0
aI1
ababsg27
F13.457
sg28
(lp112
sg30
I00
sg31
g1
(g8
g3
Ntp113
Rp114
(lp115
I2
aI800000000
absg35
F51.76
sbag1
(g2
g3
Ntp116
Rp117
(dp118
g7
g10
sg12
S'WayPoint6'
p119
sg14
g1
(g15
g3
Ntp120
Rp121
(lp122
g1
(g19
g3
Ntp123
Rp124
(lp125
F-6.15
aF3.150000000000002
aF0.0
abag1
(g23
g3
Ntp126
Rp127
(lp128
I0
aI0
aI0
aI1
ababsg27
F12.365
sg28
(lp129
sg30
I00
sg31
g65
sg35
F47.56
sbag1
(g2
g3
Ntp130
Rp131
(dp132
g7
g1
(g8
g3
Ntp133
Rp134
(lp135
I41
aI601000000
absg12
S'WayPoint7'
p136
sg14
g1
(g15
g3
Ntp137
Rp138
(lp139
g1
(g19
g3
Ntp140
Rp141
(lp142
F-6.3
aF-1.8999999999999986
aF0.0
abag1
(g23
g3
Ntp143
Rp144
(lp145
I0
aI0
aI0
aI1
ababsg27
F20.881
sg28
(lp146
g1
(g84
g3
Ntp147
Rp148
(dp149
g88
g1
(g89
g3
Ntp150
Rp151
(dp152
g93
F41.601
sg94
F32.43
sg95
F39.0
sbsg27
F8.431
sbasg30
I00
sg31
g1
(g8
g3
Ntp153
Rp154
(lp155
I42
aI201000000
absg35
F80.31
sba.