(lp0
ccopy_reg
_reconstructor
p1
(cdestination
Destination
p2
c__builtin__
object
p3
Ntp4
Rp5
(dp6
S'_Destination__latest_usage'
p7
g1
(crospy.rostime
Time
p8
g3
Ntp9
Rp10
(lp11
I0
aI0
absS'name'
p12
S'WayPoint1'
p13
sS'pose'
p14
g1
(cgeometry_msgs.msg._Pose
Pose
p15
g3
Ntp16
Rp17
(lp18
g1
(cgeometry_msgs.msg._Point
Point
p19
g3
Ntp20
Rp21
(lp22
F-2.75
aF1.0500000000000025
aF0.0
abag1
(cgeometry_msgs.msg._Quaternion
Quaternion
p23
g3
Ntp24
Rp25
(lp26
I0
aI0
aI0
aI1
ababsS'path_len'
p27
F10.217
sS'_Destination__stats'
p28
(lp29
sS'_Destination__available'
p30
I00
sS'_Destination__remaining_idl'
p31
g1
(g8
g3
Ntp32
Rp33
(lp34
I3
aI201000000
absS'estim_idl'
p35
F39.3
sbag1
(g2
g3
Ntp36
Rp37
(dp38
g7
g1
(g8
g3
Ntp39
Rp40
(lp41
I50
aI400000000
absg12
S'WayPoint2'
p42
sg14
g1
(g15
g3
Ntp43
Rp44
(lp45
g1
(g19
g3
Ntp46
Rp47
(lp48
F5.15
aF0.9000000000000021
aF0.0
abag1
(g23
g3
Ntp49
Rp50
(lp51
I0
aI0
aI0
aI1
ababsg27
F16.558
sg28
(lp52
g1
(cdestination
Observation
p53
g3
Ntp54
Rp55
(dp56
S'idleness'
p57
g1
(cdestination
Idleness
p58
g3
Ntp59
Rp60
(dp61
S'_Idleness__true_idl'
p62
F21.802
sS'_Idleness__estim_idl'
p63
F23.29
sS'_Idleness__remaining_idl'
p64
F19.002
sbsg27
F6.056
sbag1
(g53
g3
Ntp65
Rp66
(dp67
g57
g1
(g58
g3
Ntp68
Rp69
(dp70
g62
F28.598
sg63
F29.47
sg64
F27.999
sbsg27
F7.662
sbasg30
I00
sg31
g1
(g8
g3
Ntp71
Rp72
(lp73
I50
aI600000000
absg35
F63.68
sbag1
(g2
g3
Ntp74
Rp75
(dp76
g7
g10
sg12
S'WayPoint3'
p77
sg14
g1
(g15
g3
Ntp78
Rp79
(lp80
g1
(g19
g3
Ntp81
Rp82
(lp83
F4.850000000000001
aF3.900000000000002
aF0.0
abag1
(g23
g3
Ntp84
Rp85
(lp86
I0
aI0
aI0
aI1
ababsg27
F10.211
sg28
(lp87
sg30
I00
sg31
g1
(g8
g3
Ntp88
Rp89
(lp90
I2
aI800000000
absg35
F39.27
sbag1
(g2
g3
Ntp91
Rp92
(dp93
g7
g1
(g8
g3
Ntp94
Rp95
(lp96
I31
aI601000000
absg12
S'WayPoint4'
p97
sg14
g1
(g15
g3
Ntp98
Rp99
(lp100
g1
(g19
g3
Ntp101
Rp102
(lp103
F1.200000000000001
aF3.1000000000000023
aF0.0
abag1
(g23
g3
Ntp104
Rp105
(lp106
I0
aI0
aI0
aI1
ababsg27
F7.668
sg28
(lp107
g1
(g53
g3
Ntp108
Rp109
(dp110
g57
g1
(g58
g3
Ntp111
Rp112
(dp113
g62
F31.601
sg63
F29.48
sg64
F29.001
sbsg27
F7.664
sbasg30
I00
sg31
g1
(g8
g3
Ntp114
Rp115
(lp116
I32
aI201000000
absg35
F29.49
sbag1
(g2
g3
Ntp117
Rp118
(dp119
g7
g10
sg12
S'WayPoint5'
p120
sg14
g1
(g15
g3
Ntp121
Rp122
(lp123
g1
(g19
g3
Ntp124
Rp125
(lp126
F5.800000000000001
aF-4.349999999999998
aF0.0
abag1
(g23
g3
Ntp127
Rp128
(lp129
I0
aI0
aI0
aI1
ababsg27
F13.986
sg28
(lp130
sg30
I00
sg31
g1
(g8
g3
Ntp131
Rp132
(lp133
I2
aI600000000
absg35
F53.79
sbag1
(g2
g3
Ntp134
Rp135
(dp136
g7
g1
(g8
g3
Ntp137
Rp138
(lp139
I51
aI201000000
absg12
S'WayPoint6'
p140
sg14
g1
(g15
g3
Ntp141
Rp142
(lp143
g1
(g19
g3
Ntp144
Rp145
(lp146
F-6.15
aF3.150000000000002
aF0.0
abag1
(g23
g3
Ntp147
Rp148
(lp149
I0
aI0
aI0
aI1
ababsg27
F13.53
sg28
(lp150
g1
(g53
g3
Ntp151
Rp152
(dp153
g57
g1
(g58
g3
Ntp154
Rp155
(dp156
g62
F51.201
sg63
F19.9
sg64
F48.401
sbsg27
F5.173
sbasg30
I00
sg31
g1
(g8
g3
Ntp157
Rp158
(lp159
I51
aI400000000
absg35
F52.04
sbag1
(g2
g3
Ntp160
Rp161
(dp162
g7
g1
(g8
g3
Ntp163
Rp164
(lp165
I37
aI600000000
absg12
S'WayPoint7'
p166
sg14
g1
(g15
g3
Ntp167
Rp168
(lp169
g1
(g19
g3
Ntp170
Rp171
(lp172
F-6.3
aF-1.8999999999999986
aF0.0
abag1
(g23
g3
Ntp173
Rp174
(lp175
I0
aI0
aI0
aI1
ababsg27
F20.902
sg28
(lp176
g1
(g53
g3
Ntp177
Rp178
(dp179
g57
g1
(g58
g3
Ntp180
Rp181
(dp182
g62
F37.6
sg63
F19.79
sg64
F35.0
sbsg27
F5.146
sbasg30
I00
sg31
g1
(g8
g3
Ntp183
Rp184
(lp185
I38
aI200000000
absg35
F80.39
sba.