(lp0
ccopy_reg
_reconstructor
p1
(cdestination
Destination
p2
c__builtin__
object
p3
Ntp4
Rp5
(dp6
S'_Destination__latest_usage'
p7
g1
(crospy.rostime
Time
p8
g3
Ntp9
Rp10
(lp11
I33
aI600000000
absS'name'
p12
S'WayPoint1'
p13
sS'pose'
p14
g1
(cgeometry_msgs.msg._Pose
Pose
p15
g3
Ntp16
Rp17
(lp18
g1
(cgeometry_msgs.msg._Point
Point
p19
g3
Ntp20
Rp21
(lp22
F-2.75
aF1.0500000000000025
aF0.0
abag1
(cgeometry_msgs.msg._Quaternion
Quaternion
p23
g3
Ntp24
Rp25
(lp26
I0
aI0
aI0
aI1
ababsS'path_len'
p27
F10.225
sS'_Destination__stats'
p28
(lp29
g1
(cdestination
Observation
p30
g3
Ntp31
Rp32
(dp33
S'idleness'
p34
g1
(cdestination
Idleness
p35
g3
Ntp36
Rp37
(dp38
S'_Idleness__true_idl'
p39
F33.6
sS'_Idleness__estim_idl'
p40
F31.57
sS'_Idleness__remaining_idl'
p41
F31.0
sbsg27
F8.208
sbasS'_Destination__available'
p42
I00
sS'_Destination__remaining_idl'
p43
g1
(g8
g3
Ntp44
Rp45
(lp46
I34
aI200000000
absS'estim_idl'
p47
F39.33
sbag1
(g2
g3
Ntp48
Rp49
(dp50
g7
g1
(g8
g3
Ntp51
Rp52
(lp53
I0
aI0
absg12
S'WayPoint2'
p54
sg14
g1
(g15
g3
Ntp55
Rp56
(lp57
g1
(g19
g3
Ntp58
Rp59
(lp60
F5.15
aF0.9000000000000021
aF0.0
abag1
(g23
g3
Ntp61
Rp62
(lp63
I0
aI0
aI0
aI1
ababsg27
F16.601
sg28
(lp64
sg42
I00
sg43
g1
(g8
g3
Ntp65
Rp66
(lp67
I2
aI800000000
absg47
F63.85
sbag1
(g2
g3
Ntp68
Rp69
(dp70
g7
g52
sg12
S'WayPoint3'
p71
sg14
g1
(g15
g3
Ntp72
Rp73
(lp74
g1
(g19
g3
Ntp75
Rp76
(lp77
F4.850000000000001
aF3.900000000000002
aF0.0
abag1
(g23
g3
Ntp78
Rp79
(lp80
I0
aI0
aI0
aI1
ababsg27
F10.211
sg28
(lp81
sg42
I00
sg43
g1
(g8
g3
Ntp82
Rp83
(lp84
I2
aI600000000
absg47
F39.27
sbag1
(g2
g3
Ntp85
Rp86
(dp87
g7
g52
sg12
S'WayPoint4'
p88
sg14
g1
(g15
g3
Ntp89
Rp90
(lp91
g1
(g19
g3
Ntp92
Rp93
(lp94
F1.200000000000001
aF3.1000000000000023
aF0.0
abag1
(g23
g3
Ntp95
Rp96
(lp97
I0
aI0
aI0
aI1
ababsg27
F12.546
sg28
(lp98
sg42
I00
sg43
g1
(g8
g3
Ntp99
Rp100
(lp101
I3
aI200000000
absg47
F48.25
sbag1
(g2
g3
Ntp102
Rp103
(dp104
g7
g52
sg12
S'WayPoint5'
p105
sg14
g1
(g15
g3
Ntp106
Rp107
(lp108
g1
(g19
g3
Ntp109
Rp110
(lp111
F5.800000000000001
aF-4.349999999999998
aF0.0
abag1
(g23
g3
Ntp112
Rp113
(lp114
I0
aI0
aI0
aI1
ababsg27
F18.142
sg28
(lp115
sg42
I00
sg43
g83
sg47
F69.78
sbag1
(g2
g3
Ntp116
Rp117
(dp118
g7
g52
sg12
S'WayPoint6'
p119
sg14
g1
(g15
g3
Ntp120
Rp121
(lp122
g1
(g19
g3
Ntp123
Rp124
(lp125
F-6.15
aF3.150000000000002
aF0.0
abag1
(g23
g3
Ntp126
Rp127
(lp128
I0
aI0
aI0
aI1
ababsg27
F18.162
sg28
(lp129
sg42
I00
sg43
g100
sg47
F69.86
sbag1
(g2
g3
Ntp130
Rp131
(dp132
g7
g52
sg12
S'WayPoint7'
p133
sg14
g1
(g15
g3
Ntp134
Rp135
(lp136
g1
(g19
g3
Ntp137
Rp138
(lp139
F-6.3
aF-1.8999999999999986
aF0.0
abag1
(g23
g3
Ntp140
Rp141
(lp142
I0
aI0
aI0
aI1
ababsg27
F20.88
sg28
(lp143
sg42
I00
sg43
g83
sg47
F80.31
sba.