(lp0
ccopy_reg
_reconstructor
p1
(cdestination
Destination
p2
c__builtin__
object
p3
Ntp4
Rp5
(dp6
S'_Destination__latest_usage'
p7
g1
(crospy.rostime
Time
p8
g3
Ntp9
Rp10
(lp11
I0
aI0
absS'name'
p12
S'WayPoint1'
p13
sS'pose'
p14
g1
(cgeometry_msgs.msg._Pose
Pose
p15
g3
Ntp16
Rp17
(lp18
g1
(cgeometry_msgs.msg._Point
Point
p19
g3
Ntp20
Rp21
(lp22
F-2.75
aF1.0500000000000025
aF0.0
abag1
(cgeometry_msgs.msg._Quaternion
Quaternion
p23
g3
Ntp24
Rp25
(lp26
I0
aI0
aI0
aI1
ababsS'path_len'
p27
F13.998
sS'_Destination__stats'
p28
(lp29
sS'_Destination__available'
p30
I00
sS'_Destination__remaining_idl'
p31
g1
(g8
g3
Ntp32
Rp33
(lp34
I2
aI600000000
absS'estim_idl'
p35
F53.84
sbag1
(g2
g3
Ntp36
Rp37
(dp38
g7
g10
sg12
S'WayPoint2'
p39
sg14
g1
(g15
g3
Ntp40
Rp41
(lp42
g1
(g19
g3
Ntp43
Rp44
(lp45
F5.15
aF0.9000000000000021
aF0.0
abag1
(g23
g3
Ntp46
Rp47
(lp48
I0
aI0
aI0
aI1
ababsg27
F16.564
sg28
(lp49
sg30
I00
sg31
g1
(g8
g3
Ntp50
Rp51
(lp52
I24
aI0
absg35
F63.71
sbag1
(g2
g3
Ntp53
Rp54
(dp55
g7
g10
sg12
S'WayPoint3'
p56
sg14
g1
(g15
g3
Ntp57
Rp58
(lp59
g1
(g19
g3
Ntp60
Rp61
(lp62
F4.850000000000001
aF3.900000000000002
aF0.0
abag1
(g23
g3
Ntp63
Rp64
(lp65
I0
aI0
aI0
aI1
ababsg27
F18.575
sg28
(lp66
sg30
I00
sg31
g1
(g8
g3
Ntp67
Rp68
(lp69
I3
aI201000000
absg35
F71.44
sbag1
(g2
g3
Ntp70
Rp71
(dp72
g7
g10
sg12
S'WayPoint4'
p73
sg14
g1
(g15
g3
Ntp74
Rp75
(lp76
g1
(g19
g3
Ntp77
Rp78
(lp79
F1.200000000000001
aF3.1000000000000023
aF0.0
abag1
(g23
g3
Ntp80
Rp81
(lp82
I0
aI0
aI0
aI1
ababsg27
F12.546
sg28
(lp83
sg30
I00
sg31
g33
sg35
F48.25
sbag1
(g2
g3
Ntp84
Rp85
(dp86
g7
g10
sg12
S'WayPoint5'
p87
sg14
g1
(g15
g3
Ntp88
Rp89
(lp90
g1
(g19
g3
Ntp91
Rp92
(lp93
F5.800000000000001
aF-4.349999999999998
aF0.0
abag1
(g23
g3
Ntp94
Rp95
(lp96
I0
aI0
aI0
aI1
ababsg27
F8.903
sg28
(lp97
sg30
I00
sg31
g33
sg35
F34.24
sbag1
(g2
g3
Ntp98
Rp99
(dp100
g7
g1
(g8
g3
Ntp101
Rp102
(lp103
I24
aI201000000
absg12
S'WayPoint6'
p104
sg14
g1
(g15
g3
Ntp105
Rp106
(lp107
g1
(g19
g3
Ntp108
Rp109
(lp110
F-6.15
aF3.150000000000002
aF0.0
abag1
(g23
g3
Ntp111
Rp112
(lp113
I0
aI0
aI0
aI1
ababsg27
F0.0
sg28
(lp114
g1
(cdestination
Observation
p115
g3
Ntp116
Rp117
(dp118
S'idleness'
p119
g1
(cdestination
Idleness
p120
g3
Ntp121
Rp122
(dp123
S'_Idleness__true_idl'
p124
F24.201
sS'_Idleness__estim_idl'
p125
F16.38
sS'_Idleness__remaining_idl'
p126
F21.0
sbsg27
F4.258
sbasg30
I01
sg31
g102
sg35
I0
sbag1
(g2
g3
Ntp127
Rp128
(dp129
g7
g1
(g8
g3
Ntp130
Rp131
(lp132
I23
aI600000000
absg12
S'WayPoint7'
p133
sg14
g1
(g15
g3
Ntp134
Rp135
(lp136
g1
(g19
g3
Ntp137
Rp138
(lp139
F-6.3
aF-1.8999999999999986
aF0.0
abag1
(g23
g3
Ntp140
Rp141
(lp142
I0
aI0
aI0
aI1
ababsg27
F16.586
sg28
(lp143
g1
(g115
g3
Ntp144
Rp145
(dp146
g119
g1
(g120
g3
Ntp147
Rp148
(dp149
g124
F23.6
sg125
F19.79
sg126
F21.0
sbsg27
F5.146
sbasg30
I00
sg31
g102
sg35
F63.79
sba.