(lp0
ccopy_reg
_reconstructor
p1
(cdestination
Destination
p2
c__builtin__
object
p3
Ntp4
Rp5
(dp6
S'_Destination__latest_usage'
p7
g1
(crospy.rostime
Time
p8
g3
Ntp9
Rp10
(lp11
I0
aI0
absS'name'
p12
S'WayPoint1'
p13
sS'pose'
p14
g1
(cgeometry_msgs.msg._Pose
Pose
p15
g3
Ntp16
Rp17
(lp18
g1
(cgeometry_msgs.msg._Point
Point
p19
g3
Ntp20
Rp21
(lp22
F-2.75
aF1.0500000000000025
aF0.0
abag1
(cgeometry_msgs.msg._Quaternion
Quaternion
p23
g3
Ntp24
Rp25
(lp26
I0
aI0
aI0
aI1
ababsS'path_len'
p27
F8.487
sS'_Destination__stats'
p28
(lp29
sS'_Destination__available'
p30
I00
sS'_Destination__remaining_idl'
p31
g1
(g8
g3
Ntp32
Rp33
(lp34
I3
aI201000000
absS'estim_idl'
p35
F32.64
sbag1
(g2
g3
Ntp36
Rp37
(dp38
g7
g1
(g8
g3
Ntp39
Rp40
(lp41
I48
aI205000000
absg12
S'WayPoint2'
p42
sg14
g1
(g15
g3
Ntp43
Rp44
(lp45
g1
(g19
g3
Ntp46
Rp47
(lp48
F5.15
aF0.9000000000000021
aF0.0
abag1
(g23
g3
Ntp49
Rp50
(lp51
I0
aI0
aI0
aI1
ababsg27
F16.673
sg28
(lp52
g1
(cdestination
Observation
p53
g3
Ntp54
Rp55
(dp56
S'idleness'
p57
g1
(cdestination
Idleness
p58
g3
Ntp59
Rp60
(dp61
S'_Idleness__true_idl'
p62
F32.6
sS'_Idleness__estim_idl'
p63
F11.96
sS'_Idleness__remaining_idl'
p64
F30.0
sbsg27
F3.108
sbag1
(g53
g3
Ntp65
Rp66
(dp67
g57
g1
(g58
g3
Ntp68
Rp69
(dp70
g62
F15.605
sg63
F11.96
sg64
F15.005
sbsg27
F3.108
sbasg30
I00
sg31
g1
(g8
g3
Ntp71
Rp72
(lp73
I48
aI800000000
absg35
F64.13
sbag1
(g2
g3
Ntp74
Rp75
(dp76
g7
g1
(g8
g3
Ntp77
Rp78
(lp79
I52
aI600000000
absg12
S'WayPoint3'
p80
sg14
g1
(g15
g3
Ntp81
Rp82
(lp83
g1
(g19
g3
Ntp84
Rp85
(lp86
F4.850000000000001
aF3.900000000000002
aF0.0
abag1
(g23
g3
Ntp87
Rp88
(lp89
I0
aI0
aI0
aI1
ababsg27
F3.116
sg28
(lp90
g1
(g53
g3
Ntp91
Rp92
(dp93
g57
g1
(g58
g3
Ntp94
Rp95
(dp96
g62
F15.6
sg63
F11.98
sg64
F13.0
sbsg27
F3.116
sbag1
(g53
g3
Ntp97
Rp98
(dp99
g57
g1
(g58
g3
Ntp100
Rp101
(dp102
g62
F22.6
sg63
F18.7
sg64
F21.999
sbsg27
F4.862
sbag1
(g53
g3
Ntp103
Rp104
(dp105
g57
g1
(g58
g3
Ntp106
Rp107
(dp108
g62
F14.4
sg63
F12.13
sg64
F13.999
sbsg27
F3.153
sbasg30
I00
sg31
g1
(g8
g3
Ntp109
Rp110
(lp111
I53
aI0
absg35
F11.98
sbag1
(g2
g3
Ntp112
Rp113
(dp114
g7
g10
sg12
S'WayPoint4'
p115
sg14
g1
(g15
g3
Ntp116
Rp117
(lp118
g1
(g19
g3
Ntp119
Rp120
(lp121
F1.200000000000001
aF3.1000000000000023
aF0.0
abag1
(g23
g3
Ntp122
Rp123
(lp124
I0
aI0
aI0
aI1
ababsg27
F12.546
sg28
(lp125
sg30
I00
sg31
g1
(g8
g3
Ntp126
Rp127
(lp128
I2
aI600000000
absg35
F48.25
sbag1
(g2
g3
Ntp129
Rp130
(dp131
g7
g10
sg12
S'WayPoint5'
p132
sg14
g1
(g15
g3
Ntp133
Rp134
(lp135
g1
(g19
g3
Ntp136
Rp137
(lp138
F5.800000000000001
aF-4.349999999999998
aF0.0
abag1
(g23
g3
Ntp139
Rp140
(lp141
I0
aI0
aI0
aI1
ababsg27
F18.142
sg28
(lp142
sg30
I00
sg31
g127
sg35
F69.78
sbag1
(g2
g3
Ntp143
Rp144
(dp145
g7
g10
sg12
S'WayPoint6'
p146
sg14
g1
(g15
g3
Ntp147
Rp148
(lp149
g1
(g19
g3
Ntp150
Rp151
(lp152
F-6.15
aF3.150000000000002
aF0.0
abag1
(g23
g3
Ntp153
Rp154
(lp155
I0
aI0
aI0
aI1
ababsg27
F18.161
sg28
(lp156
sg30
I00
sg31
g33
sg35
F69.85
sbag1
(g2
g3
Ntp157
Rp158
(dp159
g7
g1
(g8
g3
Ntp160
Rp161
(lp162
I45
aI201000000
absg12
S'WayPoint7'
p163
sg14
g1
(g15
g3
Ntp164
Rp165
(lp166
g1
(g19
g3
Ntp167
Rp168
(lp169
F-6.3
aF-1.8999999999999986
aF0.0
abag1
(g23
g3
Ntp170
Rp171
(lp172
I0
aI0
aI0
aI1
ababsg27
F19.3
sg28
(lp173
g1
(g53
g3
Ntp174
Rp175
(dp176
g57
g1
(g58
g3
Ntp177
Rp178
(dp179
g62
F45.201
sg63
F32.43
sg64
F42.0
sbsg27
F8.431
sbasg30
I00
sg31
g1
(g8
g3
Ntp180
Rp181
(lp182
I45
aI803000000
absg35
F74.23
sba.