(lp0
ccopy_reg
_reconstructor
p1
(cdestination
Destination
p2
c__builtin__
object
p3
Ntp4
Rp5
(dp6
S'_Destination__latest_usage'
p7
g1
(crospy.rostime
Time
p8
g3
Ntp9
Rp10
(lp11
I0
aI0
absS'name'
p12
S'WayPoint1'
p13
sS'pose'
p14
g1
(cgeometry_msgs.msg._Pose
Pose
p15
g3
Ntp16
Rp17
(lp18
g1
(cgeometry_msgs.msg._Point
Point
p19
g3
Ntp20
Rp21
(lp22
F-2.75
aF1.0500000000000025
aF0.0
abag1
(cgeometry_msgs.msg._Quaternion
Quaternion
p23
g3
Ntp24
Rp25
(lp26
I0
aI0
aI0
aI1
ababsS'path_len'
p27
F14.079
sS'_Destination__stats'
p28
(lp29
sS'_Destination__available'
p30
I00
sS'_Destination__remaining_idl'
p31
g1
(g8
g3
Ntp32
Rp33
(lp34
I2
aI600000000
absS'estim_idl'
p35
F54.15
sbag1
(g2
g3
Ntp36
Rp37
(dp38
g7
g10
sg12
S'WayPoint2'
p39
sg14
g1
(g15
g3
Ntp40
Rp41
(lp42
g1
(g19
g3
Ntp43
Rp44
(lp45
F5.15
aF0.9000000000000021
aF0.0
abag1
(g23
g3
Ntp46
Rp47
(lp48
I0
aI0
aI0
aI1
ababsg27
F12.364
sg28
(lp49
sg30
I00
sg31
g33
sg35
F47.55
sbag1
(g2
g3
Ntp50
Rp51
(dp52
g7
g1
(g8
g3
Ntp53
Rp54
(lp55
I22
aI200000000
absg12
S'WayPoint3'
p56
sg14
g1
(g15
g3
Ntp57
Rp58
(lp59
g1
(g19
g3
Ntp60
Rp61
(lp62
F4.850000000000001
aF3.900000000000002
aF0.0
abag1
(g23
g3
Ntp63
Rp64
(lp65
I0
aI0
aI0
aI1
ababsg27
F14.369
sg28
(lp66
g1
(cdestination
Observation
p67
g3
Ntp68
Rp69
(dp70
S'idleness'
p71
g1
(cdestination
Idleness
p72
g3
Ntp73
Rp74
(dp75
S'_Idleness__true_idl'
p76
F22.2
sS'_Idleness__estim_idl'
p77
F18.7
sS'_Idleness__remaining_idl'
p78
F19.2
sbsg27
F4.862
sbasg30
I00
sg31
g1
(g8
g3
Ntp79
Rp80
(lp81
I22
aI600000000
absg35
F55.27
sbag1
(g2
g3
Ntp82
Rp83
(dp84
g7
g10
sg12
S'WayPoint4'
p85
sg14
g1
(g15
g3
Ntp86
Rp87
(lp88
g1
(g19
g3
Ntp89
Rp90
(lp91
F1.200000000000001
aF3.1000000000000023
aF0.0
abag1
(g23
g3
Ntp92
Rp93
(lp94
I0
aI0
aI0
aI1
ababsg27
F20.915
sg28
(lp95
sg30
I00
sg31
g1
(g8
g3
Ntp96
Rp97
(lp98
I3
aI0
absg35
F80.44
sbag1
(g2
g3
Ntp99
Rp100
(dp101
g7
g10
sg12
S'WayPoint5'
p102
sg14
g1
(g15
g3
Ntp103
Rp104
(lp105
g1
(g19
g3
Ntp106
Rp107
(lp108
F5.800000000000001
aF-4.349999999999998
aF0.0
abag1
(g23
g3
Ntp109
Rp110
(lp111
I0
aI0
aI0
aI1
ababsg27
F13.986
sg28
(lp112
sg30
I00
sg31
g97
sg35
F53.79
sbag1
(g2
g3
Ntp113
Rp114
(dp115
g7
g1
(g8
g3
Ntp116
Rp117
(lp118
I20
aI601000000
absg12
S'WayPoint6'
p119
sg14
g1
(g15
g3
Ntp120
Rp121
(lp122
g1
(g19
g3
Ntp123
Rp124
(lp125
F-6.15
aF3.150000000000002
aF0.0
abag1
(g23
g3
Ntp126
Rp127
(lp128
I0
aI0
aI0
aI1
ababsg27
F14.406
sg28
(lp129
g1
(g67
g3
Ntp130
Rp131
(dp132
g71
g1
(g72
g3
Ntp133
Rp134
(dp135
g76
F20.601
sg77
F16.38
sg78
F18.001
sbsg27
F4.258
sbasg30
I00
sg31
g1
(g8
g3
Ntp136
Rp137
(lp138
I21
aI400000000
absg35
F55.41
sbag1
(g2
g3
Ntp139
Rp140
(dp141
g7
g10
sg12
S'WayPoint7'
p142
sg14
g1
(g15
g3
Ntp143
Rp144
(lp145
g1
(g19
g3
Ntp146
Rp147
(lp148
F-6.3
aF-1.8999999999999986
aF0.0
abag1
(g23
g3
Ntp149
Rp150
(lp151
I0
aI0
aI0
aI1
ababsg27
F16.517
sg28
(lp152
sg30
I00
sg31
g33
sg35
F63.53
sba.