(lp0
ccopy_reg
_reconstructor
p1
(cdestination
Destination
p2
c__builtin__
object
p3
Ntp4
Rp5
(dp6
S'_Destination__latest_usage'
p7
g1
(crospy.rostime
Time
p8
g3
Ntp9
Rp10
(lp11
I23
aI801000000
absS'name'
p12
S'WayPoint1'
p13
sS'pose'
p14
g1
(cgeometry_msgs.msg._Pose
Pose
p15
g3
Ntp16
Rp17
(lp18
g1
(cgeometry_msgs.msg._Point
Point
p19
g3
Ntp20
Rp21
(lp22
F-1.549999999999999
aF-0.8999999999999986
aF0.0
abag1
(cgeometry_msgs.msg._Quaternion
Quaternion
p23
g3
Ntp24
Rp25
(lp26
I0
aI0
aI0
aI1
ababsS'_Destination__stats'
p27
(lp28
g1
(cdestination
Idleness
p29
g3
Ntp30
Rp31
(dp32
S'_Idleness__true_idl'
p33
F23.801
sS'_Idleness__estim_idl'
p34
F26.13
sS'_Idleness__remaining_idl'
p35
F20.001
sbasS'_Destination__available'
p36
I01
sS'_Destination__remaining_idl'
p37
g10
sS'estim_idl'
p38
I0
sbag1
(g2
g3
Ntp39
Rp40
(dp41
g7
g1
(g8
g3
Ntp42
Rp43
(lp44
I0
aI0
absg12
S'WayPoint10'
p45
sg14
g1
(g15
g3
Ntp46
Rp47
(lp48
g1
(g19
g3
Ntp49
Rp50
(lp51
F-2.75
aF4.0500000000000025
aF0.0
abag1
(g23
g3
Ntp52
Rp53
(lp54
I0
aI0
aI0
aI1
ababsg27
(lp55
sg36
I00
sg37
g1
(g8
g3
Ntp56
Rp57
(lp58
I24
aI0
absg38
F55.86
sbag1
(g2
g3
Ntp59
Rp60
(dp61
g7
g43
sg12
S'WayPoint2'
p62
sg14
g1
(g15
g3
Ntp63
Rp64
(lp65
g1
(g19
g3
Ntp66
Rp67
(lp68
F-5.25
aF-0.04999999999999716
aF0.0
abag1
(g23
g3
Ntp69
Rp70
(lp71
I0
aI0
aI0
aI1
ababsg27
(lp72
sg36
I00
sg37
g1
(g8
g3
Ntp73
Rp74
(lp75
I4
aI0
absg38
F37.82
sbag1
(g2
g3
Ntp76
Rp77
(dp78
g7
g43
sg12
S'WayPoint3'
p79
sg14
g1
(g15
g3
Ntp80
Rp81
(lp82
g1
(g19
g3
Ntp83
Rp84
(lp85
F-2.6499999999999995
aF-3.8999999999999986
aF0.0
abag1
(g23
g3
Ntp86
Rp87
(lp88
I0
aI0
aI0
aI1
ababsg27
(lp89
sg36
I01
sg37
g43
sg38
I0
sbag1
(g2
g3
Ntp90
Rp91
(dp92
g7
g1
(g8
g3
Ntp93
Rp94
(lp95
I26
aI200000000
absg12
S'WayPoint4'
p96
sg14
g1
(g15
g3
Ntp97
Rp98
(lp99
g1
(g19
g3
Ntp100
Rp101
(lp102
F3.700000000000001
aF-1.3499999999999979
aF0.0
abag1
(g23
g3
Ntp103
Rp104
(lp105
I0
aI0
aI0
aI1
ababsg27
(lp106
g1
(g29
g3
Ntp107
Rp108
(dp109
g33
F26.2
sg34
F20.67
sg35
F22.0
sbasg36
I01
sg37
g94
sg38
I0
sbag1
(g2
g3
Ntp110
Rp111
(dp112
g7
g1
(g8
g3
Ntp113
Rp114
(lp115
I23
aI1000000
absg12
S'WayPoint5'
p116
sg14
g1
(g15
g3
Ntp117
Rp118
(lp119
g1
(g19
g3
Ntp120
Rp121
(lp122
F7.650000000000002
aF-1.4999999999999982
aF0.0
abag1
(g23
g3
Ntp123
Rp124
(lp125
I0
aI0
aI0
aI1
ababsg27
(lp126
g1
(g29
g3
Ntp127
Rp128
(dp129
g33
F23.001
sg34
F15.56
sg35
F19.001
sbasg36
I01
sg37
g114
sg38
I0
sbag1
(g2
g3
Ntp130
Rp131
(dp132
g7
g43
sg12
S'WayPoint6'
p133
sg14
g1
(g15
g3
Ntp134
Rp135
(lp136
g1
(g19
g3
Ntp137
Rp138
(lp139
F4.350000000000001
aF1.6000000000000023
aF0.0
abag1
(g23
g3
Ntp140
Rp141
(lp142
I0
aI0
aI0
aI1
ababsg27
(lp143
sg36
I00
sg37
g1
(g8
g3
Ntp144
Rp145
(lp146
I24
aI403000000
absg38
F26.29
sbag1
(g2
g3
Ntp147
Rp148
(dp149
g7
g43
sg12
S'WayPoint7'
p150
sg14
g1
(g15
g3
Ntp151
Rp152
(lp153
g1
(g19
g3
Ntp154
Rp155
(lp156
F1.700000000000001
aF1.6500000000000021
aF0.0
abag1
(g23
g3
Ntp157
Rp158
(lp159
I0
aI0
aI0
aI1
ababsg27
(lp160
sg36
I00
sg37
g1
(g8
g3
Ntp161
Rp162
(lp163
I3
aI800000000
absg38
F20.54
sbag1
(g2
g3
Ntp164
Rp165
(dp166
g7
g43
sg12
S'WayPoint8'
p167
sg14
g1
(g15
g3
Ntp168
Rp169
(lp170
g1
(g19
g3
Ntp171
Rp172
(lp173
F0.9000000000000004
aF4.350000000000002
aF0.0
abag1
(g23
g3
Ntp174
Rp175
(lp176
I0
aI0
aI0
aI1
ababsg27
(lp177
sg36
I00
sg37
g162
sg38
F28.8
sbag1
(g2
g3
Ntp178
Rp179
(dp180
g7
g43
sg12
S'WayPoint9'
p181
sg14
g1
(g15
g3
Ntp182
Rp183
(lp184
g1
(g19
g3
Ntp185
Rp186
(lp187
F5.0
aF4.600000000000002
aF0.0
abag1
(g23
g3
Ntp188
Rp189
(lp190
I0
aI0
aI0
aI1
ababsg27
(lp191
sg36
I00
sg37
g1
(g8
g3
Ntp192
Rp193
(lp194
I27
aI202000000
absg38
F41.77
sba.