(lp0
ccopy_reg
_reconstructor
p1
(cdestination
Destination
p2
c__builtin__
object
p3
Ntp4
Rp5
(dp6
S'_Destination__latest_usage'
p7
g1
(crospy.rostime
Time
p8
g3
Ntp9
Rp10
(lp11
I0
aI0
absS'name'
p12
S'WayPoint1'
p13
sS'pose'
p14
g1
(cgeometry_msgs.msg._Pose
Pose
p15
g3
Ntp16
Rp17
(lp18
g1
(cgeometry_msgs.msg._Point
Point
p19
g3
Ntp20
Rp21
(lp22
F-1.549999999999999
aF-0.8999999999999986
aF0.0
abag1
(cgeometry_msgs.msg._Quaternion
Quaternion
p23
g3
Ntp24
Rp25
(lp26
I0
aI0
aI0
aI1
ababsS'_Destination__stats'
p27
(lp28
sS'_Destination__available'
p29
I00
sS'_Destination__remaining_idl'
p30
g1
(g8
g3
Ntp31
Rp32
(lp33
I55
aI200000000
absS'estim_idl'
p34
F27.79
sbag1
(g2
g3
Ntp35
Rp36
(dp37
g7
g1
(g8
g3
Ntp38
Rp39
(lp40
I31
aI203000000
absg12
S'WayPoint10'
p41
sg14
g1
(g15
g3
Ntp42
Rp43
(lp44
g1
(g19
g3
Ntp45
Rp46
(lp47
F-2.75
aF4.0500000000000025
aF0.0
abag1
(g23
g3
Ntp48
Rp49
(lp50
I0
aI0
aI0
aI1
ababsg27
(lp51
g1
(cdestination
Idleness
p52
g3
Ntp53
Rp54
(dp55
S'_Idleness__true_idl'
p56
F31.203
sS'_Idleness__estim_idl'
p57
F30.49
sS'_Idleness__remaining_idl'
p58
F27.003
sbasg29
I01
sg30
g39
sg34
I0
sbag1
(g2
g3
Ntp59
Rp60
(dp61
g7
g10
sg12
S'WayPoint2'
p62
sg14
g1
(g15
g3
Ntp63
Rp64
(lp65
g1
(g19
g3
Ntp66
Rp67
(lp68
F-5.25
aF-0.04999999999999716
aF0.0
abag1
(g23
g3
Ntp69
Rp70
(lp71
I0
aI0
aI0
aI1
ababsg27
(lp72
sg29
I00
sg30
g1
(g8
g3
Ntp73
Rp74
(lp75
I32
aI200000000
absg34
F45.54
sbag1
(g2
g3
Ntp76
Rp77
(dp78
g7
g10
sg12
S'WayPoint3'
p79
sg14
g1
(g15
g3
Ntp80
Rp81
(lp82
g1
(g19
g3
Ntp83
Rp84
(lp85
F-2.6499999999999995
aF-3.8999999999999986
aF0.0
abag1
(g23
g3
Ntp86
Rp87
(lp88
I0
aI0
aI0
aI1
ababsg27
(lp89
sg29
I00
sg30
g1
(g8
g3
Ntp90
Rp91
(lp92
I4
aI0
absg34
F12.63
sbag1
(g2
g3
Ntp93
Rp94
(dp95
g7
g10
sg12
S'WayPoint4'
p96
sg14
g1
(g15
g3
Ntp97
Rp98
(lp99
g1
(g19
g3
Ntp100
Rp101
(lp102
F3.700000000000001
aF-1.3499999999999979
aF0.0
abag1
(g23
g3
Ntp103
Rp104
(lp105
I0
aI0
aI0
aI1
ababsg27
(lp106
sg29
I00
sg30
g1
(g8
g3
Ntp107
Rp108
(lp109
I53
aI0
absg34
F41.64
sbag1
(g2
g3
Ntp110
Rp111
(dp112
g7
g10
sg12
S'WayPoint5'
p113
sg14
g1
(g15
g3
Ntp114
Rp115
(lp116
g1
(g19
g3
Ntp117
Rp118
(lp119
F7.650000000000002
aF-1.4999999999999982
aF0.0
abag1
(g23
g3
Ntp120
Rp121
(lp122
I0
aI0
aI0
aI1
ababsg27
(lp123
sg29
I00
sg30
g1
(g8
g3
Ntp124
Rp125
(lp126
I3
aI400000000
absg34
F57.19
sbag1
(g2
g3
Ntp127
Rp128
(dp129
g7
g1
(g8
g3
Ntp130
Rp131
(lp132
I28
aI201000000
absg12
S'WayPoint6'
p133
sg14
g1
(g15
g3
Ntp134
Rp135
(lp136
g1
(g19
g3
Ntp137
Rp138
(lp139
F4.350000000000001
aF1.6000000000000023
aF0.0
abag1
(g23
g3
Ntp140
Rp141
(lp142
I0
aI0
aI0
aI1
ababsg27
(lp143
g1
(g52
g3
Ntp144
Rp145
(dp146
g56
F28.201
sg57
F20.48
sg58
F24.001
sbasg29
I01
sg30
g131
sg34
I0
sbag1
(g2
g3
Ntp147
Rp148
(dp149
g7
g10
sg12
S'WayPoint7'
p150
sg14
g1
(g15
g3
Ntp151
Rp152
(lp153
g1
(g19
g3
Ntp154
Rp155
(lp156
F1.700000000000001
aF1.6500000000000021
aF0.0
abag1
(g23
g3
Ntp157
Rp158
(lp159
I0
aI0
aI0
aI1
ababsg27
(lp160
sg29
I00
sg30
g1
(g8
g3
Ntp161
Rp162
(lp163
I3
aI800000000
absg34
F23.09
sbag1
(g2
g3
Ntp164
Rp165
(dp166
g7
g1
(g8
g3
Ntp167
Rp168
(lp169
I54
aI200000000
absg12
S'WayPoint8'
p170
sg14
g1
(g15
g3
Ntp171
Rp172
(lp173
g1
(g19
g3
Ntp174
Rp175
(lp176
F0.9000000000000004
aF4.350000000000002
aF0.0
abag1
(g23
g3
Ntp177
Rp178
(lp179
I0
aI0
aI0
aI1
ababsg27
(lp180
g1
(g52
g3
Ntp181
Rp182
(dp183
g56
F54.2
sg57
F21.63
sg58
F25.0
sbasg29
I01
sg30
g168
sg34
I0
sbag1
(g2
g3
Ntp184
Rp185
(dp186
g7
g1
(g8
g3
Ntp187
Rp188
(lp189
I52
aI0
absg12
S'WayPoint9'
p190
sg14
g1
(g15
g3
Ntp191
Rp192
(lp193
g1
(g19
g3
Ntp194
Rp195
(lp196
F5.0
aF4.600000000000002
aF0.0
abag1
(g23
g3
Ntp197
Rp198
(lp199
I0
aI0
aI0
aI1
ababsg27
(lp200
g1
(g52
g3
Ntp201
Rp202
(dp203
g56
F52.0
sg57
F38.52
sg58
F48.0
sbasg29
I01
sg30
g188
sg34
I0
sba.