(lp0
ccopy_reg
_reconstructor
p1
(cdestination
Destination
p2
c__builtin__
object
p3
Ntp4
Rp5
(dp6
S'_Destination__latest_usage'
p7
g1
(crospy.rostime
Time
p8
g3
Ntp9
Rp10
(lp11
I0
aI0
absS'name'
p12
S'WayPoint1'
p13
sS'pose'
p14
g1
(cgeometry_msgs.msg._Pose
Pose
p15
g3
Ntp16
Rp17
(lp18
g1
(cgeometry_msgs.msg._Point
Point
p19
g3
Ntp20
Rp21
(lp22
F-1.549999999999999
aF-0.8999999999999986
aF0.0
abag1
(cgeometry_msgs.msg._Quaternion
Quaternion
p23
g3
Ntp24
Rp25
(lp26
I0
aI0
aI0
aI1
ababsS'_Destination__stats'
p27
(lp28
sS'_Destination__available'
p29
I00
sS'_Destination__remaining_idl'
p30
g1
(g8
g3
Ntp31
Rp32
(lp33
I4
aI0
absS'estim_idl'
p34
F35.28
sbag1
(g2
g3
Ntp35
Rp36
(dp37
g7
g10
sg12
S'WayPoint10'
p38
sg14
g1
(g15
g3
Ntp39
Rp40
(lp41
g1
(g19
g3
Ntp42
Rp43
(lp44
F-2.75
aF4.0500000000000025
aF0.0
abag1
(g23
g3
Ntp45
Rp46
(lp47
I0
aI0
aI0
aI1
ababsg27
(lp48
sg29
I00
sg30
g1
(g8
g3
Ntp49
Rp50
(lp51
I3
aI804000000
absg34
F26.01
sbag1
(g2
g3
Ntp52
Rp53
(dp54
g7
g1
(g8
g3
Ntp55
Rp56
(lp57
I40
aI200000000
absg12
S'WayPoint2'
p58
sg14
g1
(g15
g3
Ntp59
Rp60
(lp61
g1
(g19
g3
Ntp62
Rp63
(lp64
F-5.25
aF-0.04999999999999716
aF0.0
abag1
(g23
g3
Ntp65
Rp66
(lp67
I0
aI0
aI0
aI1
ababsg27
(lp68
g1
(cdestination
Idleness
p69
g3
Ntp70
Rp71
(dp72
S'_Idleness__true_idl'
p73
F40.2
sS'_Idleness__estim_idl'
p74
F36.28
sS'_Idleness__remaining_idl'
p75
F35.999
sbasg29
I01
sg30
g56
sg34
I0
sbag1
(g2
g3
Ntp76
Rp77
(dp78
g7
g10
sg12
S'WayPoint3'
p79
sg14
g1
(g15
g3
Ntp80
Rp81
(lp82
g1
(g19
g3
Ntp83
Rp84
(lp85
F-2.6499999999999995
aF-3.8999999999999986
aF0.0
abag1
(g23
g3
Ntp86
Rp87
(lp88
I0
aI0
aI0
aI1
ababsg27
(lp89
sg29
I00
sg30
g32
sg34
F44.94
sbag1
(g2
g3
Ntp90
Rp91
(dp92
g7
g1
(g8
g3
Ntp93
Rp94
(lp95
I26
aI800000000
absg12
S'WayPoint4'
p96
sg14
g1
(g15
g3
Ntp97
Rp98
(lp99
g1
(g19
g3
Ntp100
Rp101
(lp102
F3.700000000000001
aF-1.3499999999999979
aF0.0
abag1
(g23
g3
Ntp103
Rp104
(lp105
I0
aI0
aI0
aI1
ababsg27
(lp106
g1
(g69
g3
Ntp107
Rp108
(dp109
g73
F26.8
sg74
F20.67
sg75
F23.6
sbasg29
I00
sg30
g1
(g8
g3
Ntp110
Rp111
(lp112
I39
aI800000000
absg34
F41.64
sbag1
(g2
g3
Ntp113
Rp114
(dp115
g7
g10
sg12
S'WayPoint5'
p116
sg14
g1
(g15
g3
Ntp117
Rp118
(lp119
g1
(g19
g3
Ntp120
Rp121
(lp122
F7.650000000000002
aF-1.4999999999999982
aF0.0
abag1
(g23
g3
Ntp123
Rp124
(lp125
I0
aI0
aI0
aI1
ababsg27
(lp126
sg29
I00
sg30
g1
(g8
g3
Ntp127
Rp128
(lp129
I41
aI200000000
absg34
F51.39
sbag1
(g2
g3
Ntp130
Rp131
(dp132
g7
g10
sg12
S'WayPoint6'
p133
sg14
g1
(g15
g3
Ntp134
Rp135
(lp136
g1
(g19
g3
Ntp137
Rp138
(lp139
F4.350000000000001
aF1.6000000000000023
aF0.0
abag1
(g23
g3
Ntp140
Rp141
(lp142
I0
aI0
aI0
aI1
ababsg27
(lp143
sg29
I01
sg30
g10
sg34
I0
sbag1
(g2
g3
Ntp144
Rp145
(dp146
g7
g1
(g8
g3
Ntp147
Rp148
(lp149
I9
aI401000000
absg12
S'WayPoint7'
p150
sg14
g1
(g15
g3
Ntp151
Rp152
(lp153
g1
(g19
g3
Ntp154
Rp155
(lp156
F1.700000000000001
aF1.6500000000000021
aF0.0
abag1
(g23
g3
Ntp157
Rp158
(lp159
I0
aI0
aI0
aI1
ababsg27
(lp160
g1
(g69
g3
Ntp161
Rp162
(dp163
g73
F9.401
sg74
F10.54
sg75
F5.999
sbasg29
I01
sg30
g148
sg34
I0
sbag1
(g2
g3
Ntp164
Rp165
(dp166
g7
g10
sg12
S'WayPoint8'
p167
sg14
g1
(g15
g3
Ntp168
Rp169
(lp170
g1
(g19
g3
Ntp171
Rp172
(lp173
F0.9000000000000004
aF4.350000000000002
aF0.0
abag1
(g23
g3
Ntp174
Rp175
(lp176
I0
aI0
aI0
aI1
ababsg27
(lp177
sg29
I00
sg30
g1
(g8
g3
Ntp178
Rp179
(lp180
I27
aI200000000
absg34
F32.83
sbag1
(g2
g3
Ntp181
Rp182
(dp183
g7
g1
(g8
g3
Ntp184
Rp185
(lp186
I38
aI800000000
absg12
S'WayPoint9'
p187
sg14
g1
(g15
g3
Ntp188
Rp189
(lp190
g1
(g19
g3
Ntp191
Rp192
(lp193
F5.0
aF4.600000000000002
aF0.0
abag1
(g23
g3
Ntp194
Rp195
(lp196
I0
aI0
aI0
aI1
ababsg27
(lp197
g1
(g69
g3
Ntp198
Rp199
(dp200
g73
F38.8
sg74
F19.47
sg75
F29.0
sbasg29
I01
sg30
g185
sg34
I0
sba.