(lp0
ccopy_reg
_reconstructor
p1
(cdestination
Destination
p2
c__builtin__
object
p3
Ntp4
Rp5
(dp6
S'_Destination__latest_usage'
p7
g1
(crospy.rostime
Time
p8
g3
Ntp9
Rp10
(lp11
I0
aI0
absS'name'
p12
S'WayPoint1'
p13
sS'pose'
p14
g1
(cgeometry_msgs.msg._Pose
Pose
p15
g3
Ntp16
Rp17
(lp18
g1
(cgeometry_msgs.msg._Point
Point
p19
g3
Ntp20
Rp21
(lp22
F-2.75
aF1.0500000000000025
aF0.0
abag1
(cgeometry_msgs.msg._Quaternion
Quaternion
p23
g3
Ntp24
Rp25
(lp26
I0
aI0
aI0
aI1
ababsS'_Destination__stats'
p27
(lp28
sS'_Destination__available'
p29
I00
sS'_Destination__remaining_idl'
p30
g1
(g8
g3
Ntp31
Rp32
(lp33
I2
aI602000000
absS'estim_idl'
p34
F32.6
sbag1
(g2
g3
Ntp35
Rp36
(dp37
g7
g1
(g8
g3
Ntp38
Rp39
(lp40
I34
aI200000000
absg12
S'WayPoint2'
p41
sg14
g1
(g15
g3
Ntp42
Rp43
(lp44
g1
(g19
g3
Ntp45
Rp46
(lp47
F5.15
aF0.9000000000000021
aF0.0
abag1
(g23
g3
Ntp48
Rp49
(lp50
I0
aI0
aI0
aI1
ababsg27
(lp51
g1
(cdestination
Idleness
p52
g3
Ntp53
Rp54
(dp55
S'_Idleness__true_idl'
p56
F20.6
sS'_Idleness__estim_idl'
p57
F23.29
sS'_Idleness__remaining_idl'
p58
F17.998
sbag1
(g52
g3
Ntp59
Rp60
(dp61
g56
F13.6
sg57
F11.96
sg58
F12.0
sbasg29
I00
sg30
g1
(g8
g3
Ntp62
Rp63
(lp64
I49
aI200000000
absg34
F11.96
sbag1
(g2
g3
Ntp65
Rp66
(dp67
g7
g1
(g8
g3
Ntp68
Rp69
(lp70
I48
aI200000000
absg12
S'WayPoint3'
p71
sg14
g1
(g15
g3
Ntp72
Rp73
(lp74
g1
(g19
g3
Ntp75
Rp76
(lp77
F4.850000000000001
aF3.900000000000002
aF0.0
abag1
(g23
g3
Ntp78
Rp79
(lp80
I0
aI0
aI0
aI1
ababsg27
(lp81
g1
(g52
g3
Ntp82
Rp83
(dp84
g56
F21.201
sg57
F18.7
sg58
F18.001
sbag1
(g52
g3
Ntp85
Rp86
(dp87
g56
F26.999
sg57
F11.98
sg58
F13.0
sbasg29
I00
sg30
g1
(g8
g3
Ntp88
Rp89
(lp90
I52
aI203000000
absg34
F55.34
sbag1
(g2
g3
Ntp91
Rp92
(dp93
g7
g10
sg12
S'WayPoint4'
p94
sg14
g1
(g15
g3
Ntp95
Rp96
(lp97
g1
(g19
g3
Ntp98
Rp99
(lp100
F1.200000000000001
aF3.1000000000000023
aF0.0
abag1
(g23
g3
Ntp101
Rp102
(lp103
I0
aI0
aI0
aI1
ababsg27
(lp104
sg29
I00
sg30
g32
sg34
F48.25
sbag1
(g2
g3
Ntp105
Rp106
(dp107
g7
g10
sg12
S'WayPoint5'
p108
sg14
g1
(g15
g3
Ntp109
Rp110
(lp111
g1
(g19
g3
Ntp112
Rp113
(lp114
F5.800000000000001
aF-4.349999999999998
aF0.0
abag1
(g23
g3
Ntp115
Rp116
(lp117
I0
aI0
aI0
aI1
ababsg27
(lp118
sg29
I00
sg30
g1
(g8
g3
Ntp119
Rp120
(lp121
I3
aI200000000
absg34
F69.78
sbag1
(g2
g3
Ntp122
Rp123
(dp124
g7
g1
(g8
g3
Ntp125
Rp126
(lp127
I51
aI600000000
absg12
S'WayPoint6'
p128
sg14
g1
(g15
g3
Ntp129
Rp130
(lp131
g1
(g19
g3
Ntp132
Rp133
(lp134
F-6.15
aF3.150000000000002
aF0.0
abag1
(g23
g3
Ntp135
Rp136
(lp137
I0
aI0
aI0
aI1
ababsg27
(lp138
g1
(g52
g3
Ntp139
Rp140
(dp141
g56
F51.6
sg57
F47.59
sg58
F48.998
sbasg29
I01
sg30
g126
sg34
I0
sbag1
(g2
g3
Ntp142
Rp143
(dp144
g7
g10
sg12
S'WayPoint7'
p145
sg14
g1
(g15
g3
Ntp146
Rp147
(lp148
g1
(g19
g3
Ntp149
Rp150
(lp151
F-6.3
aF-1.8999999999999986
aF0.0
abag1
(g23
g3
Ntp152
Rp153
(lp154
I0
aI0
aI0
aI1
ababsg27
(lp155
sg29
I00
sg30
g1
(g8
g3
Ntp156
Rp157
(lp158
I21
aI201000000
absg34
F63.46
sba.