(lp0
ccopy_reg
_reconstructor
p1
(cdestination
Destination
p2
c__builtin__
object
p3
Ntp4
Rp5
(dp6
S'_Destination__latest_usage'
p7
g1
(crospy.rostime
Time
p8
g3
Ntp9
Rp10
(lp11
I42
aI800000000
absS'name'
p12
S'WayPoint1'
p13
sS'pose'
p14
g1
(cgeometry_msgs.msg._Pose
Pose
p15
g3
Ntp16
Rp17
(lp18
g1
(cgeometry_msgs.msg._Point
Point
p19
g3
Ntp20
Rp21
(lp22
F-2.75
aF1.0500000000000025
aF0.0
abag1
(cgeometry_msgs.msg._Quaternion
Quaternion
p23
g3
Ntp24
Rp25
(lp26
I0
aI0
aI0
aI1
ababsS'_Destination__stats'
p27
(lp28
g1
(cdestination
Idleness
p29
g3
Ntp30
Rp31
(dp32
S'_Idleness__true_idl'
p33
F42.8
sS'_Idleness__estim_idl'
p34
F16.4
sS'_Idleness__remaining_idl'
p35
F39.999
sbasS'_Destination__available'
p36
I00
sS'_Destination__remaining_idl'
p37
g1
(g8
g3
Ntp38
Rp39
(lp40
I53
aI800000000
absS'estim_idl'
p41
F39.24
sbag1
(g2
g3
Ntp42
Rp43
(dp44
g7
g1
(g8
g3
Ntp45
Rp46
(lp47
I0
aI0
absg12
S'WayPoint2'
p48
sg14
g1
(g15
g3
Ntp49
Rp50
(lp51
g1
(g19
g3
Ntp52
Rp53
(lp54
F5.15
aF0.9000000000000021
aF0.0
abag1
(g23
g3
Ntp55
Rp56
(lp57
I0
aI0
aI0
aI1
ababsg27
(lp58
sg36
I00
sg37
g1
(g8
g3
Ntp59
Rp60
(lp61
I2
aI801000000
absg41
F31.53
sbag1
(g2
g3
Ntp62
Rp63
(dp64
g7
g1
(g8
g3
Ntp65
Rp66
(lp67
I52
aI800000000
absg12
S'WayPoint3'
p68
sg14
g1
(g15
g3
Ntp69
Rp70
(lp71
g1
(g19
g3
Ntp72
Rp73
(lp74
F4.850000000000001
aF3.900000000000002
aF0.0
abag1
(g23
g3
Ntp75
Rp76
(lp77
I0
aI0
aI0
aI1
ababsg27
(lp78
g1
(g29
g3
Ntp79
Rp80
(dp81
g33
F52.8
sg34
F34.39
sg35
F49.999
sbasg36
I01
sg37
g66
sg41
I0
sbag1
(g2
g3
Ntp82
Rp83
(dp84
g7
g46
sg12
S'WayPoint4'
p85
sg14
g1
(g15
g3
Ntp86
Rp87
(lp88
g1
(g19
g3
Ntp89
Rp90
(lp91
F1.200000000000001
aF3.1000000000000023
aF0.0
abag1
(g23
g3
Ntp92
Rp93
(lp94
I0
aI0
aI0
aI1
ababsg27
(lp95
sg36
I00
sg37
g1
(g8
g3
Ntp96
Rp97
(lp98
I3
aI0
absg41
F80.43
sbag1
(g2
g3
Ntp99
Rp100
(dp101
g7
g1
(g8
g3
Ntp102
Rp103
(lp104
I36
aI800000000
absg12
S'WayPoint5'
p105
sg14
g1
(g15
g3
Ntp106
Rp107
(lp108
g1
(g19
g3
Ntp109
Rp110
(lp111
F5.800000000000001
aF-4.349999999999998
aF0.0
abag1
(g23
g3
Ntp112
Rp113
(lp114
I0
aI0
aI0
aI1
ababsg27
(lp115
g1
(g29
g3
Ntp116
Rp117
(dp118
g33
F36.8
sg34
F23.26
sg35
F33.999
sbasg36
I00
sg37
g1
(g8
g3
Ntp119
Rp120
(lp121
I43
aI800000000
absg41
F53.79
sbag1
(g2
g3
Ntp122
Rp123
(dp124
g7
g46
sg12
S'WayPoint6'
p125
sg14
g1
(g15
g3
Ntp126
Rp127
(lp128
g1
(g19
g3
Ntp129
Rp130
(lp131
F-6.15
aF3.150000000000002
aF0.0
abag1
(g23
g3
Ntp132
Rp133
(lp134
I0
aI0
aI0
aI1
ababsg27
(lp135
sg36
I00
sg37
g60
sg41
F64.24
sbag1
(g2
g3
Ntp136
Rp137
(dp138
g7
g46
sg12
S'WayPoint7'
p139
sg14
g1
(g15
g3
Ntp140
Rp141
(lp142
g1
(g19
g3
Ntp143
Rp144
(lp145
F-6.3
aF-1.8999999999999986
aF0.0
abag1
(g23
g3
Ntp146
Rp147
(lp148
I0
aI0
aI0
aI1
ababsg27
(lp149
sg36
I00
sg37
g1
(g8
g3
Ntp150
Rp151
(lp152
I37
aI800000000
absg41
F86.11
sba.