(lp0
ccopy_reg
_reconstructor
p1
(cdestination
Destination
p2
c__builtin__
object
p3
Ntp4
Rp5
(dp6
S'_Destination__latest_usage'
p7
g1
(crospy.rostime
Time
p8
g3
Ntp9
Rp10
(lp11
I0
aI0
absS'name'
p12
S'WayPoint1'
p13
sS'pose'
p14
g1
(cgeometry_msgs.msg._Pose
Pose
p15
g3
Ntp16
Rp17
(lp18
g1
(cgeometry_msgs.msg._Point
Point
p19
g3
Ntp20
Rp21
(lp22
F-2.75
aF1.0500000000000025
aF0.0
abag1
(cgeometry_msgs.msg._Quaternion
Quaternion
p23
g3
Ntp24
Rp25
(lp26
I0
aI0
aI0
aI1
ababsS'_Destination__stats'
p27
(lp28
sS'_Destination__available'
p29
I00
sS'_Destination__remaining_idl'
p30
g1
(g8
g3
Ntp31
Rp32
(lp33
I38
aI200000000
absS'estim_idl'
p34
F39.24
sbag1
(g2
g3
Ntp35
Rp36
(dp37
g7
g10
sg12
S'WayPoint2'
p38
sg14
g1
(g15
g3
Ntp39
Rp40
(lp41
g1
(g19
g3
Ntp42
Rp43
(lp44
F5.15
aF0.9000000000000021
aF0.0
abag1
(g23
g3
Ntp45
Rp46
(lp47
I0
aI0
aI0
aI1
ababsg27
(lp48
sg29
I00
sg30
g1
(g8
g3
Ntp49
Rp50
(lp51
I2
aI600000000
absg34
F47.55
sbag1
(g2
g3
Ntp52
Rp53
(dp54
g7
g1
(g8
g3
Ntp55
Rp56
(lp57
I37
aI200000000
absg12
S'WayPoint3'
p58
sg14
g1
(g15
g3
Ntp59
Rp60
(lp61
g1
(g19
g3
Ntp62
Rp63
(lp64
F4.850000000000001
aF3.900000000000002
aF0.0
abag1
(g23
g3
Ntp65
Rp66
(lp67
I0
aI0
aI0
aI1
ababsg27
(lp68
g1
(cdestination
Idleness
p69
g3
Ntp70
Rp71
(dp72
S'_Idleness__true_idl'
p73
F37.2
sS'_Idleness__estim_idl'
p74
F34.39
sS'_Idleness__remaining_idl'
p75
F33.999
sbasg29
I00
sg30
g1
(g8
g3
Ntp76
Rp77
(lp78
I48
aI201000000
absg34
F55.27
sbag1
(g2
g3
Ntp79
Rp80
(dp81
g7
g10
sg12
S'WayPoint4'
p82
sg14
g1
(g15
g3
Ntp83
Rp84
(lp85
g1
(g19
g3
Ntp86
Rp87
(lp88
F1.200000000000001
aF3.1000000000000023
aF0.0
abag1
(g23
g3
Ntp89
Rp90
(lp91
I0
aI0
aI0
aI1
ababsg27
(lp92
sg29
I00
sg30
g50
sg34
F48.25
sbag1
(g2
g3
Ntp93
Rp94
(dp95
g7
g10
sg12
S'WayPoint5'
p96
sg14
g1
(g15
g3
Ntp97
Rp98
(lp99
g1
(g19
g3
Ntp100
Rp101
(lp102
F5.800000000000001
aF-4.349999999999998
aF0.0
abag1
(g23
g3
Ntp103
Rp104
(lp105
I0
aI0
aI0
aI1
ababsg27
(lp106
sg29
I00
sg30
g50
sg34
F23.26
sbag1
(g2
g3
Ntp107
Rp108
(dp109
g7
g1
(g8
g3
Ntp110
Rp111
(lp112
I47
aI600000000
absg12
S'WayPoint6'
p113
sg14
g1
(g15
g3
Ntp114
Rp115
(lp116
g1
(g19
g3
Ntp117
Rp118
(lp119
F-6.15
aF3.150000000000002
aF0.0
abag1
(g23
g3
Ntp120
Rp121
(lp122
I0
aI0
aI0
aI1
ababsg27
(lp123
g1
(g69
g3
Ntp124
Rp125
(dp126
g73
F47.6
sg74
F20.0
sg75
F45.0
sbasg29
I01
sg30
g111
sg34
I0
sbag1
(g2
g3
Ntp127
Rp128
(dp129
g7
g10
sg12
S'WayPoint7'
p130
sg14
g1
(g15
g3
Ntp131
Rp132
(lp133
g1
(g19
g3
Ntp134
Rp135
(lp136
F-6.3
aF-1.8999999999999986
aF0.0
abag1
(g23
g3
Ntp137
Rp138
(lp139
I0
aI0
aI0
aI1
ababsg27
(lp140
sg29
I00
sg30
g1
(g8
g3
Ntp141
Rp142
(lp143
I3
aI201000000
absg34
F80.31
sba.