(lp0
ccopy_reg
_reconstructor
p1
(cdestination
Destination
p2
c__builtin__
object
p3
Ntp4
Rp5
(dp6
S'_Destination__latest_usage'
p7
g1
(crospy.rostime
Time
p8
g3
Ntp9
Rp10
(lp11
I0
aI0
absS'name'
p12
S'WayPoint1'
p13
sS'pose'
p14
g1
(cgeometry_msgs.msg._Pose
Pose
p15
g3
Ntp16
Rp17
(lp18
g1
(cgeometry_msgs.msg._Point
Point
p19
g3
Ntp20
Rp21
(lp22
F-2.75
aF1.0500000000000025
aF0.0
abag1
(cgeometry_msgs.msg._Quaternion
Quaternion
p23
g3
Ntp24
Rp25
(lp26
I0
aI0
aI0
aI1
ababsS'_Destination__stats'
p27
(lp28
sS'_Destination__available'
p29
I00
sS'_Destination__remaining_idl'
p30
g1
(g8
g3
Ntp31
Rp32
(lp33
I2
aI600000000
absS'estim_idl'
p34
F48.27
sbag1
(g2
g3
Ntp35
Rp36
(dp37
g7
g10
sg12
S'WayPoint2'
p38
sg14
g1
(g15
g3
Ntp39
Rp40
(lp41
g1
(g19
g3
Ntp42
Rp43
(lp44
F5.15
aF0.9000000000000021
aF0.0
abag1
(g23
g3
Ntp45
Rp46
(lp47
I0
aI0
aI0
aI1
ababsg27
(lp48
sg29
I01
sg30
g10
sg34
I0
sbag1
(g2
g3
Ntp49
Rp50
(dp51
g7
g10
sg12
S'WayPoint3'
p52
sg14
g1
(g15
g3
Ntp53
Rp54
(lp55
g1
(g19
g3
Ntp56
Rp57
(lp58
F4.850000000000001
aF3.900000000000002
aF0.0
abag1
(g23
g3
Ntp59
Rp60
(lp61
I0
aI0
aI0
aI1
ababsg27
(lp62
sg29
I00
sg30
g32
sg34
F55.27
sbag1
(g2
g3
Ntp63
Rp64
(dp65
g7
g10
sg12
S'WayPoint4'
p66
sg14
g1
(g15
g3
Ntp67
Rp68
(lp69
g1
(g19
g3
Ntp70
Rp71
(lp72
F1.200000000000001
aF3.1000000000000023
aF0.0
abag1
(g23
g3
Ntp73
Rp74
(lp75
I0
aI0
aI0
aI1
ababsg27
(lp76
sg29
I00
sg30
g32
sg34
F48.25
sbag1
(g2
g3
Ntp77
Rp78
(dp79
g7
g10
sg12
S'WayPoint5'
p80
sg14
g1
(g15
g3
Ntp81
Rp82
(lp83
g1
(g19
g3
Ntp84
Rp85
(lp86
F5.800000000000001
aF-4.349999999999998
aF0.0
abag1
(g23
g3
Ntp87
Rp88
(lp89
I0
aI0
aI0
aI1
ababsg27
(lp90
sg29
I00
sg30
g32
sg34
F85.96
sbag1
(g2
g3
Ntp91
Rp92
(dp93
g7
g10
sg12
S'WayPoint6'
p94
sg14
g1
(g15
g3
Ntp95
Rp96
(lp97
g1
(g19
g3
Ntp98
Rp99
(lp100
F-6.15
aF3.150000000000002
aF0.0
abag1
(g23
g3
Ntp101
Rp102
(lp103
I0
aI0
aI0
aI1
ababsg27
(lp104
sg29
I00
sg30
g1
(g8
g3
Ntp105
Rp106
(lp107
I3
aI201000000
absg34
F47.47
sbag1
(g2
g3
Ntp108
Rp109
(dp110
g7
g10
sg12
S'WayPoint7'
p111
sg14
g1
(g15
g3
Ntp112
Rp113
(lp114
g1
(g19
g3
Ntp115
Rp116
(lp117
F-6.3
aF-1.8999999999999986
aF0.0
abag1
(g23
g3
Ntp118
Rp119
(lp120
I0
aI0
aI0
aI1
ababsg27
(lp121
sg29
I00
sg30
g1
(g8
g3
Ntp122
Rp123
(lp124
I2
aI800000000
absg34
F85.91
sba.