(lp0
ccopy_reg
_reconstructor
p1
(cdestination
Destination
p2
c__builtin__
object
p3
Ntp4
Rp5
(dp6
S'_Destination__latest_usage'
p7
g1
(crospy.rostime
Time
p8
g3
Ntp9
Rp10
(lp11
I0
aI0
absS'name'
p12
S'WayPoint1'
p13
sS'pose'
p14
g1
(cgeometry_msgs.msg._Pose
Pose
p15
g3
Ntp16
Rp17
(lp18
g1
(cgeometry_msgs.msg._Point
Point
p19
g3
Ntp20
Rp21
(lp22
F-6.75
aF-2.6999999999999975
aF0.0
abag1
(cgeometry_msgs.msg._Quaternion
Quaternion
p23
g3
Ntp24
Rp25
(lp26
I0
aI0
aI0
aI1
ababsS'path_len'
p27
F16.709
sS'_Destination__stats'
p28
(lp29
sS'_Destination__available'
p30
I00
sS'_Destination__remaining_idl'
p31
g1
(g8
g3
Ntp32
Rp33
(lp34
I3
aI800000000
absS'estim_idl'
p35
F64.27
sbag1
(g2
g3
Ntp36
Rp37
(dp38
g7
g1
(g8
g3
Ntp39
Rp40
(lp41
I49
aI0
absg12
S'WayPoint10'
p42
sg14
g1
(g15
g3
Ntp43
Rp44
(lp45
g1
(g19
g3
Ntp46
Rp47
(lp48
F1.8500000000000014
aF2.8500000000000023
aF0.0
abag1
(g23
g3
Ntp49
Rp50
(lp51
I0
aI0
aI0
aI1
ababsg27
F0.0
sg28
(lp52
g1
(cdestination
Observation
p53
g3
Ntp54
Rp55
(dp56
S'idleness'
p57
g1
(cdestination
Idleness
p58
g3
Ntp59
Rp60
(dp61
S'_Idleness__true_idl'
p62
F49.0
sS'_Idleness__estim_idl'
p63
F39.68
sS'_Idleness__remaining_idl'
p64
F45.0
sbsg27
F10.318
sbasg30
I01
sg31
g40
sg35
I0
sbag1
(g2
g3
Ntp65
Rp66
(dp67
g7
g10
sg12
S'WayPoint11'
p68
sg14
g1
(g15
g3
Ntp69
Rp70
(lp71
g1
(g19
g3
Ntp72
Rp73
(lp74
F6.600000000000001
aF3.450000000000003
aF0.0
abag1
(g23
g3
Ntp75
Rp76
(lp77
I0
aI0
aI0
aI1
ababsg27
F11.381
sg28
(lp78
sg30
I00
sg31
g1
(g8
g3
Ntp79
Rp80
(lp81
I50
aI0
absg35
F43.77
sbag1
(g2
g3
Ntp82
Rp83
(dp84
g7
g10
sg12
S'WayPoint2'
p85
sg14
g1
(g15
g3
Ntp86
Rp87
(lp88
g1
(g19
g3
Ntp89
Rp90
(lp91
F-3.1999999999999993
aF-3.349999999999998
aF0.0
abag1
(g23
g3
Ntp92
Rp93
(lp94
I0
aI0
aI0
aI1
ababsg27
F7.089
sg28
(lp95
sg30
I00
sg31
g1
(g8
g3
Ntp96
Rp97
(lp98
I4
aI200000000
absg35
F27.26
sbag1
(g2
g3
Ntp99
Rp100
(dp101
g7
g10
sg12
S'WayPoint3'
p102
sg14
g1
(g15
g3
Ntp103
Rp104
(lp105
g1
(g19
g3
Ntp106
Rp107
(lp108
F0.0
aF-3.349999999999998
aF0.0
abag1
(g23
g3
Ntp109
Rp110
(lp111
I0
aI0
aI0
aI1
ababsg27
F0.0
sg28
(lp112
sg30
I01
sg31
g10
sg35
I0
sbag1
(g2
g3
Ntp113
Rp114
(dp115
g7
g1
(g8
g3
Ntp116
Rp117
(lp118
I34
aI0
absg12
S'WayPoint4'
p119
sg14
g1
(g15
g3
Ntp120
Rp121
(lp122
g1
(g19
g3
Ntp123
Rp124
(lp125
F2.3500000000000014
aF-3.2499999999999982
aF0.0
abag1
(g23
g3
Ntp126
Rp127
(lp128
I0
aI0
aI0
aI1
ababsg27
F0.0
sg28
(lp129
g1
(g53
g3
Ntp130
Rp131
(dp132
g57
g1
(g58
g3
Ntp133
Rp134
(dp135
g62
F34.0
sg63
F29.13
sg64
F30.0
sbsg27
F7.573
sbasg30
I01
sg31
g117
sg35
I0
sbag1
(g2
g3
Ntp136
Rp137
(dp138
g7
g10
sg12
S'WayPoint5'
p139
sg14
g1
(g15
g3
Ntp140
Rp141
(lp142
g1
(g19
g3
Ntp143
Rp144
(lp145
F5.4
aF-3.4499999999999975
aF0.0
abag1
(g23
g3
Ntp146
Rp147
(lp148
I0
aI0
aI0
aI1
ababsg27
F6.845
sg28
(lp149
sg30
I00
sg31
g80
sg35
F26.33
sbag1
(g2
g3
Ntp150
Rp151
(dp152
g7
g10
sg12
S'WayPoint6'
p153
sg14
g1
(g15
g3
Ntp154
Rp155
(lp156
g1
(g19
g3
Ntp157
Rp158
(lp159
F4.850000000000001
aF-0.7499999999999982
aF0.0
abag1
(g23
g3
Ntp160
Rp161
(lp162
I0
aI0
aI0
aI1
ababsg27
F0.0
sg28
(lp163
sg30
I01
sg31
g10
sg35
I0
sbag1
(g2
g3
Ntp164
Rp165
(dp166
g7
g40
sg12
S'WayPoint7'
p167
sg14
g1
(g15
g3
Ntp168
Rp169
(lp170
g1
(g19
g3
Ntp171
Rp172
(lp173
F1.0500000000000007
aF-0.6999999999999975
aF0.0
abag1
(g23
g3
Ntp174
Rp175
(lp176
I0
aI0
aI0
aI1
ababsg27
F0.0
sg28
(lp177
g1
(g53
g3
Ntp178
Rp179
(dp180
g57
g1
(g58
g3
Ntp181
Rp182
(dp183
g62
F49.0
sg63
F15.05
sg64
F14.0
sbsg27
F3.914
sbasg30
I01
sg31
g40
sg35
I0
sbag1
(g2
g3
Ntp184
Rp185
(dp186
g7
g10
sg12
S'WayPoint8'
p187
sg14
g1
(g15
g3
Ntp188
Rp189
(lp190
g1
(g19
g3
Ntp191
Rp192
(lp193
F-3.05
aF-0.5999999999999979
aF0.0
abag1
(g23
g3
Ntp194
Rp195
(lp196
I0
aI0
aI0
aI1
ababsg27
F3.795
sg28
(lp197
sg30
I00
sg31
g40
sg35
F14.6
sbag1
(g2
g3
Ntp198
Rp199
(dp200
g7
g1
(g8
g3
Ntp201
Rp202
(lp203
I48
aI1000000
absg12
S'WayPoint9'
p204
sg14
g1
(g15
g3
Ntp205
Rp206
(lp207
g1
(g19
g3
Ntp208
Rp209
(lp210
F-1.5
aF2.700000000000003
aF0.0
abag1
(g23
g3
Ntp211
Rp212
(lp213
I0
aI0
aI0
aI1
ababsg27
F0.0
sg28
(lp214
g1
(g53
g3
Ntp215
Rp216
(dp217
g57
g1
(g58
g3
Ntp218
Rp219
(dp220
g62
F48.001
sg63
F35.57
sg64
F44.001
sbsg27
F9.248
sbasg30
I01
sg31
g202
sg35
I0
sba.