(lp0
ccopy_reg
_reconstructor
p1
(cdestination
Destination
p2
c__builtin__
object
p3
Ntp4
Rp5
(dp6
S'_Destination__latest_usage'
p7
g1
(crospy.rostime
Time
p8
g3
Ntp9
Rp10
(lp11
I0
aI0
absS'name'
p12
S'WayPoint1'
p13
sS'pose'
p14
g1
(cgeometry_msgs.msg._Pose
Pose
p15
g3
Ntp16
Rp17
(lp18
g1
(cgeometry_msgs.msg._Point
Point
p19
g3
Ntp20
Rp21
(lp22
F-6.75
aF-2.6999999999999975
aF0.0
abag1
(cgeometry_msgs.msg._Quaternion
Quaternion
p23
g3
Ntp24
Rp25
(lp26
I0
aI0
aI0
aI1
ababsS'path_len'
p27
F0.0
sS'_Destination__stats'
p28
(lp29
sS'_Destination__available'
p30
I01
sS'_Destination__remaining_idl'
p31
g10
sS'estim_idl'
p32
I0
sbag1
(g2
g3
Ntp33
Rp34
(dp35
g7
g10
sg12
S'WayPoint10'
p36
sg14
g1
(g15
g3
Ntp37
Rp38
(lp39
g1
(g19
g3
Ntp40
Rp41
(lp42
F1.8500000000000014
aF2.8500000000000023
aF0.0
abag1
(g23
g3
Ntp43
Rp44
(lp45
I0
aI0
aI0
aI1
ababsg27
F0.0
sg28
(lp46
sg30
I01
sg31
g10
sg32
I0
sbag1
(g2
g3
Ntp47
Rp48
(dp49
g7
g10
sg12
S'WayPoint11'
p50
sg14
g1
(g15
g3
Ntp51
Rp52
(lp53
g1
(g19
g3
Ntp54
Rp55
(lp56
F6.600000000000001
aF3.450000000000003
aF0.0
abag1
(g23
g3
Ntp57
Rp58
(lp59
I0
aI0
aI0
aI1
ababsg27
F0.0
sg28
(lp60
sg30
I01
sg31
g10
sg32
I0
sbag1
(g2
g3
Ntp61
Rp62
(dp63
g7
g10
sg12
S'WayPoint2'
p64
sg14
g1
(g15
g3
Ntp65
Rp66
(lp67
g1
(g19
g3
Ntp68
Rp69
(lp70
F-3.1999999999999993
aF-3.349999999999998
aF0.0
abag1
(g23
g3
Ntp71
Rp72
(lp73
I0
aI0
aI0
aI1
ababsg27
F15.033
sg28
(lp74
sg30
I00
sg31
g1
(g8
g3
Ntp75
Rp76
(lp77
I4
aI0
absg32
F57.82
sbag1
(g2
g3
Ntp78
Rp79
(dp80
g7
g10
sg12
S'WayPoint3'
p81
sg14
g1
(g15
g3
Ntp82
Rp83
(lp84
g1
(g19
g3
Ntp85
Rp86
(lp87
F0.0
aF-3.349999999999998
aF0.0
abag1
(g23
g3
Ntp88
Rp89
(lp90
I0
aI0
aI0
aI1
ababsg27
F9.194
sg28
(lp91
sg30
I00
sg31
g1
(g8
g3
Ntp92
Rp93
(lp94
I3
aI804000000
absg32
F35.36
sbag1
(g2
g3
Ntp95
Rp96
(dp97
g7
g10
sg12
S'WayPoint4'
p98
sg14
g1
(g15
g3
Ntp99
Rp100
(lp101
g1
(g19
g3
Ntp102
Rp103
(lp104
F2.3500000000000014
aF-3.2499999999999982
aF0.0
abag1
(g23
g3
Ntp105
Rp106
(lp107
I0
aI0
aI0
aI1
ababsg27
F8.193
sg28
(lp108
sg30
I00
sg31
g93
sg32
F31.51
sbag1
(g2
g3
Ntp109
Rp110
(dp111
g7
g10
sg12
S'WayPoint5'
p112
sg14
g1
(g15
g3
Ntp113
Rp114
(lp115
g1
(g19
g3
Ntp116
Rp117
(lp118
F5.4
aF-3.4499999999999975
aF0.0
abag1
(g23
g3
Ntp119
Rp120
(lp121
I0
aI0
aI0
aI1
ababsg27
F9.63
sg28
(lp122
sg30
I00
sg31
g93
sg32
F37.04
sbag1
(g2
g3
Ntp123
Rp124
(dp125
g7
g10
sg12
S'WayPoint6'
p126
sg14
g1
(g15
g3
Ntp127
Rp128
(lp129
g1
(g19
g3
Ntp130
Rp131
(lp132
F4.850000000000001
aF-0.7499999999999982
aF0.0
abag1
(g23
g3
Ntp133
Rp134
(lp135
I0
aI0
aI0
aI1
ababsg27
F0.0
sg28
(lp136
sg30
I01
sg31
g10
sg32
I0
sbag1
(g2
g3
Ntp137
Rp138
(dp139
g7
g1
(g8
g3
Ntp140
Rp141
(lp142
I19
aI800000000
absg12
S'WayPoint7'
p143
sg14
g1
(g15
g3
Ntp144
Rp145
(lp146
g1
(g19
g3
Ntp147
Rp148
(lp149
F1.0500000000000007
aF-0.6999999999999975
aF0.0
abag1
(g23
g3
Ntp150
Rp151
(lp152
I0
aI0
aI0
aI1
ababsg27
F0.0
sg28
(lp153
g1
(cdestination
Observation
p154
g3
Ntp155
Rp156
(dp157
S'idleness'
p158
g1
(cdestination
Idleness
p159
g3
Ntp160
Rp161
(dp162
S'_Idleness__true_idl'
p163
F19.8
sS'_Idleness__estim_idl'
p164
F15.13
sS'_Idleness__remaining_idl'
p165
F15.996
sbsg27
F3.933
sbasg30
I01
sg31
g141
sg32
I0
sbag1
(g2
g3
Ntp166
Rp167
(dp168
g7
g10
sg12
S'WayPoint8'
p169
sg14
g1
(g15
g3
Ntp170
Rp171
(lp172
g1
(g19
g3
Ntp173
Rp174
(lp175
F-3.05
aF-0.5999999999999979
aF0.0
abag1
(g23
g3
Ntp176
Rp177
(lp178
I0
aI0
aI0
aI1
ababsg27
F0.0
sg28
(lp179
sg30
I01
sg31
g10
sg32
I0
sbag1
(g2
g3
Ntp180
Rp181
(dp182
g7
g10
sg12
S'WayPoint9'
p183
sg14
g1
(g15
g3
Ntp184
Rp185
(lp186
g1
(g19
g3
Ntp187
Rp188
(lp189
F-1.5
aF2.700000000000003
aF0.0
abag1
(g23
g3
Ntp190
Rp191
(lp192
I0
aI0
aI0
aI1
ababsg27
F6.905
sg28
(lp193
sg30
I00
sg31
g1
(g8
g3
Ntp194
Rp195
(lp196
I20
aI800000000
absg32
F26.56
sba.