(lp0
ccopy_reg
_reconstructor
p1
(cdestination
Destination
p2
c__builtin__
object
p3
Ntp4
Rp5
(dp6
S'_Destination__latest_usage'
p7
g1
(crospy.rostime
Time
p8
g3
Ntp9
Rp10
(lp11
I0
aI0
absS'name'
p12
S'WayPoint1'
p13
sS'pose'
p14
g1
(cgeometry_msgs.msg._Pose
Pose
p15
g3
Ntp16
Rp17
(lp18
g1
(cgeometry_msgs.msg._Point
Point
p19
g3
Ntp20
Rp21
(lp22
F-6.75
aF-2.6999999999999975
aF0.0
abag1
(cgeometry_msgs.msg._Quaternion
Quaternion
p23
g3
Ntp24
Rp25
(lp26
I0
aI0
aI0
aI1
ababsS'path_len'
p27
F0.0
sS'_Destination__stats'
p28
(lp29
sS'_Destination__available'
p30
I01
sS'_Destination__remaining_idl'
p31
g10
sS'estim_idl'
p32
I0
sbag1
(g2
g3
Ntp33
Rp34
(dp35
g7
g1
(g8
g3
Ntp36
Rp37
(lp38
I41
aI400000000
absg12
S'WayPoint10'
p39
sg14
g1
(g15
g3
Ntp40
Rp41
(lp42
g1
(g19
g3
Ntp43
Rp44
(lp45
F1.8500000000000014
aF2.8500000000000023
aF0.0
abag1
(g23
g3
Ntp46
Rp47
(lp48
I0
aI0
aI0
aI1
ababsg27
F0.0
sg28
(lp49
g1
(cdestination
Observation
p50
g3
Ntp51
Rp52
(dp53
S'idleness'
p54
g1
(cdestination
Idleness
p55
g3
Ntp56
Rp57
(dp58
S'_Idleness__true_idl'
p59
F41.4
sS'_Idleness__estim_idl'
p60
F15.26
sS'_Idleness__remaining_idl'
p61
F26.0
sbsg27
F3.968
sbasg30
I01
sg31
g37
sg32
I0
sbag1
(g2
g3
Ntp62
Rp63
(dp64
g7
g10
sg12
S'WayPoint11'
p65
sg14
g1
(g15
g3
Ntp66
Rp67
(lp68
g1
(g19
g3
Ntp69
Rp70
(lp71
F6.600000000000001
aF3.450000000000003
aF0.0
abag1
(g23
g3
Ntp72
Rp73
(lp74
I0
aI0
aI0
aI1
ababsg27
F14.522
sg28
(lp75
sg30
I00
sg31
g1
(g8
g3
Ntp76
Rp77
(lp78
I2
aI600000000
absg32
F55.85
sbag1
(g2
g3
Ntp79
Rp80
(dp81
g7
g10
sg12
S'WayPoint2'
p82
sg14
g1
(g15
g3
Ntp83
Rp84
(lp85
g1
(g19
g3
Ntp86
Rp87
(lp88
F-3.1999999999999993
aF-3.349999999999998
aF0.0
abag1
(g23
g3
Ntp89
Rp90
(lp91
I0
aI0
aI0
aI1
ababsg27
F14.07
sg28
(lp92
sg30
I00
sg31
g77
sg32
F54.12
sbag1
(g2
g3
Ntp93
Rp94
(dp95
g7
g10
sg12
S'WayPoint3'
p96
sg14
g1
(g15
g3
Ntp97
Rp98
(lp99
g1
(g19
g3
Ntp100
Rp101
(lp102
F0.0
aF-3.349999999999998
aF0.0
abag1
(g23
g3
Ntp103
Rp104
(lp105
I0
aI0
aI0
aI1
ababsg27
F6.768
sg28
(lp106
sg30
I00
sg31
g1
(g8
g3
Ntp107
Rp108
(lp109
I42
aI400000000
absg32
F26.03
sbag1
(g2
g3
Ntp110
Rp111
(dp112
g7
g10
sg12
S'WayPoint4'
p113
sg14
g1
(g15
g3
Ntp114
Rp115
(lp116
g1
(g19
g3
Ntp117
Rp118
(lp119
F2.3500000000000014
aF-3.2499999999999982
aF0.0
abag1
(g23
g3
Ntp120
Rp121
(lp122
I0
aI0
aI0
aI1
ababsg27
F0.0
sg28
(lp123
sg30
I01
sg31
g10
sg32
I0
sbag1
(g2
g3
Ntp124
Rp125
(dp126
g7
g10
sg12
S'WayPoint5'
p127
sg14
g1
(g15
g3
Ntp128
Rp129
(lp130
g1
(g19
g3
Ntp131
Rp132
(lp133
F5.4
aF-3.4499999999999975
aF0.0
abag1
(g23
g3
Ntp134
Rp135
(lp136
I0
aI0
aI0
aI1
ababsg27
F10.38
sg28
(lp137
sg30
I00
sg31
g1
(g8
g3
Ntp138
Rp139
(lp140
I3
aI1000000
absg32
F39.92
sbag1
(g2
g3
Ntp141
Rp142
(dp143
g7
g10
sg12
S'WayPoint6'
p144
sg14
g1
(g15
g3
Ntp145
Rp146
(lp147
g1
(g19
g3
Ntp148
Rp149
(lp150
F4.850000000000001
aF-0.7499999999999982
aF0.0
abag1
(g23
g3
Ntp151
Rp152
(lp153
I0
aI0
aI0
aI1
ababsg27
F0.0
sg28
(lp154
sg30
I01
sg31
g10
sg32
I0
sbag1
(g2
g3
Ntp155
Rp156
(dp157
g7
g1
(g8
g3
Ntp158
Rp159
(lp160
I14
aI400000000
absg12
S'WayPoint7'
p161
sg14
g1
(g15
g3
Ntp162
Rp163
(lp164
g1
(g19
g3
Ntp165
Rp166
(lp167
F1.0500000000000007
aF-0.6999999999999975
aF0.0
abag1
(g23
g3
Ntp168
Rp169
(lp170
I0
aI0
aI0
aI1
ababsg27
F0.0
sg28
(lp171
g1
(g50
g3
Ntp172
Rp173
(dp174
g54
g1
(g55
g3
Ntp175
Rp176
(dp177
g59
F14.4
sg60
F11.59
sg61
F11.0
sbsg27
F3.013
sbasg30
I01
sg31
g159
sg32
I0
sbag1
(g2
g3
Ntp178
Rp179
(dp180
g7
g10
sg12
S'WayPoint8'
p181
sg14
g1
(g15
g3
Ntp182
Rp183
(lp184
g1
(g19
g3
Ntp185
Rp186
(lp187
F-3.05
aF-0.5999999999999979
aF0.0
abag1
(g23
g3
Ntp188
Rp189
(lp190
I0
aI0
aI0
aI1
ababsg27
F0.0
sg28
(lp191
sg30
I01
sg31
g10
sg32
I0
sbag1
(g2
g3
Ntp192
Rp193
(dp194
g7
g10
sg12
S'WayPoint9'
p195
sg14
g1
(g15
g3
Ntp196
Rp197
(lp198
g1
(g19
g3
Ntp199
Rp200
(lp201
F-1.5
aF2.700000000000003
aF0.0
abag1
(g23
g3
Ntp202
Rp203
(lp204
I0
aI0
aI0
aI1
ababsg27
F14.475
sg28
(lp205
sg30
I00
sg31
g1
(g8
g3
Ntp206
Rp207
(lp208
I2
aI802000000
absg32
F55.67
sba.