(lp0
ccopy_reg
_reconstructor
p1
(cdestination
Destination
p2
c__builtin__
object
p3
Ntp4
Rp5
(dp6
S'_Destination__latest_usage'
p7
g1
(crospy.rostime
Time
p8
g3
Ntp9
Rp10
(lp11
I0
aI0
absS'name'
p12
S'WayPoint1'
p13
sS'pose'
p14
g1
(cgeometry_msgs.msg._Pose
Pose
p15
g3
Ntp16
Rp17
(lp18
g1
(cgeometry_msgs.msg._Point
Point
p19
g3
Ntp20
Rp21
(lp22
F-6.75
aF-2.6999999999999975
aF0.0
abag1
(cgeometry_msgs.msg._Quaternion
Quaternion
p23
g3
Ntp24
Rp25
(lp26
I0
aI0
aI0
aI1
ababsS'path_len'
p27
F9.147
sS'_Destination__stats'
p28
(lp29
sS'_Destination__available'
p30
I00
sS'_Destination__remaining_idl'
p31
g1
(g8
g3
Ntp32
Rp33
(lp34
I37
aI206000000
absS'estim_idl'
p35
F35.18
sbag1
(g2
g3
Ntp36
Rp37
(dp38
g7
g10
sg12
S'WayPoint10'
p39
sg14
g1
(g15
g3
Ntp40
Rp41
(lp42
g1
(g19
g3
Ntp43
Rp44
(lp45
F1.8500000000000014
aF2.8500000000000023
aF0.0
abag1
(g23
g3
Ntp46
Rp47
(lp48
I0
aI0
aI0
aI1
ababsg27
F0.0
sg28
(lp49
sg30
I01
sg31
g10
sg35
I0
sbag1
(g2
g3
Ntp50
Rp51
(dp52
g7
g10
sg12
S'WayPoint11'
p53
sg14
g1
(g15
g3
Ntp54
Rp55
(lp56
g1
(g19
g3
Ntp57
Rp58
(lp59
F6.600000000000001
aF3.450000000000003
aF0.0
abag1
(g23
g3
Ntp60
Rp61
(lp62
I0
aI0
aI0
aI1
ababsg27
F14.522
sg28
(lp63
sg30
I00
sg31
g1
(g8
g3
Ntp64
Rp65
(lp66
I2
aI600000000
absg35
F55.85
sbag1
(g2
g3
Ntp67
Rp68
(dp69
g7
g1
(g8
g3
Ntp70
Rp71
(lp72
I52
aI0
absg12
S'WayPoint2'
p73
sg14
g1
(g15
g3
Ntp74
Rp75
(lp76
g1
(g19
g3
Ntp77
Rp78
(lp79
F-3.1999999999999993
aF-3.349999999999998
aF0.0
abag1
(g23
g3
Ntp80
Rp81
(lp82
I0
aI0
aI0
aI1
ababsg27
F0.0
sg28
(lp83
g1
(cdestination
Observation
p84
g3
Ntp85
Rp86
(dp87
S'idleness'
p88
g1
(cdestination
Idleness
p89
g3
Ntp90
Rp91
(dp92
S'_Idleness__true_idl'
p93
F52.0
sS'_Idleness__estim_idl'
p94
F40.15
sS'_Idleness__remaining_idl'
p95
F49.0
sbsg27
F10.439
sbasg30
I01
sg31
g71
sg35
I0
sbag1
(g2
g3
Ntp96
Rp97
(dp98
g7
g10
sg12
S'WayPoint3'
p99
sg14
g1
(g15
g3
Ntp100
Rp101
(lp102
g1
(g19
g3
Ntp103
Rp104
(lp105
F0.0
aF-3.349999999999998
aF0.0
abag1
(g23
g3
Ntp106
Rp107
(lp108
I0
aI0
aI0
aI1
ababsg27
F0.0
sg28
(lp109
sg30
I01
sg31
g10
sg35
I0
sbag1
(g2
g3
Ntp110
Rp111
(dp112
g7
g10
sg12
S'WayPoint4'
p113
sg14
g1
(g15
g3
Ntp114
Rp115
(lp116
g1
(g19
g3
Ntp117
Rp118
(lp119
F2.3500000000000014
aF-3.2499999999999982
aF0.0
abag1
(g23
g3
Ntp120
Rp121
(lp122
I0
aI0
aI0
aI1
ababsg27
F5.517
sg28
(lp123
sg30
I00
sg31
g1
(g8
g3
Ntp124
Rp125
(lp126
I31
aI3000000
absg35
F21.22
sbag1
(g2
g3
Ntp127
Rp128
(dp129
g7
g10
sg12
S'WayPoint5'
p130
sg14
g1
(g15
g3
Ntp131
Rp132
(lp133
g1
(g19
g3
Ntp134
Rp135
(lp136
F5.4
aF-3.4499999999999975
aF0.0
abag1
(g23
g3
Ntp137
Rp138
(lp139
I0
aI0
aI0
aI1
ababsg27
F14.201
sg28
(lp140
sg30
I00
sg31
g1
(g8
g3
Ntp141
Rp142
(lp143
I53
aI0
absg35
F54.62
sbag1
(g2
g3
Ntp144
Rp145
(dp146
g7
g1
(g8
g3
Ntp147
Rp148
(lp149
I30
aI0
absg12
S'WayPoint6'
p150
sg14
g1
(g15
g3
Ntp151
Rp152
(lp153
g1
(g19
g3
Ntp154
Rp155
(lp156
F4.850000000000001
aF-0.7499999999999982
aF0.0
abag1
(g23
g3
Ntp157
Rp158
(lp159
I0
aI0
aI0
aI1
ababsg27
F0.0
sg28
(lp160
g1
(g84
g3
Ntp161
Rp162
(dp163
g88
g1
(g89
g3
Ntp164
Rp165
(dp166
g93
F30.0
sg94
F26.35
sg95
F27.0
sbsg27
F6.851
sbasg30
I01
sg31
g148
sg35
I0
sbag1
(g2
g3
Ntp167
Rp168
(dp169
g7
g1
(g8
g3
Ntp170
Rp171
(lp172
I36
aI200000000
absg12
S'WayPoint7'
p173
sg14
g1
(g15
g3
Ntp174
Rp175
(lp176
g1
(g19
g3
Ntp177
Rp178
(lp179
F1.0500000000000007
aF-0.6999999999999975
aF0.0
abag1
(g23
g3
Ntp180
Rp181
(lp182
I0
aI0
aI0
aI1
ababsg27
F0.0
sg28
(lp183
g1
(g84
g3
Ntp184
Rp185
(dp186
g88
g1
(g89
g3
Ntp187
Rp188
(dp189
g93
F36.2
sg94
F26.09
sg95
F32.999
sbsg27
F6.782
sbasg30
I01
sg31
g171
sg35
I0
sbag1
(g2
g3
Ntp190
Rp191
(dp192
g7
g10
sg12
S'WayPoint8'
p193
sg14
g1
(g15
g3
Ntp194
Rp195
(lp196
g1
(g19
g3
Ntp197
Rp198
(lp199
F-3.05
aF-0.5999999999999979
aF0.0
abag1
(g23
g3
Ntp200
Rp201
(lp202
I0
aI0
aI0
aI1
ababsg27
F0.0
sg28
(lp203
sg30
I01
sg31
g10
sg35
I0
sbag1
(g2
g3
Ntp204
Rp205
(dp206
g7
g10
sg12
S'WayPoint9'
p207
sg14
g1
(g15
g3
Ntp208
Rp209
(lp210
g1
(g19
g3
Ntp211
Rp212
(lp213
F-1.5
aF2.700000000000003
aF0.0
abag1
(g23
g3
Ntp214
Rp215
(lp216
I0
aI0
aI0
aI1
ababsg27
F14.475
sg28
(lp217
sg30
I00
sg31
g65
sg35
F55.67
sba.