(lp0
ccopy_reg
_reconstructor
p1
(cdestination
Destination
p2
c__builtin__
object
p3
Ntp4
Rp5
(dp6
S'_Destination__latest_usage'
p7
g1
(crospy.rostime
Time
p8
g3
Ntp9
Rp10
(lp11
I0
aI0
absS'name'
p12
S'WayPoint1'
p13
sS'pose'
p14
g1
(cgeometry_msgs.msg._Pose
Pose
p15
g3
Ntp16
Rp17
(lp18
g1
(cgeometry_msgs.msg._Point
Point
p19
g3
Ntp20
Rp21
(lp22
F-6.75
aF-2.6999999999999975
aF0.0
abag1
(cgeometry_msgs.msg._Quaternion
Quaternion
p23
g3
Ntp24
Rp25
(lp26
I0
aI0
aI0
aI1
ababsS'path_len'
p27
F0.0
sS'_Destination__stats'
p28
(lp29
sS'_Destination__available'
p30
I01
sS'_Destination__remaining_idl'
p31
g10
sS'estim_idl'
p32
I0
sbag1
(g2
g3
Ntp33
Rp34
(dp35
g7
g10
sg12
S'WayPoint10'
p36
sg14
g1
(g15
g3
Ntp37
Rp38
(lp39
g1
(g19
g3
Ntp40
Rp41
(lp42
F1.8500000000000014
aF2.8500000000000023
aF0.0
abag1
(g23
g3
Ntp43
Rp44
(lp45
I0
aI0
aI0
aI1
ababsg27
F9.902
sg28
(lp46
sg30
I00
sg31
g1
(g8
g3
Ntp47
Rp48
(lp49
I2
aI800000000
absg32
F38.08
sbag1
(g2
g3
Ntp50
Rp51
(dp52
g7
g1
(g8
g3
Ntp53
Rp54
(lp55
I42
aI0
absg12
S'WayPoint11'
p56
sg14
g1
(g15
g3
Ntp57
Rp58
(lp59
g1
(g19
g3
Ntp60
Rp61
(lp62
F6.600000000000001
aF3.450000000000003
aF0.0
abag1
(g23
g3
Ntp63
Rp64
(lp65
I0
aI0
aI0
aI1
ababsg27
F0.0
sg28
(lp66
g1
(cdestination
Observation
p67
g3
Ntp68
Rp69
(dp70
S'idleness'
p71
g1
(cdestination
Idleness
p72
g3
Ntp73
Rp74
(dp75
S'_Idleness__true_idl'
p76
F42.0
sS'_Idleness__estim_idl'
p77
F33.76
sS'_Idleness__remaining_idl'
p78
F39.0
sbsg27
F8.777
sbasg30
I01
sg31
g54
sg32
I0
sbag1
(g2
g3
Ntp79
Rp80
(dp81
g7
g10
sg12
S'WayPoint2'
p82
sg14
g1
(g15
g3
Ntp83
Rp84
(lp85
g1
(g19
g3
Ntp86
Rp87
(lp88
F-3.1999999999999993
aF-3.349999999999998
aF0.0
abag1
(g23
g3
Ntp89
Rp90
(lp91
I0
aI0
aI0
aI1
ababsg27
F0.0
sg28
(lp92
sg30
I01
sg31
g10
sg32
I0
sbag1
(g2
g3
Ntp93
Rp94
(dp95
g7
g10
sg12
S'WayPoint3'
p96
sg14
g1
(g15
g3
Ntp97
Rp98
(lp99
g1
(g19
g3
Ntp100
Rp101
(lp102
F0.0
aF-3.349999999999998
aF0.0
abag1
(g23
g3
Ntp103
Rp104
(lp105
I0
aI0
aI0
aI1
ababsg27
F9.249
sg28
(lp106
sg30
I00
sg31
g1
(g8
g3
Ntp107
Rp108
(lp109
I58
aI0
absg32
F35.57
sbag1
(g2
g3
Ntp110
Rp111
(dp112
g7
g10
sg12
S'WayPoint4'
p113
sg14
g1
(g15
g3
Ntp114
Rp115
(lp116
g1
(g19
g3
Ntp117
Rp118
(lp119
F2.3500000000000014
aF-3.2499999999999982
aF0.0
abag1
(g23
g3
Ntp120
Rp121
(lp122
I0
aI0
aI0
aI1
ababsg27
F9.176
sg28
(lp123
sg30
I00
sg31
g1
(g8
g3
Ntp124
Rp125
(lp126
I2
aI602000000
absg32
F35.29
sbag1
(g2
g3
Ntp127
Rp128
(dp129
g7
g1
(g8
g3
Ntp130
Rp131
(lp132
I57
aI3000000
absg12
S'WayPoint5'
p133
sg14
g1
(g15
g3
Ntp134
Rp135
(lp136
g1
(g19
g3
Ntp137
Rp138
(lp139
F5.4
aF-3.4499999999999975
aF0.0
abag1
(g23
g3
Ntp140
Rp141
(lp142
I0
aI0
aI0
aI1
ababsg27
F0.0
sg28
(lp143
g1
(g67
g3
Ntp144
Rp145
(dp146
g71
g1
(g72
g3
Ntp147
Rp148
(dp149
g76
F57.003
sg77
F37.04
sg78
F54.003
sbsg27
F9.63
sbasg30
I01
sg31
g131
sg32
I0
sbag1
(g2
g3
Ntp150
Rp151
(dp152
g7
g1
(g8
g3
Ntp153
Rp154
(lp155
I37
aI600000000
absg12
S'WayPoint6'
p156
sg14
g1
(g15
g3
Ntp157
Rp158
(lp159
g1
(g19
g3
Ntp160
Rp161
(lp162
F4.850000000000001
aF-0.7499999999999982
aF0.0
abag1
(g23
g3
Ntp163
Rp164
(lp165
I0
aI0
aI0
aI1
ababsg27
F0.0
sg28
(lp166
g1
(g67
g3
Ntp167
Rp168
(dp169
g71
g1
(g72
g3
Ntp170
Rp171
(dp172
g76
F37.6
sg77
F29.33
sg78
F34.998
sbsg27
F7.626
sbasg30
I01
sg31
g154
sg32
I0
sbag1
(g2
g3
Ntp173
Rp174
(dp175
g7
g10
sg12
S'WayPoint7'
p176
sg14
g1
(g15
g3
Ntp177
Rp178
(lp179
g1
(g19
g3
Ntp180
Rp181
(lp182
F1.0500000000000007
aF-0.6999999999999975
aF0.0
abag1
(g23
g3
Ntp183
Rp184
(lp185
I0
aI0
aI0
aI1
ababsg27
F7.501
sg28
(lp186
sg30
I00
sg31
g1
(g8
g3
Ntp187
Rp188
(lp189
I43
aI0
absg32
F28.85
sbag1
(g2
g3
Ntp190
Rp191
(dp192
g7
g10
sg12
S'WayPoint8'
p193
sg14
g1
(g15
g3
Ntp194
Rp195
(lp196
g1
(g19
g3
Ntp197
Rp198
(lp199
F-3.05
aF-0.5999999999999979
aF0.0
abag1
(g23
g3
Ntp200
Rp201
(lp202
I0
aI0
aI0
aI1
ababsg27
F8.14
sg28
(lp203
sg30
I00
sg31
g1
(g8
g3
Ntp204
Rp205
(lp206
I38
aI204000000
absg32
F31.31
sbag1
(g2
g3
Ntp207
Rp208
(dp209
g7
g10
sg12
S'WayPoint9'
p210
sg14
g1
(g15
g3
Ntp211
Rp212
(lp213
g1
(g19
g3
Ntp214
Rp215
(lp216
F-1.5
aF2.700000000000003
aF0.0
abag1
(g23
g3
Ntp217
Rp218
(lp219
I0
aI0
aI0
aI1
ababsg27
F0.0
sg28
(lp220
sg30
I01
sg31
g10
sg32
I0
sba.