(lp0
ccopy_reg
_reconstructor
p1
(cdestination
Destination
p2
c__builtin__
object
p3
Ntp4
Rp5
(dp6
S'_Destination__latest_usage'
p7
g1
(crospy.rostime
Time
p8
g3
Ntp9
Rp10
(lp11
I0
aI0
absS'name'
p12
S'WayPoint1'
p13
sS'pose'
p14
g1
(cgeometry_msgs.msg._Pose
Pose
p15
g3
Ntp16
Rp17
(lp18
g1
(cgeometry_msgs.msg._Point
Point
p19
g3
Ntp20
Rp21
(lp22
F-1.549999999999999
aF-0.8999999999999986
aF0.0
abag1
(cgeometry_msgs.msg._Quaternion
Quaternion
p23
g3
Ntp24
Rp25
(lp26
I0
aI0
aI0
aI1
ababsS'_Destination__stats'
p27
(lp28
sS'_Destination__available'
p29
I00
sS'_Destination__remaining_idl'
p30
g1
(g8
g3
Ntp31
Rp32
(lp33
I4
aI1000000
absS'estim_idl'
p34
F25.57
sbag1
(g2
g3
Ntp35
Rp36
(dp37
g7
g10
sg12
S'WayPoint10'
p38
sg14
g1
(g15
g3
Ntp39
Rp40
(lp41
g1
(g19
g3
Ntp42
Rp43
(lp44
F-2.75
aF4.0500000000000025
aF0.0
abag1
(g23
g3
Ntp45
Rp46
(lp47
I0
aI0
aI0
aI1
ababsg27
(lp48
sg29
I01
sg30
g10
sg34
I0
sbag1
(g2
g3
Ntp49
Rp50
(dp51
g7
g10
sg12
S'WayPoint2'
p52
sg14
g1
(g15
g3
Ntp53
Rp54
(lp55
g1
(g19
g3
Ntp56
Rp57
(lp58
F-5.25
aF-0.04999999999999716
aF0.0
abag1
(g23
g3
Ntp59
Rp60
(lp61
I0
aI0
aI0
aI1
ababsg27
(lp62
sg29
I01
sg30
g10
sg34
I0
sbag1
(g2
g3
Ntp63
Rp64
(dp65
g7
g10
sg12
S'WayPoint3'
p66
sg14
g1
(g15
g3
Ntp67
Rp68
(lp69
g1
(g19
g3
Ntp70
Rp71
(lp72
F-2.6499999999999995
aF-3.8999999999999986
aF0.0
abag1
(g23
g3
Ntp73
Rp74
(lp75
I0
aI0
aI0
aI1
ababsg27
(lp76
sg29
I00
sg30
g1
(g8
g3
Ntp77
Rp78
(lp79
I4
aI200000000
absg34
F28.32
sbag1
(g2
g3
Ntp80
Rp81
(dp82
g7
g10
sg12
S'WayPoint4'
p83
sg14
g1
(g15
g3
Ntp84
Rp85
(lp86
g1
(g19
g3
Ntp87
Rp88
(lp89
F3.700000000000001
aF-1.3499999999999979
aF0.0
abag1
(g23
g3
Ntp90
Rp91
(lp92
I0
aI0
aI0
aI1
ababsg27
(lp93
sg29
I00
sg30
g1
(g8
g3
Ntp94
Rp95
(lp96
I33
aI201000000
absg34
F32.84
sbag1
(g2
g3
Ntp97
Rp98
(dp99
g7
g10
sg12
S'WayPoint5'
p100
sg14
g1
(g15
g3
Ntp101
Rp102
(lp103
g1
(g19
g3
Ntp104
Rp105
(lp106
F7.650000000000002
aF-1.4999999999999982
aF0.0
abag1
(g23
g3
Ntp107
Rp108
(lp109
I0
aI0
aI0
aI1
ababsg27
(lp110
sg29
I00
sg30
g1
(g8
g3
Ntp111
Rp112
(lp113
I2
aI600000000
absg34
F57.29
sbag1
(g2
g3
Ntp114
Rp115
(dp116
g7
g10
sg12
S'WayPoint6'
p117
sg14
g1
(g15
g3
Ntp118
Rp119
(lp120
g1
(g19
g3
Ntp121
Rp122
(lp123
F4.350000000000001
aF1.6000000000000023
aF0.0
abag1
(g23
g3
Ntp124
Rp125
(lp126
I0
aI0
aI0
aI1
ababsg27
(lp127
sg29
I00
sg30
g1
(g8
g3
Ntp128
Rp129
(lp130
I3
aI800000000
absg34
F26.29
sbag1
(g2
g3
Ntp131
Rp132
(dp133
g7
g10
sg12
S'WayPoint7'
p134
sg14
g1
(g15
g3
Ntp135
Rp136
(lp137
g1
(g19
g3
Ntp138
Rp139
(lp140
F1.700000000000001
aF1.6500000000000021
aF0.0
abag1
(g23
g3
Ntp141
Rp142
(lp143
I0
aI0
aI0
aI1
ababsg27
(lp144
sg29
I01
sg30
g10
sg34
I0
sbag1
(g2
g3
Ntp145
Rp146
(dp147
g7
g1
(g8
g3
Ntp148
Rp149
(lp150
I32
aI201000000
absg12
S'WayPoint8'
p151
sg14
g1
(g15
g3
Ntp152
Rp153
(lp154
g1
(g19
g3
Ntp155
Rp156
(lp157
F0.9000000000000004
aF4.350000000000002
aF0.0
abag1
(g23
g3
Ntp158
Rp159
(lp160
I0
aI0
aI0
aI1
ababsg27
(lp161
g1
(cdestination
Idleness
p162
g3
Ntp163
Rp164
(dp165
S'_Idleness__true_idl'
p166
F32.201
sS'_Idleness__estim_idl'
p167
F20.53
sS'_Idleness__remaining_idl'
p168
F28.001
sbasg29
I01
sg30
g149
sg34
I0
sbag1
(g2
g3
Ntp169
Rp170
(dp171
g7
g10
sg12
S'WayPoint9'
p172
sg14
g1
(g15
g3
Ntp173
Rp174
(lp175
g1
(g19
g3
Ntp176
Rp177
(lp178
F5.0
aF4.600000000000002
aF0.0
abag1
(g23
g3
Ntp179
Rp180
(lp181
I0
aI0
aI0
aI1
ababsg27
(lp182
sg29
I00
sg30
g32
sg34
F38.52
sba.