(lp0
ccopy_reg
_reconstructor
p1
(cdestination
Destination
p2
c__builtin__
object
p3
Ntp4
Rp5
(dp6
S'_Destination__latest_usage'
p7
g1
(crospy.rostime
Time
p8
g3
Ntp9
Rp10
(lp11
I48
aI800000000
absS'name'
p12
S'WayPoint1'
p13
sS'pose'
p14
g1
(cgeometry_msgs.msg._Pose
Pose
p15
g3
Ntp16
Rp17
(lp18
g1
(cgeometry_msgs.msg._Point
Point
p19
g3
Ntp20
Rp21
(lp22
F-1.549999999999999
aF-0.8999999999999986
aF0.0
abag1
(cgeometry_msgs.msg._Quaternion
Quaternion
p23
g3
Ntp24
Rp25
(lp26
I0
aI0
aI0
aI1
ababsS'_Destination__stats'
p27
(lp28
g1
(cdestination
Idleness
p29
g3
Ntp30
Rp31
(dp32
S'_Idleness__true_idl'
p33
F48.8
sS'_Idleness__estim_idl'
p34
F33.53
sS'_Idleness__remaining_idl'
p35
F45.0
sbasS'_Destination__available'
p36
I01
sS'_Destination__remaining_idl'
p37
g10
sS'estim_idl'
p38
I0
sbag1
(g2
g3
Ntp39
Rp40
(dp41
g7
g1
(g8
g3
Ntp42
Rp43
(lp44
I0
aI0
absg12
S'WayPoint10'
p45
sg14
g1
(g15
g3
Ntp46
Rp47
(lp48
g1
(g19
g3
Ntp49
Rp50
(lp51
F-2.75
aF4.0500000000000025
aF0.0
abag1
(g23
g3
Ntp52
Rp53
(lp54
I0
aI0
aI0
aI1
ababsg27
(lp55
sg36
I00
sg37
g1
(g8
g3
Ntp56
Rp57
(lp58
I3
aI800000000
absg38
F40.73
sbag1
(g2
g3
Ntp59
Rp60
(dp61
g7
g43
sg12
S'WayPoint2'
p62
sg14
g1
(g15
g3
Ntp63
Rp64
(lp65
g1
(g19
g3
Ntp66
Rp67
(lp68
F-5.25
aF-0.04999999999999716
aF0.0
abag1
(g23
g3
Ntp69
Rp70
(lp71
I0
aI0
aI0
aI1
ababsg27
(lp72
sg36
I00
sg37
g1
(g8
g3
Ntp73
Rp74
(lp75
I4
aI0
absg38
F38.44
sbag1
(g2
g3
Ntp76
Rp77
(dp78
g7
g43
sg12
S'WayPoint3'
p79
sg14
g1
(g15
g3
Ntp80
Rp81
(lp82
g1
(g19
g3
Ntp83
Rp84
(lp85
F-2.6499999999999995
aF-3.8999999999999986
aF0.0
abag1
(g23
g3
Ntp86
Rp87
(lp88
I0
aI0
aI0
aI1
ababsg27
(lp89
sg36
I00
sg37
g1
(g8
g3
Ntp90
Rp91
(lp92
I40
aI400000000
absg38
F28.32
sbag1
(g2
g3
Ntp93
Rp94
(dp95
g7
g43
sg12
S'WayPoint4'
p96
sg14
g1
(g15
g3
Ntp97
Rp98
(lp99
g1
(g19
g3
Ntp100
Rp101
(lp102
F3.700000000000001
aF-1.3499999999999979
aF0.0
abag1
(g23
g3
Ntp103
Rp104
(lp105
I0
aI0
aI0
aI1
ababsg27
(lp106
sg36
I00
sg37
g1
(g8
g3
Ntp107
Rp108
(lp109
I3
aI400000000
absg38
F32.47
sbag1
(g2
g3
Ntp110
Rp111
(dp112
g7
g43
sg12
S'WayPoint5'
p113
sg14
g1
(g15
g3
Ntp114
Rp115
(lp116
g1
(g19
g3
Ntp117
Rp118
(lp119
F7.650000000000002
aF-1.4999999999999982
aF0.0
abag1
(g23
g3
Ntp120
Rp121
(lp122
I0
aI0
aI0
aI1
ababsg27
(lp123
sg36
I00
sg37
g74
sg38
F57.29
sbag1
(g2
g3
Ntp124
Rp125
(dp126
g7
g43
sg12
S'WayPoint6'
p127
sg14
g1
(g15
g3
Ntp128
Rp129
(lp130
g1
(g19
g3
Ntp131
Rp132
(lp133
F4.350000000000001
aF1.6000000000000023
aF0.0
abag1
(g23
g3
Ntp134
Rp135
(lp136
I0
aI0
aI0
aI1
ababsg27
(lp137
sg36
I01
sg37
g43
sg38
I0
sbag1
(g2
g3
Ntp138
Rp139
(dp140
g7
g1
(g8
g3
Ntp141
Rp142
(lp143
I39
aI802000000
absg12
S'WayPoint7'
p144
sg14
g1
(g15
g3
Ntp145
Rp146
(lp147
g1
(g19
g3
Ntp148
Rp149
(lp150
F1.700000000000001
aF1.6500000000000021
aF0.0
abag1
(g23
g3
Ntp151
Rp152
(lp153
I0
aI0
aI0
aI1
ababsg27
(lp154
g1
(g29
g3
Ntp155
Rp156
(dp157
g33
F39.802
sg34
F16.19
sg35
F36.002
sbasg36
I01
sg37
g142
sg38
I0
sbag1
(g2
g3
Ntp158
Rp159
(dp160
g7
g43
sg12
S'WayPoint8'
p161
sg14
g1
(g15
g3
Ntp162
Rp163
(lp164
g1
(g19
g3
Ntp165
Rp166
(lp167
F0.9000000000000004
aF4.350000000000002
aF0.0
abag1
(g23
g3
Ntp168
Rp169
(lp170
I0
aI0
aI0
aI1
ababsg27
(lp171
sg36
I01
sg37
g43
sg38
I0
sbag1
(g2
g3
Ntp172
Rp173
(dp174
g7
g43
sg12
S'WayPoint9'
p175
sg14
g1
(g15
g3
Ntp176
Rp177
(lp178
g1
(g19
g3
Ntp179
Rp180
(lp181
F5.0
aF4.600000000000002
aF0.0
abag1
(g23
g3
Ntp182
Rp183
(lp184
I0
aI0
aI0
aI1
ababsg27
(lp185
sg36
I00
sg37
g1
(g8
g3
Ntp186
Rp187
(lp188
I49
aI400000000
absg38
F38.04
sba.