(lp0
ccopy_reg
_reconstructor
p1
(cdestination
Destination
p2
c__builtin__
object
p3
Ntp4
Rp5
(dp6
S'_Destination__latest_usage'
p7
g1
(crospy.rostime
Time
p8
g3
Ntp9
Rp10
(lp11
I0
aI0
absS'name'
p12
S'WayPoint1'
p13
sS'pose'
p14
g1
(cgeometry_msgs.msg._Pose
Pose
p15
g3
Ntp16
Rp17
(lp18
g1
(cgeometry_msgs.msg._Point
Point
p19
g3
Ntp20
Rp21
(lp22
F-1.549999999999999
aF-0.8999999999999986
aF0.0
abag1
(cgeometry_msgs.msg._Quaternion
Quaternion
p23
g3
Ntp24
Rp25
(lp26
I0
aI0
aI0
aI1
ababsS'_Destination__stats'
p27
(lp28
sS'_Destination__available'
p29
I00
sS'_Destination__remaining_idl'
p30
g1
(g8
g3
Ntp31
Rp32
(lp33
I3
aI800000000
absS'estim_idl'
p34
F25.57
sbag1
(g2
g3
Ntp35
Rp36
(dp37
g7
g1
(g8
g3
Ntp38
Rp39
(lp40
I33
aI2000000
absg12
S'WayPoint10'
p41
sg14
g1
(g15
g3
Ntp42
Rp43
(lp44
g1
(g19
g3
Ntp45
Rp46
(lp47
F-2.75
aF4.0500000000000025
aF0.0
abag1
(g23
g3
Ntp48
Rp49
(lp50
I0
aI0
aI0
aI1
ababsg27
(lp51
g1
(cdestination
Idleness
p52
g3
Ntp53
Rp54
(dp55
S'_Idleness__true_idl'
p56
F33.002
sS'_Idleness__estim_idl'
p57
F30.49
sS'_Idleness__remaining_idl'
p58
F29.001
sbasg29
I01
sg30
g39
sg34
I0
sbag1
(g2
g3
Ntp59
Rp60
(dp61
g7
g10
sg12
S'WayPoint2'
p62
sg14
g1
(g15
g3
Ntp63
Rp64
(lp65
g1
(g19
g3
Ntp66
Rp67
(lp68
F-5.25
aF-0.04999999999999716
aF0.0
abag1
(g23
g3
Ntp69
Rp70
(lp71
I0
aI0
aI0
aI1
ababsg27
(lp72
sg29
I01
sg30
g10
sg34
I0
sbag1
(g2
g3
Ntp73
Rp74
(dp75
g7
g10
sg12
S'WayPoint3'
p76
sg14
g1
(g15
g3
Ntp77
Rp78
(lp79
g1
(g19
g3
Ntp80
Rp81
(lp82
F-2.6499999999999995
aF-3.8999999999999986
aF0.0
abag1
(g23
g3
Ntp83
Rp84
(lp85
I0
aI0
aI0
aI1
ababsg27
(lp86
sg29
I01
sg30
g10
sg34
I0
sbag1
(g2
g3
Ntp87
Rp88
(dp89
g7
g10
sg12
S'WayPoint4'
p90
sg14
g1
(g15
g3
Ntp91
Rp92
(lp93
g1
(g19
g3
Ntp94
Rp95
(lp96
F3.700000000000001
aF-1.3499999999999979
aF0.0
abag1
(g23
g3
Ntp97
Rp98
(lp99
I0
aI0
aI0
aI1
ababsg27
(lp100
sg29
I00
sg30
g1
(g8
g3
Ntp101
Rp102
(lp103
I34
aI1000000
absg34
F40.66
sbag1
(g2
g3
Ntp104
Rp105
(dp106
g7
g10
sg12
S'WayPoint5'
p107
sg14
g1
(g15
g3
Ntp108
Rp109
(lp110
g1
(g19
g3
Ntp111
Rp112
(lp113
F7.650000000000002
aF-1.4999999999999982
aF0.0
abag1
(g23
g3
Ntp114
Rp115
(lp116
I0
aI0
aI0
aI1
ababsg27
(lp117
sg29
I00
sg30
g1
(g8
g3
Ntp118
Rp119
(lp120
I4
aI200000000
absg34
F55.75
sbag1
(g2
g3
Ntp121
Rp122
(dp123
g7
g1
(g8
g3
Ntp124
Rp125
(lp126
I48
aI204000000
absg12
S'WayPoint6'
p127
sg14
g1
(g15
g3
Ntp128
Rp129
(lp130
g1
(g19
g3
Ntp131
Rp132
(lp133
F4.350000000000001
aF1.6000000000000023
aF0.0
abag1
(g23
g3
Ntp134
Rp135
(lp136
I0
aI0
aI0
aI1
ababsg27
(lp137
g1
(g52
g3
Ntp138
Rp139
(dp140
g56
F48.204
sg57
F33.08
sg58
F44.004
sbasg29
I01
sg30
g125
sg34
I0
sbag1
(g2
g3
Ntp141
Rp142
(dp143
g7
g10
sg12
S'WayPoint7'
p144
sg14
g1
(g15
g3
Ntp145
Rp146
(lp147
g1
(g19
g3
Ntp148
Rp149
(lp150
F1.700000000000001
aF1.6500000000000021
aF0.0
abag1
(g23
g3
Ntp151
Rp152
(lp153
I0
aI0
aI0
aI1
ababsg27
(lp154
sg29
I00
sg30
g1
(g8
g3
Ntp155
Rp156
(lp157
I2
aI800000000
absg34
F19.44
sbag1
(g2
g3
Ntp158
Rp159
(dp160
g7
g10
sg12
S'WayPoint8'
p161
sg14
g1
(g15
g3
Ntp162
Rp163
(lp164
g1
(g19
g3
Ntp165
Rp166
(lp167
F0.9000000000000004
aF4.350000000000002
aF0.0
abag1
(g23
g3
Ntp168
Rp169
(lp170
I0
aI0
aI0
aI1
ababsg27
(lp171
sg29
I00
sg30
g1
(g8
g3
Ntp172
Rp173
(lp174
I49
aI202000000
absg34
F20.54
sbag1
(g2
g3
Ntp175
Rp176
(dp177
g7
g10
sg12
S'WayPoint9'
p178
sg14
g1
(g15
g3
Ntp179
Rp180
(lp181
g1
(g19
g3
Ntp182
Rp183
(lp184
F5.0
aF4.600000000000002
aF0.0
abag1
(g23
g3
Ntp185
Rp186
(lp187
I0
aI0
aI0
aI1
ababsg27
(lp188
sg29
I00
sg30
g1
(g8
g3
Ntp189
Rp190
(lp191
I4
aI1000000
absg34
F35.02
sba.