(lp0
ccopy_reg
_reconstructor
p1
(cdestination
Destination
p2
c__builtin__
object
p3
Ntp4
Rp5
(dp6
S'_Destination__latest_usage'
p7
g1
(crospy.rostime
Time
p8
g3
Ntp9
Rp10
(lp11
I0
aI0
absS'name'
p12
S'WayPoint1'
p13
sS'pose'
p14
g1
(cgeometry_msgs.msg._Pose
Pose
p15
g3
Ntp16
Rp17
(lp18
g1
(cgeometry_msgs.msg._Point
Point
p19
g3
Ntp20
Rp21
(lp22
F-2.75
aF1.0500000000000025
aF0.0
abag1
(cgeometry_msgs.msg._Quaternion
Quaternion
p23
g3
Ntp24
Rp25
(lp26
I0
aI0
aI0
aI1
ababsS'_Destination__stats'
p27
(lp28
sS'_Destination__available'
p29
I00
sS'_Destination__remaining_idl'
p30
g1
(g8
g3
Ntp31
Rp32
(lp33
I2
aI600000000
absS'estim_idl'
p34
F48.27
sbag1
(g2
g3
Ntp35
Rp36
(dp37
g7
g10
sg12
S'WayPoint2'
p38
sg14
g1
(g15
g3
Ntp39
Rp40
(lp41
g1
(g19
g3
Ntp42
Rp43
(lp44
F5.15
aF0.9000000000000021
aF0.0
abag1
(g23
g3
Ntp45
Rp46
(lp47
I0
aI0
aI0
aI1
ababsg27
(lp48
sg29
I00
sg30
g1
(g8
g3
Ntp49
Rp50
(lp51
I2
aI801000000
absg34
F63.74
sbag1
(g2
g3
Ntp52
Rp53
(dp54
g7
g10
sg12
S'WayPoint3'
p55
sg14
g1
(g15
g3
Ntp56
Rp57
(lp58
g1
(g19
g3
Ntp59
Rp60
(lp61
F4.850000000000001
aF3.900000000000002
aF0.0
abag1
(g23
g3
Ntp62
Rp63
(lp64
I0
aI0
aI0
aI1
ababsg27
(lp65
sg29
I00
sg30
g32
sg34
F55.27
sbag1
(g2
g3
Ntp66
Rp67
(dp68
g7
g10
sg12
S'WayPoint4'
p69
sg14
g1
(g15
g3
Ntp70
Rp71
(lp72
g1
(g19
g3
Ntp73
Rp74
(lp75
F1.200000000000001
aF3.1000000000000023
aF0.0
abag1
(g23
g3
Ntp76
Rp77
(lp78
I0
aI0
aI0
aI1
ababsg27
(lp79
sg29
I00
sg30
g1
(g8
g3
Ntp80
Rp81
(lp82
I37
aI200000000
absg34
F54.05
sbag1
(g2
g3
Ntp83
Rp84
(dp85
g7
g1
(g8
g3
Ntp86
Rp87
(lp88
I36
aI601000000
absg12
S'WayPoint5'
p89
sg14
g1
(g15
g3
Ntp90
Rp91
(lp92
g1
(g19
g3
Ntp93
Rp94
(lp95
F5.800000000000001
aF-4.349999999999998
aF0.0
abag1
(g23
g3
Ntp96
Rp97
(lp98
I0
aI0
aI0
aI1
ababsg27
(lp99
g1
(cdestination
Idleness
p100
g3
Ntp101
Rp102
(dp103
S'_Idleness__true_idl'
p104
F36.601
sS'_Idleness__estim_idl'
p105
F23.26
sS'_Idleness__remaining_idl'
p106
F34.001
sbasg29
I01
sg30
g87
sg34
I0
sbag1
(g2
g3
Ntp107
Rp108
(dp109
g7
g10
sg12
S'WayPoint6'
p110
sg14
g1
(g15
g3
Ntp111
Rp112
(lp113
g1
(g19
g3
Ntp114
Rp115
(lp116
F-6.15
aF3.150000000000002
aF0.0
abag1
(g23
g3
Ntp117
Rp118
(lp119
I0
aI0
aI0
aI1
ababsg27
(lp120
sg29
I00
sg30
g32
sg34
F16.38
sbag1
(g2
g3
Ntp121
Rp122
(dp123
g7
g10
sg12
S'WayPoint7'
p124
sg14
g1
(g15
g3
Ntp125
Rp126
(lp127
g1
(g19
g3
Ntp128
Rp129
(lp130
F-6.3
aF-1.8999999999999986
aF0.0
abag1
(g23
g3
Ntp131
Rp132
(lp133
I0
aI0
aI0
aI1
ababsg27
(lp134
sg29
I00
sg30
g1
(g8
g3
Ntp135
Rp136
(lp137
I3
aI200000000
absg34
F85.86
sba.