(lp0
ccopy_reg
_reconstructor
p1
(cdestination
Destination
p2
c__builtin__
object
p3
Ntp4
Rp5
(dp6
S'_Destination__latest_usage'
p7
g1
(crospy.rostime
Time
p8
g3
Ntp9
Rp10
(lp11
I58
aI603000000
absS'name'
p12
S'WayPoint1'
p13
sS'pose'
p14
g1
(cgeometry_msgs.msg._Pose
Pose
p15
g3
Ntp16
Rp17
(lp18
g1
(cgeometry_msgs.msg._Point
Point
p19
g3
Ntp20
Rp21
(lp22
F-2.75
aF1.0500000000000025
aF0.0
abag1
(cgeometry_msgs.msg._Quaternion
Quaternion
p23
g3
Ntp24
Rp25
(lp26
I0
aI0
aI0
aI1
ababsS'_Destination__stats'
p27
(lp28
g1
(cdestination
Idleness
p29
g3
Ntp30
Rp31
(dp32
S'_Idleness__true_idl'
p33
F58.603
sS'_Idleness__estim_idl'
p34
F53.84
sS'_Idleness__remaining_idl'
p35
F56.002
sbasS'_Destination__available'
p36
I01
sS'_Destination__remaining_idl'
p37
g10
sS'estim_idl'
p38
I0
sbag1
(g2
g3
Ntp39
Rp40
(dp41
g7
g1
(g8
g3
Ntp42
Rp43
(lp44
I31
aI200000000
absg12
S'WayPoint2'
p45
sg14
g1
(g15
g3
Ntp46
Rp47
(lp48
g1
(g19
g3
Ntp49
Rp50
(lp51
F5.15
aF0.9000000000000021
aF0.0
abag1
(g23
g3
Ntp52
Rp53
(lp54
I0
aI0
aI0
aI1
ababsg27
(lp55
g1
(g29
g3
Ntp56
Rp57
(dp58
g33
F31.2
sg34
F29.47
sg35
F28.2
sbasg36
I00
sg37
g1
(g8
g3
Ntp59
Rp60
(lp61
I59
aI200000000
absg38
F31.53
sbag1
(g2
g3
Ntp62
Rp63
(dp64
g7
g1
(g8
g3
Ntp65
Rp66
(lp67
I0
aI0
absg12
S'WayPoint3'
p68
sg14
g1
(g15
g3
Ntp69
Rp70
(lp71
g1
(g19
g3
Ntp72
Rp73
(lp74
F4.850000000000001
aF3.900000000000002
aF0.0
abag1
(g23
g3
Ntp75
Rp76
(lp77
I0
aI0
aI0
aI1
ababsg27
(lp78
sg36
I00
sg37
g1
(g8
g3
Ntp79
Rp80
(lp81
I2
aI601000000
absg38
F55.27
sbag1
(g2
g3
Ntp82
Rp83
(dp84
g7
g66
sg12
S'WayPoint4'
p85
sg14
g1
(g15
g3
Ntp86
Rp87
(lp88
g1
(g19
g3
Ntp89
Rp90
(lp91
F1.200000000000001
aF3.1000000000000023
aF0.0
abag1
(g23
g3
Ntp92
Rp93
(lp94
I0
aI0
aI0
aI1
ababsg27
(lp95
sg36
I00
sg37
g80
sg38
F80.59
sbag1
(g2
g3
Ntp96
Rp97
(dp98
g7
g66
sg12
S'WayPoint5'
p99
sg14
g1
(g15
g3
Ntp100
Rp101
(lp102
g1
(g19
g3
Ntp103
Rp104
(lp105
F5.800000000000001
aF-4.349999999999998
aF0.0
abag1
(g23
g3
Ntp106
Rp107
(lp108
I0
aI0
aI0
aI1
ababsg27
(lp109
sg36
I00
sg37
g1
(g8
g3
Ntp110
Rp111
(lp112
I21
aI0
absg38
F69.78
sbag1
(g2
g3
Ntp113
Rp114
(dp115
g7
g1
(g8
g3
Ntp116
Rp117
(lp118
I20
aI600000000
absg12
S'WayPoint6'
p119
sg14
g1
(g15
g3
Ntp120
Rp121
(lp122
g1
(g19
g3
Ntp123
Rp124
(lp125
F-6.15
aF3.150000000000002
aF0.0
abag1
(g23
g3
Ntp126
Rp127
(lp128
I0
aI0
aI0
aI1
ababsg27
(lp129
g1
(g29
g3
Ntp130
Rp131
(dp132
g33
F20.6
sg34
F16.38
sg35
F17.999
sbasg36
I00
sg37
g1
(g8
g3
Ntp133
Rp134
(lp135
I32
aI200000000
absg38
F47.45
sbag1
(g2
g3
Ntp136
Rp137
(dp138
g7
g66
sg12
S'WayPoint7'
p139
sg14
g1
(g15
g3
Ntp140
Rp141
(lp142
g1
(g19
g3
Ntp143
Rp144
(lp145
F-6.3
aF-1.8999999999999986
aF0.0
abag1
(g23
g3
Ntp146
Rp147
(lp148
I0
aI0
aI0
aI1
ababsg27
(lp149
sg36
I00
sg37
g1
(g8
g3
Ntp150
Rp151
(lp152
I3
aI200000000
absg38
F63.56
sba.